---
triple:          'x86_64-apple-darwin'
binary-path:     '/Users/niki/Documents/nexasdk-bridge/third-party/llama.cpp/build-macos/framework/llama.framework/Versions/A/llama'
relocations:
  - { offset: 0x1B066, size: 0x8, addend: 0x0, symName: __ZNSt3__127__tree_balance_after_insertB8ne180100IPNS_16__tree_node_baseIPvEEEEvT_S5_, symObjAddr: 0x3B00, symBinAddr: 0x4810, symSize: 0x160 }
  - { offset: 0x1D29A, size: 0x8, addend: 0x0, symName: __ZNSt3__120__throw_length_errorB8ne180100EPKc, symObjAddr: 0x3E90, symBinAddr: 0x4BA0, symSize: 0x50 }
  - { offset: 0x1D638, size: 0x8, addend: 0x0, symName: __ZNSt3__120__throw_out_of_rangeB8ne180100EPKc, symObjAddr: 0x44E0, symBinAddr: 0x51F0, symSize: 0x50 }
  - { offset: 0x1E70D, size: 0x8, addend: 0x0, symName: __ZSt28__throw_bad_array_new_lengthB8ne180100v, symObjAddr: 0x3AC0, symBinAddr: 0x47D0, symSize: 0x40 }
  - { offset: 0x23C64, size: 0x8, addend: 0x0, symName: __ZNK18llama_adapter_cvec10tensor_forEi, symObjAddr: 0x0, symBinAddr: 0xD10, symSize: 0x40 }
  - { offset: 0x23CCC, size: 0x8, addend: 0x0, symName: __ZNK18llama_adapter_cvec8apply_toEP12ggml_contextP11ggml_tensori, symObjAddr: 0x40, symBinAddr: 0xD50, symSize: 0x50 }
  - { offset: 0x244B3, size: 0x8, addend: 0x0, symName: __ZN18llama_adapter_cvec4initERK11llama_model, symObjAddr: 0x90, symBinAddr: 0xDA0, symSize: 0x7B0 }
  - { offset: 0x26928, size: 0x8, addend: 0x0, symName: __ZNSt3__16vectorINS_10unique_ptrI12ggml_context20ggml_context_deleterEENS_9allocatorIS4_EEE24__emplace_back_slow_pathIJRPS2_EEEPS4_DpOT_, symObjAddr: 0x3C60, symBinAddr: 0x4970, symSize: 0x220 }
  - { offset: 0x26F5E, size: 0x8, addend: 0x0, symName: __ZNSt3__16vectorINS_10unique_ptrI19ggml_backend_buffer27ggml_backend_buffer_deleterEENS_9allocatorIS4_EEE7reserveEm, symObjAddr: 0x840, symBinAddr: 0x1550, symSize: 0x1E0 }
  - { offset: 0x2746F, size: 0x8, addend: 0x0, symName: __ZNSt3__16vectorINS_10unique_ptrI19ggml_backend_buffer27ggml_backend_buffer_deleterEENS_9allocatorIS4_EEE24__emplace_back_slow_pathIJRPS2_EEEPS4_DpOT_, symObjAddr: 0x5510, symBinAddr: 0x6220, symSize: 0x220 }
  - { offset: 0x27ACA, size: 0x8, addend: 0x0, symName: __ZNSt3__16__treeINS_12__value_typeIP24ggml_backend_buffer_typeP12ggml_contextEENS_19__map_value_compareIS3_S6_NS_4lessIS3_EELb1EEENS_9allocatorIS6_EEE7destroyEPNS_11__tree_nodeIS6_PvEE, symObjAddr: 0x54C0, symBinAddr: 0x61D0, symSize: 0x40 }
  - { offset: 0x27C06, size: 0x8, addend: 0x0, symName: __ZNKSt3__16vectorIP11ggml_tensorNS_9allocatorIS2_EEE20__throw_length_errorB8ne180100Ev, symObjAddr: 0x5500, symBinAddr: 0x6210, symSize: 0x10 }
  - { offset: 0x27C30, size: 0x8, addend: 0x0, symName: __ZNSt3__16vectorINS_10unique_ptrI19ggml_backend_buffer27ggml_backend_buffer_deleterEENS_9allocatorIS4_EEE24__emplace_back_slow_pathIJRPS2_EEEPS4_DpOT_, symObjAddr: 0x5510, symBinAddr: 0x6220, symSize: 0x220 }
  - { offset: 0x28124, size: 0x8, addend: 0x0, symName: __ZNKSt3__16vectorINS_10unique_ptrI19ggml_backend_buffer27ggml_backend_buffer_deleterEENS_9allocatorIS4_EEE20__throw_length_errorB8ne180100Ev, symObjAddr: 0x5330, symBinAddr: 0x6040, symSize: 0x10 }
  - { offset: 0x2814E, size: 0x8, addend: 0x0, symName: __ZNKSt3__16vectorIhNS_9allocatorIhEEE20__throw_length_errorB8ne180100Ev, symObjAddr: 0x5340, symBinAddr: 0x6050, symSize: 0x10 }
  - { offset: 0x2817D, size: 0x8, addend: 0x0, symName: __ZN18llama_adapter_cvec5applyERK11llama_modelPKfmiii, symObjAddr: 0xA20, symBinAddr: 0x1730, symSize: 0x130 }
  - { offset: 0x287B2, size: 0x8, addend: 0x0, symName: __ZN18llama_adapter_lora10get_weightEP11ggml_tensor, symObjAddr: 0xB50, symBinAddr: 0x1860, symSize: 0x100 }
  - { offset: 0x28F1D, size: 0x8, addend: 0x0, symName: __ZNSt3__112__hash_tableINS_17__hash_value_typeINS_12basic_stringIcNS_11char_traitsIcEENS_9allocatorIcEEEE25llama_adapter_lora_weightEENS_22__unordered_map_hasherIS7_S9_NS_4hashIS7_EENS_8equal_toIS7_EELb1EEENS_21__unordered_map_equalIS7_S9_SE_SC_Lb1EEENS5_IS9_EEE4findIS7_EENS_15__hash_iteratorIPNS_11__hash_nodeIS9_PvEEEERKT_, symObjAddr: 0x5730, symBinAddr: 0x6440, symSize: 0x2CF }
  - { offset: 0x2921D, size: 0x8, addend: 0x0, symName: __ZNKSt3__112basic_stringIcNS_11char_traitsIcEENS_9allocatorIcEEE20__throw_length_errorB8ne180100Ev, symObjAddr: 0x45F0, symBinAddr: 0x5300, symSize: 0x10 }
  - { offset: 0x29247, size: 0x8, addend: 0x0, symName: __ZNKSt3__16vectorIP24ggml_backend_buffer_typeNS_9allocatorIS2_EEE20__throw_length_errorB8ne180100Ev, symObjAddr: 0x4600, symBinAddr: 0x5310, symSize: 0x10 }
  - { offset: 0x29252, size: 0x8, addend: 0x0, symName: __ZNSt3__112basic_stringIcNS_11char_traitsIcEENS_9allocatorIcEEEC1B8ne180100ILi0EEEPKc, symObjAddr: 0xC50, symBinAddr: 0x1960, symSize: 0xA0 }
  - { offset: 0x2BAF4, size: 0x8, addend: 0x0, symName: _llama_adapter_lora_init, symObjAddr: 0xCF0, symBinAddr: 0x1A00, symSize: 0x2D90 }
  - { offset: 0x35D09, size: 0x8, addend: 0x0, symName: __ZNSt3__112basic_stringIcNS_11char_traitsIcEENS_9allocatorIcEEE25__init_copy_ctor_externalEPKcm, symObjAddr: 0x4560, symBinAddr: 0x5270, symSize: 0x90 }
  - { offset: 0x3619C, size: 0x8, addend: 0x0, symName: __ZNSt3__112__hash_tableINS_17__hash_value_typeINS_12basic_stringIcNS_11char_traitsIcEENS_9allocatorIcEEEE25llama_adapter_lora_weightEENS_22__unordered_map_hasherIS7_S9_NS_4hashIS7_EENS_8equal_toIS7_EELb1EEENS_21__unordered_map_equalIS7_S9_SE_SC_Lb1EEENS5_IS9_EEE25__emplace_unique_key_argsIS7_JRKNS_21piecewise_construct_tENS_5tupleIJRKS7_EEENSO_IJEEEEEENS_4pairINS_15__hash_iteratorIPNS_11__hash_nodeIS9_PvEEEEbEERKT_DpOT0_, symObjAddr: 0x4610, symBinAddr: 0x5320, symSize: 0x630 }
  - { offset: 0x36C09, size: 0x8, addend: 0x0, symName: __ZNSt3__16vectorINS_10unique_ptrI12ggml_context20ggml_context_deleterEENS_9allocatorIS4_EEE7reserveEm, symObjAddr: 0x3F40, symBinAddr: 0x4C50, symSize: 0x1E0 }
  - { offset: 0x370F0, size: 0x8, addend: 0x0, symName: '__ZZL28llama_adapter_lora_init_implR11llama_modelPKcR18llama_adapter_loraENK3$_4clEP11ggml_tensorS7_', symObjAddr: 0x4150, symBinAddr: 0x4E60, symSize: 0x350 }
  - { offset: 0x3785F, size: 0x8, addend: 0x0, symName: __ZNSt3__16__treeINS_12__value_typeINS_12basic_stringIcNS_11char_traitsIcEENS_9allocatorIcEEEE25llama_adapter_lora_weightEENS_19__map_value_compareIS7_S9_NS_4lessIS7_EELb1EEENS5_IS9_EEE7destroyEPNS_11__tree_nodeIS9_PvEE, symObjAddr: 0x5350, symBinAddr: 0x6060, symSize: 0x50 }
  - { offset: 0x37B36, size: 0x8, addend: 0x0, symName: __ZNKSt3__112basic_stringIcNS_11char_traitsIcEENS_9allocatorIcEEE20__throw_out_of_rangeB8ne180100Ev, symObjAddr: 0x44D0, symBinAddr: 0x51E0, symSize: 0x10 }
  - { offset: 0x37B60, size: 0x8, addend: 0x0, symName: __ZNSt3__120__throw_out_of_rangeB8ne180100EPKc, symObjAddr: 0x44E0, symBinAddr: 0x51F0, symSize: 0x50 }
  - { offset: 0x37B82, size: 0x8, addend: 0x0, symName: __ZNKSt3__16vectorINS_10unique_ptrI12ggml_context20ggml_context_deleterEENS_9allocatorIS4_EEE20__throw_length_errorB8ne180100Ev, symObjAddr: 0x3E80, symBinAddr: 0x4B90, symSize: 0x10 }
  - { offset: 0x37BAC, size: 0x8, addend: 0x0, symName: __ZNSt3__120__throw_length_errorB8ne180100EPKc, symObjAddr: 0x3E90, symBinAddr: 0x4BA0, symSize: 0x50 }
  - { offset: 0x37BB7, size: 0x8, addend: 0x0, symName: __ZNKSt3__16vectorIP24ggml_backend_buffer_typeNS_9allocatorIS2_EEE20__throw_length_errorB8ne180100Ev, symObjAddr: 0x4600, symBinAddr: 0x5310, symSize: 0x10 }
  - { offset: 0x37BE1, size: 0x8, addend: 0x0, symName: __ZNSt3__112__hash_tableINS_17__hash_value_typeINS_12basic_stringIcNS_11char_traitsIcEENS_9allocatorIcEEEE25llama_adapter_lora_weightEENS_22__unordered_map_hasherIS7_S9_NS_4hashIS7_EENS_8equal_toIS7_EELb1EEENS_21__unordered_map_equalIS7_S9_SE_SC_Lb1EEENS5_IS9_EEE25__emplace_unique_key_argsIS7_JRKNS_21piecewise_construct_tENS_5tupleIJRKS7_EEENSO_IJEEEEEENS_4pairINS_15__hash_iteratorIPNS_11__hash_nodeIS9_PvEEEEbEERKT_DpOT0_, symObjAddr: 0x4610, symBinAddr: 0x5320, symSize: 0x630 }
  - { offset: 0x37BEC, size: 0x8, addend: 0x0, symName: __ZNSt3__110unique_ptrI19ggml_backend_buffer27ggml_backend_buffer_deleterED1B8ne180100Ev, symObjAddr: 0x4120, symBinAddr: 0x4E30, symSize: 0x30 }
  - { offset: 0x37C79, size: 0x8, addend: 0x0, symName: __ZNSt3__110unique_ptrI12ggml_context20ggml_context_deleterED1B8ne180100Ev, symObjAddr: 0x3F10, symBinAddr: 0x4C20, symSize: 0x30 }
  - { offset: 0x37D06, size: 0x8, addend: 0x0, symName: __ZNSt3__110unique_ptrI12gguf_context20gguf_context_deleterED1B8ne180100Ev, symObjAddr: 0x44A0, symBinAddr: 0x51B0, symSize: 0x30 }
  - { offset: 0x37D93, size: 0x8, addend: 0x0, symName: __ZN18llama_adapter_loraD2Ev, symObjAddr: 0x53A0, symBinAddr: 0x60B0, symSize: 0x120 }
  - { offset: 0x38542, size: 0x8, addend: 0x0, symName: _llama_adapter_lora_free, symObjAddr: 0x3A90, symBinAddr: 0x47A0, symSize: 0x30 }
  - { offset: 0x38596, size: 0x8, addend: 0x0, symName: __ZNSt12length_errorC1B8ne180100EPKc, symObjAddr: 0x3EE0, symBinAddr: 0x4BF0, symSize: 0x30 }
  - { offset: 0x38B57, size: 0x8, addend: 0x0, symName: __ZNKSt3__16vectorIhNS_9allocatorIhEEE20__throw_length_errorB8ne180100Ev, symObjAddr: 0x5340, symBinAddr: 0x6050, symSize: 0x10 }
  - { offset: 0x38B81, size: 0x8, addend: 0x0, symName: __ZNSt3__16__treeINS_12__value_typeINS_12basic_stringIcNS_11char_traitsIcEENS_9allocatorIcEEEE25llama_adapter_lora_weightEENS_19__map_value_compareIS7_S9_NS_4lessIS7_EELb1EEENS5_IS9_EEE7destroyEPNS_11__tree_nodeIS9_PvEE, symObjAddr: 0x5350, symBinAddr: 0x6060, symSize: 0x50 }
  - { offset: 0x38B8C, size: 0x8, addend: 0x0, symName: __ZNSt12out_of_rangeC1B8ne180100EPKc, symObjAddr: 0x4530, symBinAddr: 0x5240, symSize: 0x30 }
  - { offset: 0x39185, size: 0x8, addend: 0x0, symName: __ZNKSt3__121__murmur2_or_cityhashImLm64EEclB8ne180100EPKvm, symObjAddr: 0x4C80, symBinAddr: 0x5990, symSize: 0x4A0 }
  - { offset: 0x39C26, size: 0x8, addend: 0x0, symName: __ZNSt3__112__hash_tableINS_17__hash_value_typeINS_12basic_stringIcNS_11char_traitsIcEENS_9allocatorIcEEEE25llama_adapter_lora_weightEENS_22__unordered_map_hasherIS7_S9_NS_4hashIS7_EENS_8equal_toIS7_EELb1EEENS_21__unordered_map_equalIS7_S9_SE_SC_Lb1EEENS5_IS9_EEE11__do_rehashILb1EEEvm, symObjAddr: 0x5120, symBinAddr: 0x5E30, symSize: 0x210 }
  - { offset: 0x3A0A2, size: 0x8, addend: 0x0, symName: __ZNSt3__110unique_ptrINS_11__hash_nodeINS_17__hash_value_typeINS_12basic_stringIcNS_11char_traitsIcEENS_9allocatorIcEEEE25llama_adapter_lora_weightEEPvEENS_22__hash_node_destructorINS6_ISC_EEEEED1B8ne180100Ev, symObjAddr: 0x4C40, symBinAddr: 0x5950, symSize: 0x40 }
  - { offset: 0x3CEB2, size: 0x8, addend: 0x0, symName: __ZL14LLM_ARCH_NAMES, symObjAddr: 0xBAB30, symBinAddr: 0x2F3C10, symSize: 0x0 }
  - { offset: 0x4E93E, size: 0x8, addend: 0x0, symName: __ZL12LLM_KV_NAMES, symObjAddr: 0xBAB48, symBinAddr: 0x2F3C28, symSize: 0x0 }
  - { offset: 0x4ED95, size: 0x8, addend: 0x0, symName: __ZL16LLM_TENSOR_NAMES, symObjAddr: 0xBAB60, symBinAddr: 0x2F3C40, symSize: 0x0 }
  - { offset: 0x4FA21, size: 0x8, addend: 0x0, symName: __ZL16LLM_TENSOR_INFOS, symObjAddr: 0xBAB78, symBinAddr: 0x2F3C58, symSize: 0x0 }
  - { offset: 0x50007, size: 0x8, addend: 0x0, symName: __ZNSt3__13mapI8llm_archPKcNS_4lessIS1_EENS_9allocatorINS_4pairIKS1_S3_EEEEED1B8ne180100Ev, symObjAddr: 0x0, symBinAddr: 0x6710, symSize: 0x10 }
  - { offset: 0x500BA, size: 0x8, addend: 0x0, symName: __ZNSt3__16__treeINS_12__value_typeI8llm_archPKcEENS_19__map_value_compareIS2_S5_NS_4lessIS2_EELb1EEENS_9allocatorIS5_EEE7destroyEPNS_11__tree_nodeIS5_PvEE, symObjAddr: 0xA90, symBinAddr: 0x7030, symSize: 0x40 }
  - { offset: 0x50268, size: 0x8, addend: 0x0, symName: __ZNSt3__13mapI6llm_kvPKcNS_4lessIS1_EENS_9allocatorINS_4pairIKS1_S3_EEEEED1B8ne180100Ev, symObjAddr: 0x10, symBinAddr: 0x6720, symSize: 0x10 }
  - { offset: 0x5031B, size: 0x8, addend: 0x0, symName: __ZNSt3__16__treeINS_12__value_typeI6llm_kvPKcEENS_19__map_value_compareIS2_S5_NS_4lessIS2_EELb1EEENS_9allocatorIS5_EEE7destroyEPNS_11__tree_nodeIS5_PvEE, symObjAddr: 0xC40, symBinAddr: 0x71E0, symSize: 0x40 }
  - { offset: 0x507B5, size: 0x8, addend: 0x0, symName: __ZNSt3__13mapI10llm_tensorPKcNS_4lessIS1_EENS_9allocatorINS_4pairIKS1_S3_EEEEEC2B8ne180100ESt16initializer_listIS9_ERKS5_, symObjAddr: 0xC80, symBinAddr: 0x7220, symSize: 0x170 }
  - { offset: 0x50D06, size: 0x8, addend: 0x0, symName: __ZNSt3__13mapI10llm_tensorPKcNS_4lessIS1_EENS_9allocatorINS_4pairIKS1_S3_EEEEE6insertB8ne180100INS_20__map_const_iteratorINS_21__tree_const_iteratorINS_12__value_typeIS1_S3_EEPNS_11__tree_nodeISG_PvEElEEEEEEvT_SN_, symObjAddr: 0x500, symBinAddr: 0x6C10, symSize: 0x110 }
  - { offset: 0x50D4E, size: 0x8, addend: 0x0, symName: __ZNSt3__13mapI10llm_tensorPKcNS_4lessIS1_EENS_9allocatorINS_4pairIKS1_S3_EEEEE6insertB8ne180100INS_20__map_const_iteratorINS_21__tree_const_iteratorINS_12__value_typeIS1_S3_EEPNS_11__tree_nodeISG_PvEElEEEEEEvT_SN_, symObjAddr: 0x500, symBinAddr: 0x6C10, symSize: 0x110 }
  - { offset: 0x51086, size: 0x8, addend: 0x0, symName: __ZNSt3__16__treeINS_12__value_typeI8llm_archNS_3mapI10llm_tensorPKcNS_4lessIS4_EENS_9allocatorINS_4pairIKS4_S6_EEEEEEEENS_19__map_value_compareIS2_SF_NS7_IS2_EELb1EEENS9_ISF_EEE30__emplace_hint_unique_key_argsIS2_JRKNSA_IKS2_SE_EEEEENSA_INS_15__tree_iteratorISF_PNS_11__tree_nodeISF_PvEElEEbEENS_21__tree_const_iteratorISF_SU_lEERKT_DpOT0_, symObjAddr: 0xDF0, symBinAddr: 0x7390, symSize: 0xE0 }
  - { offset: 0x5167E, size: 0x8, addend: 0x0, symName: __ZNSt3__16__treeINS_12__value_typeI10llm_tensorPKcEENS_19__map_value_compareIS2_S5_NS_4lessIS2_EELb1EEENS_9allocatorIS5_EEE7destroyEPNS_11__tree_nodeIS5_PvEE, symObjAddr: 0x8E0, symBinAddr: 0x6E80, symSize: 0x40 }
  - { offset: 0x517BA, size: 0x8, addend: 0x0, symName: __ZNSt3__16__treeINS_12__value_typeI8llm_archNS_3mapI10llm_tensorPKcNS_4lessIS4_EENS_9allocatorINS_4pairIKS4_S6_EEEEEEEENS_19__map_value_compareIS2_SF_NS7_IS2_EELb1EEENS9_ISF_EEE7destroyEPNS_11__tree_nodeISF_PvEE, symObjAddr: 0x1030, symBinAddr: 0x75D0, symSize: 0x40 }
  - { offset: 0x51A2C, size: 0x8, addend: 0x0, symName: __ZNSt3__13mapI8llm_archNS0_I10llm_tensorPKcNS_4lessIS2_EENS_9allocatorINS_4pairIKS2_S4_EEEEEENS5_IS1_EENS7_INS8_IKS1_SC_EEEEED1B8ne180100Ev, symObjAddr: 0x20, symBinAddr: 0x6730, symSize: 0x10 }
  - { offset: 0x51B51, size: 0x8, addend: 0x0, symName: __ZNSt3__13mapI10llm_tensor15llm_tensor_infoNS_4lessIS1_EENS_9allocatorINS_4pairIKS1_S2_EEEEED1B8ne180100Ev, symObjAddr: 0x30, symBinAddr: 0x6740, symSize: 0x10 }
  - { offset: 0x51C04, size: 0x8, addend: 0x0, symName: __ZNSt3__16__treeINS_12__value_typeI10llm_tensor15llm_tensor_infoEENS_19__map_value_compareIS2_S4_NS_4lessIS2_EELb1EEENS_9allocatorIS4_EEE7destroyEPNS_11__tree_nodeIS4_PvEE, symObjAddr: 0x11E0, symBinAddr: 0x7780, symSize: 0x40 }
  - { offset: 0x51D45, size: 0x8, addend: 0x0, symName: __ZN6LLM_KVC2E8llm_archPKc, symObjAddr: 0x40, symBinAddr: 0x6750, symSize: 0x10 }
  - { offset: 0x51DAD, size: 0x8, addend: 0x0, symName: __ZN6LLM_KVC1E8llm_archPKc, symObjAddr: 0x50, symBinAddr: 0x6760, symSize: 0x10 }
  - { offset: 0x5216E, size: 0x8, addend: 0x0, symName: __ZNK6LLM_KVclE6llm_kv, symObjAddr: 0x60, symBinAddr: 0x6770, symSize: 0xD0 }
  - { offset: 0x52995, size: 0x8, addend: 0x0, symName: __ZNK11LLM_TN_IMPL3strEv, symObjAddr: 0x130, symBinAddr: 0x6840, symSize: 0x1A0 }
  - { offset: 0x53345, size: 0x8, addend: 0x0, symName: __Z13llm_arch_name8llm_arch, symObjAddr: 0x2D0, symBinAddr: 0x69E0, symSize: 0x50 }
  - { offset: 0x535C1, size: 0x8, addend: 0x0, symName: __Z20llm_arch_from_stringRKNSt3__112basic_stringIcNS_11char_traitsIcEENS_9allocatorIcEEEE, symObjAddr: 0x320, symBinAddr: 0x6A30, symSize: 0x140 }
  - { offset: 0x53986, size: 0x8, addend: 0x0, symName: __Z19llm_tensor_info_for10llm_tensor, symObjAddr: 0x460, symBinAddr: 0x6B70, symSize: 0x50 }
  - { offset: 0x53A6C, size: 0x8, addend: 0x0, symName: __Z21llm_arch_is_recurrentRK8llm_arch, symObjAddr: 0x4B0, symBinAddr: 0x6BC0, symSize: 0x20 }
  - { offset: 0x53A9B, size: 0x8, addend: 0x0, symName: __Z18llm_arch_is_hybridRK8llm_arch, symObjAddr: 0x4D0, symBinAddr: 0x6BE0, symSize: 0x30 }
  - { offset: 0x53D76, size: 0x8, addend: 0x0, symName: __ZNSt3__16__treeINS_12__value_typeI10llm_tensorPKcEENS_19__map_value_compareIS2_S5_NS_4lessIS2_EELb1EEENS_9allocatorIS5_EEE12__find_equalIS2_EERPNS_16__tree_node_baseIPvEENS_21__tree_const_iteratorIS5_PNS_11__tree_nodeIS5_SF_EElEERPNS_15__tree_end_nodeISH_EESI_RKT_, symObjAddr: 0x610, symBinAddr: 0x6D20, symSize: 0x160 }
  - { offset: 0x545F0, size: 0x8, addend: 0x0, symName: __ZNSt3__13mapI8llm_archPKcNS_4lessIS1_EENS_9allocatorINS_4pairIKS1_S3_EEEEEC2B8ne180100ESt16initializer_listIS9_ERKS5_, symObjAddr: 0x920, symBinAddr: 0x6EC0, symSize: 0x170 }
  - { offset: 0x54FAD, size: 0x8, addend: 0x0, symName: __ZNSt3__13mapI6llm_kvPKcNS_4lessIS1_EENS_9allocatorINS_4pairIKS1_S3_EEEEEC2B8ne180100ESt16initializer_listIS9_ERKS5_, symObjAddr: 0xAD0, symBinAddr: 0x7070, symSize: 0x170 }
  - { offset: 0x55950, size: 0x8, addend: 0x0, symName: __ZNSt3__16__treeINS_12__value_typeI8llm_archNS_3mapI10llm_tensorPKcNS_4lessIS4_EENS_9allocatorINS_4pairIKS4_S6_EEEEEEEENS_19__map_value_compareIS2_SF_NS7_IS2_EELb1EEENS9_ISF_EEE12__find_equalIS2_EERPNS_16__tree_node_baseIPvEENS_21__tree_const_iteratorISF_PNS_11__tree_nodeISF_SN_EElEERPNS_15__tree_end_nodeISP_EESQ_RKT_, symObjAddr: 0xED0, symBinAddr: 0x7470, symSize: 0x160 }
  - { offset: 0x56222, size: 0x8, addend: 0x0, symName: __ZNSt3__13mapI10llm_tensor15llm_tensor_infoNS_4lessIS1_EENS_9allocatorINS_4pairIKS1_S2_EEEEEC2B8ne180100ESt16initializer_listIS8_ERKS4_, symObjAddr: 0x1070, symBinAddr: 0x7610, symSize: 0x170 }
  - { offset: 0x6EB59, size: 0x8, addend: 0x0, symName: __ZNSt3__124__put_character_sequenceB8ne180100IcNS_11char_traitsIcEEEERNS_13basic_ostreamIT_T0_EES7_PKS4_m, symObjAddr: 0x7850, symBinAddr: 0x12FD0, symSize: 0x150 }
  - { offset: 0x74829, size: 0x8, addend: 0x0, symName: __ZNSt3__116__pad_and_outputB8ne180100IcNS_11char_traitsIcEEEENS_19ostreambuf_iteratorIT_T0_EES6_PKS4_S8_S8_RNS_8ios_baseES4_, symObjAddr: 0x79A0, symBinAddr: 0x13120, symSize: 0x160 }
  - { offset: 0x75109, size: 0x8, addend: 0x0, symName: __ZNSt3__142__uninitialized_allocator_move_if_noexceptB8ne180100INS_9allocatorIN18llama_batch_allocr6ubatchEEENS_16reverse_iteratorIPS3_EES7_S7_EET2_RT_T0_T1_S8_, symObjAddr: 0x7D30, symBinAddr: 0x134B0, symSize: 0x1D0 }
  - { offset: 0x7A16E, size: 0x8, addend: 0x0, symName: __ZN18llama_batch_allocrC2Ej, symObjAddr: 0x0, symBinAddr: 0xB8D0, symSize: 0x370 }
  - { offset: 0x7B1A9, size: 0x8, addend: 0x0, symName: __ZNSt3__16vectorINS_3setIiNS_4lessIiEENS_9allocatorIiEEEENS4_IS6_EEE8__appendEm, symObjAddr: 0x5EA0, symBinAddr: 0x11760, symSize: 0x230 }
  - { offset: 0x7B916, size: 0x8, addend: 0x0, symName: __ZNSt3__16vectorINS0_IbNS_9allocatorIbEEEENS1_IS3_EEE8__appendEm, symObjAddr: 0x61A0, symBinAddr: 0x119A0, symSize: 0x220 }
  - { offset: 0x7BFB7, size: 0x8, addend: 0x0, symName: __ZNSt3__16vectorIbNS_9allocatorIbEEE6resizeEmb, symObjAddr: 0x370, symBinAddr: 0xBC40, symSize: 0x2A0 }
  - { offset: 0x7C886, size: 0x8, addend: 0x0, symName: __ZNSt3__16vectorIiNS_9allocatorIiEEE8__appendEmRKi, symObjAddr: 0x6500, symBinAddr: 0x11D00, symSize: 0x320 }
  - { offset: 0x7CE5A, size: 0x8, addend: 0x0, symName: __ZNSt3__16vectorIN18llama_batch_allocr6ubatchENS_9allocatorIS2_EEED1B8ne180100Ev, symObjAddr: 0x610, symBinAddr: 0xBEE0, symSize: 0x70 }
  - { offset: 0x7D00D, size: 0x8, addend: 0x0, symName: __ZNSt3__113unordered_mapINS_6bitsetILm64EEENS_6vectorIiNS_9allocatorIiEEEENS_4hashIS2_EENS_8equal_toIS2_EENS4_INS_4pairIKS2_S6_EEEEED1B8ne180100Ev, symObjAddr: 0x680, symBinAddr: 0xBF50, symSize: 0x70 }
  - { offset: 0x7D451, size: 0x8, addend: 0x0, symName: __ZNSt3__16vectorINS0_IbNS_9allocatorIbEEEENS1_IS3_EEED1B8ne180100Ev, symObjAddr: 0x6F0, symBinAddr: 0xBFC0, symSize: 0x70 }
  - { offset: 0x7D6AA, size: 0x8, addend: 0x0, symName: __ZNSt3__16vectorINS_3setIiNS_4lessIiEENS_9allocatorIiEEEENS4_IS6_EEED1B8ne180100Ev, symObjAddr: 0x760, symBinAddr: 0xC030, symSize: 0x70 }
  - { offset: 0x7DAC5, size: 0x8, addend: 0x0, symName: __ZNSt3__16vectorIbNS_9allocatorIbEEE7reserveEm, symObjAddr: 0x63D0, symBinAddr: 0x11BD0, symSize: 0x120 }
  - { offset: 0x7DEDA, size: 0x8, addend: 0x0, symName: __ZNKSt3__16vectorIbNS_9allocatorIbEEE20__throw_length_errorB8ne180100Ev, symObjAddr: 0x64F0, symBinAddr: 0x11CF0, symSize: 0x10 }
  - { offset: 0x7DF04, size: 0x8, addend: 0x0, symName: __ZNSt3__16vectorIiNS_9allocatorIiEEE8__appendEmRKi, symObjAddr: 0x6500, symBinAddr: 0x11D00, symSize: 0x320 }
  - { offset: 0x7E056, size: 0x8, addend: 0x0, symName: __ZN18llama_batch_allocr6ubatchD2Ev, symObjAddr: 0x5DE0, symBinAddr: 0x116A0, symSize: 0xC0 }
  - { offset: 0x7EE66, size: 0x8, addend: 0x0, symName: __ZNSt3__16__treeIiNS_4lessIiEENS_9allocatorIiEEE7destroyEPNS_11__tree_nodeIiPvEE, symObjAddr: 0x5DA0, symBinAddr: 0x11660, symSize: 0x40 }
  - { offset: 0x7EFA0, size: 0x8, addend: 0x0, symName: __ZN18llama_batch_allocrC1Ej, symObjAddr: 0x7D0, symBinAddr: 0xC0A0, symSize: 0x10 }
  - { offset: 0x80236, size: 0x8, addend: 0x0, symName: __ZN18llama_batch_allocr4initERK11llama_batchRK11llama_vocabPK14llama_memory_ijb, symObjAddr: 0x7E0, symBinAddr: 0xC0B0, symSize: 0x1B40 }
  - { offset: 0x832B5, size: 0x8, addend: 0x0, symName: __ZN18llama_batch_allocr5clearEv, symObjAddr: 0x2320, symBinAddr: 0xDBF0, symSize: 0x270 }
  - { offset: 0x83D42, size: 0x8, addend: 0x0, symName: __ZNSt3__16vectorIiNS_9allocatorIiEEE8__appendEm, symObjAddr: 0x6830, symBinAddr: 0x12030, symSize: 0x200 }
  - { offset: 0x842B9, size: 0x8, addend: 0x0, symName: __ZNSt3__16vectorIPiNS_9allocatorIS1_EEE8__appendEm, symObjAddr: 0x6A30, symBinAddr: 0x12230, symSize: 0x200 }
  - { offset: 0x84845, size: 0x8, addend: 0x0, symName: __ZNSt3__16vectorIaNS_9allocatorIaEEE8__appendEmRKa, symObjAddr: 0x6C40, symBinAddr: 0x12440, symSize: 0x440 }
  - { offset: 0x84E49, size: 0x8, addend: 0x0, symName: __ZN18llama_batch_allocr12ubatch_printERK12llama_ubatchi, symObjAddr: 0x2590, symBinAddr: 0xDE60, symSize: 0xCE0 }
  - { offset: 0x86431, size: 0x8, addend: 0x0, symName: __ZNSt3__118basic_stringstreamIcNS_11char_traitsIcEENS_9allocatorIcEEEC1B8ne180100Ev, symObjAddr: 0x3270, symBinAddr: 0xEB40, symSize: 0x130 }
  - { offset: 0x8654E, size: 0x8, addend: 0x0, symName: __ZNSt3__112__hash_tableINS_17__hash_value_typeINS_6bitsetILm64EEENS_6vectorIiNS_9allocatorIiEEEEEENS_22__unordered_map_hasherIS3_S8_NS_4hashIS3_EENS_8equal_toIS3_EELb1EEENS_21__unordered_map_equalIS3_S8_SD_SB_Lb1EEENS5_IS8_EEE25__emplace_unique_key_argsIS3_JRKNS_21piecewise_construct_tENS_5tupleIJRKS3_EEENSN_IJEEEEEENS_4pairINS_15__hash_iteratorIPNS_11__hash_nodeIS8_PvEEEEbEERKT_DpOT0_, symObjAddr: 0x7120, symBinAddr: 0x128A0, symSize: 0x4D0 }
  - { offset: 0x86DB2, size: 0x8, addend: 0x0, symName: __ZNKSt3__16vectorIiNS_9allocatorIiEEE20__throw_length_errorB8ne180100Ev, symObjAddr: 0x6820, symBinAddr: 0x12020, symSize: 0x10 }
  - { offset: 0x86DDC, size: 0x8, addend: 0x0, symName: __ZNSt3__16vectorIiNS_9allocatorIiEEE8__appendEm, symObjAddr: 0x6830, symBinAddr: 0x12030, symSize: 0x200 }
  - { offset: 0x86DE7, size: 0x8, addend: 0x0, symName: __ZNKSt3__16vectorINS_6bitsetILm64EEENS_9allocatorIS2_EEE20__throw_length_errorB8ne180100Ev, symObjAddr: 0x7110, symBinAddr: 0x12890, symSize: 0x10 }
  - { offset: 0x86E11, size: 0x8, addend: 0x0, symName: __ZNSt3__112__hash_tableINS_17__hash_value_typeINS_6bitsetILm64EEENS_6vectorIiNS_9allocatorIiEEEEEENS_22__unordered_map_hasherIS3_S8_NS_4hashIS3_EENS_8equal_toIS3_EELb1EEENS_21__unordered_map_equalIS3_S8_SD_SB_Lb1EEENS5_IS8_EEE25__emplace_unique_key_argsIS3_JRKNS_21piecewise_construct_tENS_5tupleIJRKS3_EEENSN_IJEEEEEENS_4pairINS_15__hash_iteratorIPNS_11__hash_nodeIS8_PvEEEEbEERKT_DpOT0_, symObjAddr: 0x7120, symBinAddr: 0x128A0, symSize: 0x4D0 }
  - { offset: 0x86E37, size: 0x8, addend: 0x0, symName: __ZNSt3__118basic_stringstreamIcNS_11char_traitsIcEENS_9allocatorIcEEED1Ev, symObjAddr: 0x3440, symBinAddr: 0xED10, symSize: 0x80 }
  - { offset: 0x87433, size: 0x8, addend: 0x0, symName: __ZNK18llama_batch_allocr11seq_pos_minEi, symObjAddr: 0x33A0, symBinAddr: 0xEC70, symSize: 0x30 }
  - { offset: 0x874D0, size: 0x8, addend: 0x0, symName: __ZNK18llama_batch_allocr11seq_pos_maxEi, symObjAddr: 0x33D0, symBinAddr: 0xECA0, symSize: 0x70 }
  - { offset: 0x875B7, size: 0x8, addend: 0x0, symName: __ZN18llama_batch_allocr11split_resetEv, symObjAddr: 0x34C0, symBinAddr: 0xED90, symSize: 0x90 }
  - { offset: 0x87E56, size: 0x8, addend: 0x0, symName: __ZN18llama_batch_allocr14ubatch_reserveEjj, symObjAddr: 0x3550, symBinAddr: 0xEE20, symSize: 0x760 }
  - { offset: 0x890AC, size: 0x8, addend: 0x0, symName: __ZNSt3__16vectorIN18llama_batch_allocr6ubatchENS_9allocatorIS2_EEE24__emplace_back_slow_pathIJEEEPS2_DpOT_, symObjAddr: 0x7B00, symBinAddr: 0x13280, symSize: 0x1D0 }
  - { offset: 0x89649, size: 0x8, addend: 0x0, symName: __ZNK18llama_batch_allocr9get_batchEv, symObjAddr: 0x3CB0, symBinAddr: 0xF580, symSize: 0x10 }
  - { offset: 0x89673, size: 0x8, addend: 0x0, symName: __ZNK18llama_batch_allocr12get_n_tokensEv, symObjAddr: 0x3CC0, symBinAddr: 0xF590, symSize: 0x10 }
  - { offset: 0x89693, size: 0x8, addend: 0x0, symName: __ZNK18llama_batch_allocr13get_n_outputsEv, symObjAddr: 0x3CD0, symBinAddr: 0xF5A0, symSize: 0x10 }
  - { offset: 0x896BB, size: 0x8, addend: 0x0, symName: __ZNK18llama_batch_allocr10get_n_usedEv, symObjAddr: 0x3CE0, symBinAddr: 0xF5B0, symSize: 0x10 }
  - { offset: 0x896E3, size: 0x8, addend: 0x0, symName: __ZN18llama_batch_allocr11get_out_idsEv, symObjAddr: 0x3CF0, symBinAddr: 0xF5C0, symSize: 0x10 }
  - { offset: 0x8970B, size: 0x8, addend: 0x0, symName: __ZN18llama_batch_allocr12split_simpleEj, symObjAddr: 0x3D00, symBinAddr: 0xF5D0, symSize: 0x3B0 }
  - { offset: 0x89FCF, size: 0x8, addend: 0x0, symName: __ZN18llama_batch_allocr10ubatch_addERKNSt3__16vectorIiNS0_9allocatorIiEEEEjb, symObjAddr: 0x40B0, symBinAddr: 0xF980, symSize: 0xC90 }
  - { offset: 0x8BA9E, size: 0x8, addend: 0x0, symName: __ZNSt3__16vectorIfNS_9allocatorIfEEE8__appendEm, symObjAddr: 0x8320, symBinAddr: 0x13AA0, symSize: 0x200 }
  - { offset: 0x8C36D, size: 0x8, addend: 0x0, symName: __ZN18llama_batch_allocr11split_equalEjb, symObjAddr: 0x4D40, symBinAddr: 0x10610, symSize: 0x9A0 }
  - { offset: 0x8DF22, size: 0x8, addend: 0x0, symName: __ZNSt3__16vectorINS0_IiNS_9allocatorIiEEEENS1_IS3_EEEC1Em, symObjAddr: 0x56E0, symBinAddr: 0x10FB0, symSize: 0xD0 }
  - { offset: 0x8E185, size: 0x8, addend: 0x0, symName: __ZNSt3__16vectorIiNS_9allocatorIiEEE18__insert_with_sizeB8ne180100INS_11__wrap_iterIPiEES7_EES7_NS5_IPKiEET_T0_l, symObjAddr: 0x7F10, symBinAddr: 0x13690, symSize: 0x410 }
  - { offset: 0x8EF26, size: 0x8, addend: 0x0, symName: __ZNSt3__16vectorINS0_IiNS_9allocatorIiEEEENS1_IS3_EEED1B8ne180100Ev, symObjAddr: 0x57B0, symBinAddr: 0x11080, symSize: 0x70 }
  - { offset: 0x8F36F, size: 0x8, addend: 0x0, symName: __ZNKSt3__16vectorINS0_IiNS_9allocatorIiEEEENS1_IS3_EEE20__throw_length_errorB8ne180100Ev, symObjAddr: 0x7F00, symBinAddr: 0x13680, symSize: 0x10 }
  - { offset: 0x8F399, size: 0x8, addend: 0x0, symName: __ZNSt3__16vectorIiNS_9allocatorIiEEE18__insert_with_sizeB8ne180100INS_11__wrap_iterIPiEES7_EES7_NS5_IPKiEET_T0_l, symObjAddr: 0x7F10, symBinAddr: 0x13690, symSize: 0x410 }
  - { offset: 0x8F3A4, size: 0x8, addend: 0x0, symName: __ZNSt3__16vectorINS0_IiNS_9allocatorIiEEEENS1_IS3_EEEC1Em.cold.1, symObjAddr: 0x8530, symBinAddr: 0x2244F0, symSize: 0x4F }
  - { offset: 0x8F64E, size: 0x8, addend: 0x0, symName: __ZN18llama_batch_allocr9split_seqEj, symObjAddr: 0x5820, symBinAddr: 0x110F0, symSize: 0x3C0 }
  - { offset: 0x90090, size: 0x8, addend: 0x0, symName: _llama_batch_get_one, symObjAddr: 0x5BE0, symBinAddr: 0x114B0, symSize: 0x30 }
  - { offset: 0x900CA, size: 0x8, addend: 0x0, symName: _llama_batch_init, symObjAddr: 0x5C10, symBinAddr: 0x114E0, symSize: 0xE0 }
  - { offset: 0x901E8, size: 0x8, addend: 0x0, symName: _llama_batch_free, symObjAddr: 0x5CF0, symBinAddr: 0x115C0, symSize: 0xA0 }
  - { offset: 0x9095B, size: 0x8, addend: 0x0, symName: __ZNKSt3__16vectorINS_3setIiNS_4lessIiEENS_9allocatorIiEEEENS4_IS6_EEE20__throw_length_errorB8ne180100Ev, symObjAddr: 0x60D0, symBinAddr: 0x11990, symSize: 0x10 }
  - { offset: 0x90E0D, size: 0x8, addend: 0x0, symName: __ZNKSt3__16vectorINS0_IbNS_9allocatorIbEEEENS1_IS3_EEE20__throw_length_errorB8ne180100Ev, symObjAddr: 0x63C0, symBinAddr: 0x11BC0, symSize: 0x10 }
  - { offset: 0x90E37, size: 0x8, addend: 0x0, symName: __ZNSt3__16vectorIbNS_9allocatorIbEEE7reserveEm, symObjAddr: 0x63D0, symBinAddr: 0x11BD0, symSize: 0x120 }
  - { offset: 0x914D6, size: 0x8, addend: 0x0, symName: __ZNKSt3__16vectorIPiNS_9allocatorIS1_EEE20__throw_length_errorB8ne180100Ev, symObjAddr: 0x6C30, symBinAddr: 0x12430, symSize: 0x10 }
  - { offset: 0x91500, size: 0x8, addend: 0x0, symName: __ZNSt3__16vectorIaNS_9allocatorIaEEE8__appendEmRKa, symObjAddr: 0x6C40, symBinAddr: 0x12440, symSize: 0x440 }
  - { offset: 0x9161C, size: 0x8, addend: 0x0, symName: __ZNKSt3__16vectorIaNS_9allocatorIaEEE20__throw_length_errorB8ne180100Ev, symObjAddr: 0x7080, symBinAddr: 0x12880, symSize: 0x10 }
  - { offset: 0x91CB7, size: 0x8, addend: 0x0, symName: __ZNSt3__112__hash_tableINS_17__hash_value_typeINS_6bitsetILm64EEENS_6vectorIiNS_9allocatorIiEEEEEENS_22__unordered_map_hasherIS3_S8_NS_4hashIS3_EENS_8equal_toIS3_EELb1EEENS_21__unordered_map_equalIS3_S8_SD_SB_Lb1EEENS5_IS8_EEE11__do_rehashILb1EEEvm, symObjAddr: 0x7640, symBinAddr: 0x12DC0, symSize: 0x210 }
  - { offset: 0x92133, size: 0x8, addend: 0x0, symName: __ZNSt3__110unique_ptrINS_11__hash_nodeINS_17__hash_value_typeINS_6bitsetILm64EEENS_6vectorIiNS_9allocatorIiEEEEEEPvEENS_22__hash_node_destructorINS6_ISB_EEEEED1B8ne180100Ev, symObjAddr: 0x75F0, symBinAddr: 0x12D70, symSize: 0x50 }
  - { offset: 0x92C85, size: 0x8, addend: 0x0, symName: __ZNKSt3__16vectorIN18llama_batch_allocr6ubatchENS_9allocatorIS2_EEE20__throw_length_errorB8ne180100Ev, symObjAddr: 0x7D20, symBinAddr: 0x134A0, symSize: 0x10 }
  - { offset: 0x92CAF, size: 0x8, addend: 0x0, symName: __ZNSt3__142__uninitialized_allocator_move_if_noexceptB8ne180100INS_9allocatorIN18llama_batch_allocr6ubatchEEENS_16reverse_iteratorIPS3_EES7_S7_EET2_RT_T0_T1_S8_, symObjAddr: 0x7D30, symBinAddr: 0x134B0, symSize: 0x1D0 }
  - { offset: 0x92CBA, size: 0x8, addend: 0x0, symName: __ZNSt3__114__split_bufferIN18llama_batch_allocr6ubatchERNS_9allocatorIS2_EEED1Ev, symObjAddr: 0x7CD0, symBinAddr: 0x13450, symSize: 0x50 }
  - { offset: 0x93742, size: 0x8, addend: 0x0, symName: __ZNKSt3__16vectorIfNS_9allocatorIfEEE20__throw_length_errorB8ne180100Ev, symObjAddr: 0x8520, symBinAddr: 0x13CA0, symSize: 0x10 }
  - { offset: 0x9376C, size: 0x8, addend: 0x0, symName: __ZNSt3__16vectorINS0_IiNS_9allocatorIiEEEENS1_IS3_EEEC1Em.cold.1, symObjAddr: 0x8530, symBinAddr: 0x2244F0, symSize: 0x4F }
  - { offset: 0x95637, size: 0x8, addend: 0x0, symName: __ZL18LLM_CHAT_TEMPLATES, symObjAddr: 0x89F10, symBinAddr: 0x2F3C70, symSize: 0x0 }
  - { offset: 0x9DCEA, size: 0x8, addend: 0x0, symName: __ZNSt3__1eqB8ne180100IcNS_11char_traitsIcEENS_9allocatorIcEEEEbRKNS_12basic_stringIT_T0_T1_EEPKS6_, symObjAddr: 0x4920, symBinAddr: 0x18400, symSize: 0x70 }
  - { offset: 0x9DEC5, size: 0x8, addend: 0x0, symName: __ZNSt3__1lsB8ne180100IcNS_11char_traitsIcEENS_9allocatorIcEEEERNS_13basic_ostreamIT_T0_EES9_RKNS_12basic_stringIS6_S7_T1_EE, symObjAddr: 0x4990, symBinAddr: 0x18470, symSize: 0x30 }
  - { offset: 0x9FF40, size: 0x8, addend: 0x0, symName: __ZNSt3__13mapINS_12basic_stringIcNS_11char_traitsIcEENS_9allocatorIcEEEE17llm_chat_templateNS_4lessIS6_EENS4_INS_4pairIKS6_S7_EEEEED1B8ne180100Ev, symObjAddr: 0x0, symBinAddr: 0x13CB0, symSize: 0x10 }
  - { offset: 0x9FFF3, size: 0x8, addend: 0x0, symName: __ZNSt3__16__treeINS_12__value_typeINS_12basic_stringIcNS_11char_traitsIcEENS_9allocatorIcEEEE17llm_chat_templateEENS_19__map_value_compareIS7_S9_NS_4lessIS7_EELb1EEENS5_IS9_EEE7destroyEPNS_11__tree_nodeIS9_PvEE, symObjAddr: 0x5440, symBinAddr: 0x18C10, symSize: 0x50 }
  - { offset: 0xA02BA, size: 0x8, addend: 0x0, symName: __Z26llm_chat_template_from_strRKNSt3__112basic_stringIcNS_11char_traitsIcEENS_9allocatorIcEEEE, symObjAddr: 0x10, symBinAddr: 0x13CC0, symSize: 0x20 }
  - { offset: 0xA02ED, size: 0x8, addend: 0x0, symName: __ZNKSt3__13mapINS_12basic_stringIcNS_11char_traitsIcEENS_9allocatorIcEEEE17llm_chat_templateNS_4lessIS6_EENS4_INS_4pairIKS6_S7_EEEEE2atERSB_, symObjAddr: 0x30, symBinAddr: 0x13CE0, symSize: 0x110 }
  - { offset: 0xA0871, size: 0x8, addend: 0x0, symName: __Z24llm_chat_detect_templateRKNSt3__112basic_stringIcNS_11char_traitsIcEENS_9allocatorIcEEEE, symObjAddr: 0x140, symBinAddr: 0x13DF0, symSize: 0x600 }
  - { offset: 0xA0DCF, size: 0x8, addend: 0x0, symName: '__ZZ24llm_chat_detect_templateRKNSt3__112basic_stringIcNS_11char_traitsIcEENS_9allocatorIcEEEEENK3$_0clEPKc', symObjAddr: 0x740, symBinAddr: 0x143F0, symSize: 0xE0 }
  - { offset: 0xA1091, size: 0x8, addend: 0x0, symName: __ZNKSt3__112basic_stringIcNS_11char_traitsIcEENS_9allocatorIcEEE4findB8ne180100EPKcm, symObjAddr: 0x820, symBinAddr: 0x144D0, symSize: 0xE0 }
  - { offset: 0xA1BC2, size: 0x8, addend: 0x0, symName: __Z23llm_chat_apply_template17llm_chat_templateRKNSt3__16vectorIPK18llama_chat_messageNS0_9allocatorIS4_EEEERNS0_12basic_stringIcNS0_11char_traitsIcEENS5_IcEEEEb, symObjAddr: 0x900, symBinAddr: 0x145B0, symSize: 0x3E50 }
  - { offset: 0xB1415, size: 0x8, addend: 0x0, symName: __ZL4trimRKNSt3__112basic_stringIcNS_11char_traitsIcEENS_9allocatorIcEEEE, symObjAddr: 0x49C0, symBinAddr: 0x184A0, symSize: 0x1C0 }
  - { offset: 0xB244C, size: 0x8, addend: 0x0, symName: _llama_chat_builtin_templates, symObjAddr: 0x4C00, symBinAddr: 0x18660, symSize: 0xA0 }
  - { offset: 0xB2947, size: 0x8, addend: 0x0, symName: __ZNSt3__16__treeINS_12__value_typeINS_12basic_stringIcNS_11char_traitsIcEENS_9allocatorIcEEEE17llm_chat_templateEENS_19__map_value_compareIS7_S9_NS_4lessIS7_EELb1EEENS5_IS9_EEE30__emplace_hint_unique_key_argsIS7_JRKNS_4pairIKS7_S8_EEEEENSH_INS_15__tree_iteratorIS9_PNS_11__tree_nodeIS9_PvEElEEbEENS_21__tree_const_iteratorIS9_SQ_lEERKT_DpOT0_, symObjAddr: 0x4DD0, symBinAddr: 0x18700, symSize: 0xE0 }
  - { offset: 0xB2DA4, size: 0x8, addend: 0x0, symName: __ZNSt3__16__treeINS_12__value_typeINS_12basic_stringIcNS_11char_traitsIcEENS_9allocatorIcEEEE17llm_chat_templateEENS_19__map_value_compareIS7_S9_NS_4lessIS7_EELb1EEENS5_IS9_EEE12__find_equalIS7_EERPNS_16__tree_node_baseIPvEENS_21__tree_const_iteratorIS9_PNS_11__tree_nodeIS9_SI_EElEERPNS_15__tree_end_nodeISK_EESL_RKT_, symObjAddr: 0x4EB0, symBinAddr: 0x187E0, symSize: 0x430 }
  - { offset: 0xE182B, size: 0x8, addend: 0x0, symName: __ZNK13llama_context12graph_get_cbEv, symObjAddr: 0x66B0, symBinAddr: 0x1FE30, symSize: 0x20 }
  - { offset: 0xE3FA1, size: 0x8, addend: 0x0, symName: __ZN13llama_contextC2ERK11llama_model20llama_context_params, symObjAddr: 0x0, symBinAddr: 0x197F0, symSize: 0x1B10 }
  - { offset: 0xE7C88, size: 0x8, addend: 0x0, symName: __ZNSt3__16vectorINS_10unique_ptrI12ggml_backend20ggml_backend_deleterEENS_9allocatorIS4_EEE24__emplace_back_slow_pathIJRPS2_EEEPS4_DpOT_, symObjAddr: 0xB190, symBinAddr: 0x24810, symSize: 0x220 }
  - { offset: 0xE8358, size: 0x8, addend: 0x0, symName: __ZN13llama_context14output_reserveEi, symObjAddr: 0x1BC0, symBinAddr: 0x1B3B0, symSize: 0x230 }
  - { offset: 0xE8815, size: 0x8, addend: 0x0, symName: __ZN13llama_context13graph_reserveEjjjPK22llama_memory_context_i, symObjAddr: 0x1E10, symBinAddr: 0x1B600, symSize: 0x3A0 }
  - { offset: 0xE906E, size: 0x8, addend: 0x0, symName: __ZNKSt3__16vectorINS_4pairIP12ggml_backendPFvS3_iEEENS_9allocatorIS6_EEE20__throw_length_errorB8ne180100Ev, symObjAddr: 0xB480, symBinAddr: 0x24A40, symSize: 0x10 }
  - { offset: 0xE90BB, size: 0x8, addend: 0x0, symName: __ZNKSt3__16vectorIP12ggml_backendNS_9allocatorIS2_EEE20__throw_length_errorB8ne180100Ev, symObjAddr: 0xB4A0, symBinAddr: 0x24A50, symSize: 0x10 }
  - { offset: 0xE90C6, size: 0x8, addend: 0x0, symName: __ZNKSt3__16vectorIP12ggml_backendNS_9allocatorIS2_EEE20__throw_length_errorB8ne180100Ev, symObjAddr: 0xB4A0, symBinAddr: 0x24A50, symSize: 0x10 }
  - { offset: 0xE9113, size: 0x8, addend: 0x0, symName: __ZNSt3__112__hash_tableINS_17__hash_value_typeIP18llama_adapter_lorafEENS_22__unordered_map_hasherIS3_S4_NS_4hashIS3_EENS_8equal_toIS3_EELb1EEENS_21__unordered_map_equalIS3_S4_S9_S7_Lb1EEENS_9allocatorIS4_EEE25__emplace_unique_key_argsIS3_JRKNS_21piecewise_construct_tENS_5tupleIJRKS3_EEENSK_IJEEEEEENS_4pairINS_15__hash_iteratorIPNS_11__hash_nodeIS4_PvEEEEbEERKT_DpOT0_, symObjAddr: 0xB4C0, symBinAddr: 0x24A60, symSize: 0x460 }
  - { offset: 0xE91D6, size: 0x8, addend: 0x0, symName: __ZNSt3__16vectorINS_10unique_ptrI12ggml_backend20ggml_backend_deleterEENS_9allocatorIS4_EEED1B8ne180100Ev, symObjAddr: 0x2210, symBinAddr: 0x1B9A0, symSize: 0x80 }
  - { offset: 0xE9392, size: 0x8, addend: 0x0, symName: __ZNSt3__110unique_ptrI18ggml_backend_sched26ggml_backend_sched_deleterED1B8ne180100Ev, symObjAddr: 0x2290, symBinAddr: 0x1BA20, symSize: 0x30 }
  - { offset: 0xE941F, size: 0x8, addend: 0x0, symName: __ZNSt3__110unique_ptrI18llama_batch_allocrNS_14default_deleteIS1_EEED1B8ne180100Ev, symObjAddr: 0x22C0, symBinAddr: 0x1BA50, symSize: 0x40 }
  - { offset: 0xE94DC, size: 0x8, addend: 0x0, symName: __ZNSt3__16__treeINS_12__value_typeIiNS_6vectorIfNS_9allocatorIfEEEEEENS_19__map_value_compareIiS6_NS_4lessIiEELb1EEENS3_IS6_EEE7destroyEPNS_11__tree_nodeIS6_PvEE, symObjAddr: 0xB140, symBinAddr: 0x247C0, symSize: 0x50 }
  - { offset: 0xE97BE, size: 0x8, addend: 0x0, symName: __ZN11llama_crossD1Ev, symObjAddr: 0x2300, symBinAddr: 0x1BA90, symSize: 0x80 }
  - { offset: 0xE9AF8, size: 0x8, addend: 0x0, symName: __ZNSt3__113unordered_mapIP18llama_adapter_lorafNS_4hashIS2_EENS_8equal_toIS2_EENS_9allocatorINS_4pairIKS2_fEEEEED1B8ne180100Ev, symObjAddr: 0x2380, symBinAddr: 0x1BB10, symSize: 0x50 }
  - { offset: 0xE9DBE, size: 0x8, addend: 0x0, symName: __ZN18llama_adapter_cvecD2Ev, symObjAddr: 0xA4B0, symBinAddr: 0x23BF0, symSize: 0xF0 }
  - { offset: 0xEA275, size: 0x8, addend: 0x0, symName: _llama_set_abort_callback, symObjAddr: 0x1B10, symBinAddr: 0x1B300, symSize: 0xB0 }
  - { offset: 0xEA8CC, size: 0x8, addend: 0x0, symName: __ZNK13llama_context15graph_max_nodesEv, symObjAddr: 0x1DF0, symBinAddr: 0x1B5E0, symSize: 0x20 }
  - { offset: 0xEAE9E, size: 0x8, addend: 0x0, symName: __ZN18llama_batch_allocrD2Ev, symObjAddr: 0xA5A0, symBinAddr: 0x23CE0, symSize: 0x230 }
  - { offset: 0xECAEB, size: 0x8, addend: 0x0, symName: __ZN13llama_contextC1ERK11llama_model20llama_context_params, symObjAddr: 0x23D0, symBinAddr: 0x1BB60, symSize: 0x10 }
  - { offset: 0xECBEF, size: 0x8, addend: 0x0, symName: __ZN13llama_contextD2Ev, symObjAddr: 0x23E0, symBinAddr: 0x1BB70, symSize: 0x270 }
  - { offset: 0xEDDD1, size: 0x8, addend: 0x0, symName: __ZN13llama_contextD1Ev, symObjAddr: 0x2660, symBinAddr: 0x1BDE0, symSize: 0x10 }
  - { offset: 0xEDE07, size: 0x8, addend: 0x0, symName: __ZN13llama_context11synchronizeEv, symObjAddr: 0x2670, symBinAddr: 0x1BDF0, symSize: 0xC0 }
  - { offset: 0xEDE9C, size: 0x8, addend: 0x0, symName: __ZNK13llama_context9get_modelEv, symObjAddr: 0x2730, symBinAddr: 0x1BEB0, symSize: 0x10 }
  - { offset: 0xEDEBC, size: 0x8, addend: 0x0, symName: __ZNK13llama_context11get_cparamsEv, symObjAddr: 0x2740, symBinAddr: 0x1BEC0, symSize: 0x10 }
  - { offset: 0xEDEE4, size: 0x8, addend: 0x0, symName: __ZNK13llama_context9get_schedEv, symObjAddr: 0x2750, symBinAddr: 0x1BED0, symSize: 0x10 }
  - { offset: 0xEDF2C, size: 0x8, addend: 0x0, symName: __ZNK13llama_context15get_ctx_computeEv, symObjAddr: 0x2760, symBinAddr: 0x1BEE0, symSize: 0x10 }
  - { offset: 0xEDF74, size: 0x8, addend: 0x0, symName: __ZNK13llama_context5n_ctxEv, symObjAddr: 0x2770, symBinAddr: 0x1BEF0, symSize: 0x10 }
  - { offset: 0xEDF94, size: 0x8, addend: 0x0, symName: __ZNK13llama_context13n_ctx_per_seqEv, symObjAddr: 0x2780, symBinAddr: 0x1BF00, symSize: 0x10 }
  - { offset: 0xEDFBC, size: 0x8, addend: 0x0, symName: __ZNK13llama_context7n_batchEv, symObjAddr: 0x2790, symBinAddr: 0x1BF10, symSize: 0x10 }
  - { offset: 0xEDFDC, size: 0x8, addend: 0x0, symName: __ZNK13llama_context8n_ubatchEv, symObjAddr: 0x27A0, symBinAddr: 0x1BF20, symSize: 0x10 }
  - { offset: 0xEDFFC, size: 0x8, addend: 0x0, symName: __ZNK13llama_context9n_seq_maxEv, symObjAddr: 0x27B0, symBinAddr: 0x1BF30, symSize: 0x10 }
  - { offset: 0xEE01C, size: 0x8, addend: 0x0, symName: __ZNK13llama_context9n_threadsEv, symObjAddr: 0x27C0, symBinAddr: 0x1BF40, symSize: 0x10 }
  - { offset: 0xEE03C, size: 0x8, addend: 0x0, symName: __ZNK13llama_context15n_threads_batchEv, symObjAddr: 0x27D0, symBinAddr: 0x1BF50, symSize: 0x10 }
  - { offset: 0xEE072, size: 0x8, addend: 0x0, symName: __ZNK13llama_context10get_memoryEv, symObjAddr: 0x27E0, symBinAddr: 0x1BF60, symSize: 0x10 }
  - { offset: 0xEE0B2, size: 0x8, addend: 0x0, symName: __ZN13llama_context20kv_self_defrag_schedEv, symObjAddr: 0x27F0, symBinAddr: 0x1BF70, symSize: 0x20 }
  - { offset: 0xEE108, size: 0x8, addend: 0x0, symName: __ZN13llama_context14kv_self_updateEb, symObjAddr: 0x2810, symBinAddr: 0x1BF90, symSize: 0x1A0 }
  - { offset: 0xEE4DE, size: 0x8, addend: 0x0, symName: __ZNK13llama_context12pooling_typeEv, symObjAddr: 0x29B0, symBinAddr: 0x1C130, symSize: 0x10 }
  - { offset: 0xEE4FE, size: 0x8, addend: 0x0, symName: __ZN13llama_context10get_logitsEv, symObjAddr: 0x29C0, symBinAddr: 0x1C140, symSize: 0x10 }
  - { offset: 0xEE534, size: 0x8, addend: 0x0, symName: __ZN13llama_context14get_logits_ithEi, symObjAddr: 0x29D0, symBinAddr: 0x1C150, symSize: 0x280 }
  - { offset: 0xEE6E4, size: 0x8, addend: 0x0, symName: __ZN13llama_context14get_embeddingsEv, symObjAddr: 0x2C50, symBinAddr: 0x1C3D0, symSize: 0x10 }
  - { offset: 0xEE704, size: 0x8, addend: 0x0, symName: __ZN13llama_context18get_embeddings_ithEi, symObjAddr: 0x2C60, symBinAddr: 0x1C3E0, symSize: 0x270 }
  - { offset: 0xEEA03, size: 0x8, addend: 0x0, symName: __ZN13llama_context18get_embeddings_seqEi, symObjAddr: 0x2ED0, symBinAddr: 0x1C650, symSize: 0x50 }
  - { offset: 0xEEB91, size: 0x8, addend: 0x0, symName: __ZN13llama_context17attach_threadpoolEP15ggml_threadpoolS1_, symObjAddr: 0x2F20, symBinAddr: 0x1C6A0, symSize: 0x50 }
  - { offset: 0xEEBD8, size: 0x8, addend: 0x0, symName: __ZN13llama_context17detach_threadpoolEv, symObjAddr: 0x2F70, symBinAddr: 0x1C6F0, symSize: 0x40 }
  - { offset: 0xEEC0D, size: 0x8, addend: 0x0, symName: __ZN13llama_context13set_n_threadsEii, symObjAddr: 0x2FB0, symBinAddr: 0x1C730, symSize: 0x50 }
  - { offset: 0xEEC60, size: 0x8, addend: 0x0, symName: __ZN13llama_context18set_abort_callbackEPFbPvES0_, symObjAddr: 0x3000, symBinAddr: 0x1C780, symSize: 0xB0 }
  - { offset: 0xEEDF1, size: 0x8, addend: 0x0, symName: __ZN13llama_context14set_embeddingsEb, symObjAddr: 0x30B0, symBinAddr: 0x1C830, symSize: 0x40 }
  - { offset: 0xEEE35, size: 0x8, addend: 0x0, symName: __ZN13llama_context15set_causal_attnEb, symObjAddr: 0x30F0, symBinAddr: 0x1C870, symSize: 0x40 }
  - { offset: 0xEEE79, size: 0x8, addend: 0x0, symName: __ZN13llama_context10set_warmupEb, symObjAddr: 0x3130, symBinAddr: 0x1C8B0, symSize: 0x40 }
  - { offset: 0xEEEE1, size: 0x8, addend: 0x0, symName: __ZN13llama_context16set_adapter_loraEP18llama_adapter_loraf, symObjAddr: 0x3170, symBinAddr: 0x1C8F0, symSize: 0x70 }
  - { offset: 0xEEF8A, size: 0x8, addend: 0x0, symName: __ZNSt3__112__hash_tableINS_17__hash_value_typeIP18llama_adapter_lorafEENS_22__unordered_map_hasherIS3_S4_NS_4hashIS3_EENS_8equal_toIS3_EELb1EEENS_21__unordered_map_equalIS3_S4_S9_S7_Lb1EEENS_9allocatorIS4_EEE25__emplace_unique_key_argsIS3_JRKNS_21piecewise_construct_tENS_5tupleIJRKS3_EEENSK_IJEEEEEENS_4pairINS_15__hash_iteratorIPNS_11__hash_nodeIS4_PvEEEEbEERKT_DpOT0_, symObjAddr: 0xB4C0, symBinAddr: 0x24A60, symSize: 0x460 }
  - { offset: 0xEF922, size: 0x8, addend: 0x0, symName: __ZN13llama_context15rm_adapter_loraEP18llama_adapter_lora, symObjAddr: 0x31E0, symBinAddr: 0x1C960, symSize: 0x80 }
  - { offset: 0xEFB96, size: 0x8, addend: 0x0, symName: __ZNSt3__112__hash_tableINS_17__hash_value_typeIP18llama_adapter_lorafEENS_22__unordered_map_hasherIS3_S4_NS_4hashIS3_EENS_8equal_toIS3_EELb1EEENS_21__unordered_map_equalIS3_S4_S9_S7_Lb1EEENS_9allocatorIS4_EEE4findIS3_EENS_15__hash_iteratorIPNS_11__hash_nodeIS4_PvEEEERKT_, symObjAddr: 0xBB30, symBinAddr: 0x250D0, symSize: 0x180 }
  - { offset: 0xEFD0F, size: 0x8, addend: 0x0, symName: __ZNSt3__112__hash_tableINS_17__hash_value_typeIP18llama_adapter_lorafEENS_22__unordered_map_hasherIS3_S4_NS_4hashIS3_EENS_8equal_toIS3_EELb1EEENS_21__unordered_map_equalIS3_S4_S9_S7_Lb1EEENS_9allocatorIS4_EEE6removeENS_21__hash_const_iteratorIPNS_11__hash_nodeIS4_PvEEEE, symObjAddr: 0xBCB0, symBinAddr: 0x25250, symSize: 0x1F0 }
  - { offset: 0xF0062, size: 0x8, addend: 0x0, symName: __ZN13llama_context18clear_adapter_loraEv, symObjAddr: 0x3260, symBinAddr: 0x1C9E0, symSize: 0x100 }
  - { offset: 0xF0299, size: 0x8, addend: 0x0, symName: __ZN13llama_context18apply_adapter_cvecEPKfmiii, symObjAddr: 0x3360, symBinAddr: 0x1CAE0, symSize: 0x80 }
  - { offset: 0xF0548, size: 0x8, addend: 0x0, symName: __ZN13llama_context14process_ubatchERK12llama_ubatch14llm_graph_typeP22llama_memory_context_iR11ggml_status, symObjAddr: 0x33E0, symBinAddr: 0x1CB60, symSize: 0x3B0 }
  - { offset: 0xF0D2C, size: 0x8, addend: 0x0, symName: __ZN13llama_context13graph_computeEP11ggml_cgraphb, symObjAddr: 0x3970, symBinAddr: 0x1D0F0, symSize: 0xD0 }
  - { offset: 0xF0F41, size: 0x8, addend: 0x0, symName: __ZN13llama_context10graph_initEv, symObjAddr: 0x3790, symBinAddr: 0x1CF10, symSize: 0xA0 }
  - { offset: 0xF103A, size: 0x8, addend: 0x0, symName: __ZN13llama_context11graph_buildEP12ggml_contextP11ggml_cgraphRK12llama_ubatch14llm_graph_typePK22llama_memory_context_i, symObjAddr: 0x3830, symBinAddr: 0x1CFB0, symSize: 0x140 }
  - { offset: 0xF1C05, size: 0x8, addend: 0x0, symName: __ZN13llama_context6encodeERK11llama_batch, symObjAddr: 0x3A40, symBinAddr: 0x1D1C0, symSize: 0xC10 }
  - { offset: 0xF4417, size: 0x8, addend: 0x0, symName: __ZN13llama_context6decodeERK11llama_batch, symObjAddr: 0x4650, symBinAddr: 0x1DDD0, symSize: 0x2060 }
  - { offset: 0xF7550, size: 0x8, addend: 0x0, symName: __ZN13llama_context14state_get_sizeEv, symObjAddr: 0x66D0, symBinAddr: 0x1FE50, symSize: 0x90 }
  - { offset: 0xF7613, size: 0x8, addend: 0x0, symName: __ZN13llama_context16state_write_dataER16llama_io_write_i, symObjAddr: 0x6760, symBinAddr: 0x1FEE0, symSize: 0x340 }
  - { offset: 0xF8421, size: 0x8, addend: 0x0, symName: __ZN20llama_io_write_dummyD1Ev, symObjAddr: 0x6AA0, symBinAddr: 0x20220, symSize: 0x10 }
  - { offset: 0xF8598, size: 0x8, addend: 0x0, symName: __ZN13llama_context14state_get_dataEPhm, symObjAddr: 0x6AB0, symBinAddr: 0x20230, symSize: 0xA0 }
  - { offset: 0xF8699, size: 0x8, addend: 0x0, symName: __ZN21llama_io_write_bufferD1Ev, symObjAddr: 0x6B50, symBinAddr: 0x202D0, symSize: 0x10 }
  - { offset: 0xF880A, size: 0x8, addend: 0x0, symName: __ZN13llama_context14state_set_dataEPKhm, symObjAddr: 0x6B60, symBinAddr: 0x202E0, symSize: 0xA0 }
  - { offset: 0xF890B, size: 0x8, addend: 0x0, symName: __ZN13llama_context15state_read_dataER15llama_io_read_i, symObjAddr: 0x6C00, symBinAddr: 0x20380, symSize: 0x5A0 }
  - { offset: 0xF9E46, size: 0x8, addend: 0x0, symName: __ZN20llama_io_read_bufferD1Ev, symObjAddr: 0x71A0, symBinAddr: 0x20920, symSize: 0x10 }
  - { offset: 0xF9EA3, size: 0x8, addend: 0x0, symName: __ZN13llama_context18state_seq_get_sizeEi, symObjAddr: 0x71B0, symBinAddr: 0x20930, symSize: 0xB0 }
  - { offset: 0xF9FC9, size: 0x8, addend: 0x0, symName: __ZN13llama_context20state_seq_write_dataER16llama_io_write_ii, symObjAddr: 0x7260, symBinAddr: 0x209E0, symSize: 0x30 }
  - { offset: 0xFA03B, size: 0x8, addend: 0x0, symName: __ZN13llama_context18state_seq_get_dataEiPhm, symObjAddr: 0x7290, symBinAddr: 0x20A10, symSize: 0xB0 }
  - { offset: 0xFA1D0, size: 0x8, addend: 0x0, symName: __ZN13llama_context18state_seq_set_dataEiPKhm, symObjAddr: 0x7340, symBinAddr: 0x20AC0, symSize: 0xB0 }
  - { offset: 0xFA334, size: 0x8, addend: 0x0, symName: __ZN13llama_context19state_seq_read_dataER15llama_io_read_ii, symObjAddr: 0x73F0, symBinAddr: 0x20B70, symSize: 0x30 }
  - { offset: 0xFA64B, size: 0x8, addend: 0x0, symName: __ZN13llama_context15state_load_fileEPKcPimPm, symObjAddr: 0x7420, symBinAddr: 0x20BA0, symSize: 0x1B0 }
  - { offset: 0xFAB06, size: 0x8, addend: 0x0, symName: __ZN18llama_io_read_fileD1Ev, symObjAddr: 0x75D0, symBinAddr: 0x20D50, symSize: 0x30 }
  - { offset: 0xFADCD, size: 0x8, addend: 0x0, symName: __ZN13llama_context15state_save_fileEPKcPKim, symObjAddr: 0x7600, symBinAddr: 0x20D80, symSize: 0x100 }
  - { offset: 0xFB18E, size: 0x8, addend: 0x0, symName: __ZN19llama_io_write_fileD1Ev, symObjAddr: 0x7700, symBinAddr: 0x20E80, symSize: 0x30 }
  - { offset: 0xFB2ED, size: 0x8, addend: 0x0, symName: __ZN13llama_context19state_seq_load_fileEiPKcPimPm, symObjAddr: 0x7730, symBinAddr: 0x20EB0, symSize: 0x250 }
  - { offset: 0xFB82F, size: 0x8, addend: 0x0, symName: __ZN13llama_context19state_seq_save_fileEiPKcPKim, symObjAddr: 0x7980, symBinAddr: 0x21100, symSize: 0x170 }
  - { offset: 0xFBCD6, size: 0x8, addend: 0x0, symName: __ZN19llama_io_write_file7n_bytesEv, symObjAddr: 0x7AF0, symBinAddr: 0x21270, symSize: 0x10 }
  - { offset: 0xFBCF6, size: 0x8, addend: 0x0, symName: __ZNK13llama_context13perf_get_dataEv, symObjAddr: 0x7B00, symBinAddr: 0x21280, symSize: 0x80 }
  - { offset: 0xFBD5F, size: 0x8, addend: 0x0, symName: __ZN13llama_context10perf_resetEv, symObjAddr: 0x7B80, symBinAddr: 0x21300, symSize: 0x40 }
  - { offset: 0xFBE49, size: 0x8, addend: 0x0, symName: __ZN13llama_context8opt_initEP11llama_model16llama_opt_params, symObjAddr: 0x7BC0, symBinAddr: 0x21340, symSize: 0x650 }
  - { offset: 0xFC8CF, size: 0x8, addend: 0x0, symName: __ZN13llama_context14opt_epoch_iterEP16ggml_opt_datasetP15ggml_opt_resultRKNSt3__16vectorIiNS4_9allocatorIiEEEESA_R11llama_batchPFvbP16ggml_opt_contextS1_S3_xxxEbxxx, symObjAddr: 0x8210, symBinAddr: 0x21990, symSize: 0x870 }
  - { offset: 0xFD9E7, size: 0x8, addend: 0x0, symName: __ZN13llama_context9opt_epochEP16ggml_opt_datasetP15ggml_opt_resultS3_xPFvbP16ggml_opt_contextS1_S3_xxxES7_, symObjAddr: 0x8A80, symBinAddr: 0x22200, symSize: 0x390 }
  - { offset: 0xFE69E, size: 0x8, addend: 0x0, symName: _llama_context_default_params, symObjAddr: 0x8E10, symBinAddr: 0x22590, symSize: 0x60 }
  - { offset: 0xFE6FD, size: 0x8, addend: 0x0, symName: _llama_init_from_model, symObjAddr: 0x8E70, symBinAddr: 0x225F0, symSize: 0x1A0 }
  - { offset: 0xFE80F, size: 0x8, addend: 0x0, symName: _llama_new_context_with_model, symObjAddr: 0x9010, symBinAddr: 0x22790, symSize: 0x10 }
  - { offset: 0xFE87D, size: 0x8, addend: 0x0, symName: _llama_free, symObjAddr: 0x9020, symBinAddr: 0x227A0, symSize: 0x30 }
  - { offset: 0xFE8D1, size: 0x8, addend: 0x0, symName: _llama_n_ctx, symObjAddr: 0x9050, symBinAddr: 0x227D0, symSize: 0x10 }
  - { offset: 0xFE919, size: 0x8, addend: 0x0, symName: _llama_n_batch, symObjAddr: 0x9060, symBinAddr: 0x227E0, symSize: 0x10 }
  - { offset: 0xFE961, size: 0x8, addend: 0x0, symName: _llama_n_ubatch, symObjAddr: 0x9070, symBinAddr: 0x227F0, symSize: 0x10 }
  - { offset: 0xFE9A9, size: 0x8, addend: 0x0, symName: _llama_n_seq_max, symObjAddr: 0x9080, symBinAddr: 0x22800, symSize: 0x10 }
  - { offset: 0xFEA0A, size: 0x8, addend: 0x0, symName: _llama_get_model, symObjAddr: 0x9090, symBinAddr: 0x22810, symSize: 0x10 }
  - { offset: 0xFEA6B, size: 0x8, addend: 0x0, symName: _llama_get_kv_self, symObjAddr: 0x90A0, symBinAddr: 0x22820, symSize: 0x30 }
  - { offset: 0xFEAD5, size: 0x8, addend: 0x0, symName: _llama_kv_self_update, symObjAddr: 0x90D0, symBinAddr: 0x22850, symSize: 0x10 }
  - { offset: 0xFEB30, size: 0x8, addend: 0x0, symName: _llama_pooling_type, symObjAddr: 0x90E0, symBinAddr: 0x22860, symSize: 0x10 }
  - { offset: 0xFEBA9, size: 0x8, addend: 0x0, symName: _llama_attach_threadpool, symObjAddr: 0x90F0, symBinAddr: 0x22870, symSize: 0x50 }
  - { offset: 0xFEC4D, size: 0x8, addend: 0x0, symName: _llama_detach_threadpool, symObjAddr: 0x9140, symBinAddr: 0x228C0, symSize: 0x40 }
  - { offset: 0xFECD7, size: 0x8, addend: 0x0, symName: _llama_set_n_threads, symObjAddr: 0x9180, symBinAddr: 0x22900, symSize: 0x50 }
  - { offset: 0xFED85, size: 0x8, addend: 0x0, symName: _llama_n_threads, symObjAddr: 0x91D0, symBinAddr: 0x22950, symSize: 0x10 }
  - { offset: 0xFEDE6, size: 0x8, addend: 0x0, symName: _llama_n_threads_batch, symObjAddr: 0x91E0, symBinAddr: 0x22960, symSize: 0x10 }
  - { offset: 0xFEE53, size: 0x8, addend: 0x0, symName: _llama_set_embeddings, symObjAddr: 0x91F0, symBinAddr: 0x22970, symSize: 0x40 }
  - { offset: 0xFEEEF, size: 0x8, addend: 0x0, symName: _llama_set_causal_attn, symObjAddr: 0x9230, symBinAddr: 0x229B0, symSize: 0x40 }
  - { offset: 0xFEF8B, size: 0x8, addend: 0x0, symName: _llama_set_warmup, symObjAddr: 0x9270, symBinAddr: 0x229F0, symSize: 0x40 }
  - { offset: 0xFF002, size: 0x8, addend: 0x0, symName: _llama_synchronize, symObjAddr: 0x92B0, symBinAddr: 0x22A30, symSize: 0x10 }
  - { offset: 0xFF058, size: 0x8, addend: 0x0, symName: _llama_get_logits, symObjAddr: 0x92C0, symBinAddr: 0x22A40, symSize: 0x20 }
  - { offset: 0xFF0B7, size: 0x8, addend: 0x0, symName: _llama_get_logits_ith, symObjAddr: 0x92E0, symBinAddr: 0x22A60, symSize: 0x20 }
  - { offset: 0xFF131, size: 0x8, addend: 0x0, symName: _llama_get_embeddings, symObjAddr: 0x9300, symBinAddr: 0x22A80, symSize: 0x20 }
  - { offset: 0xFF190, size: 0x8, addend: 0x0, symName: _llama_get_embeddings_ith, symObjAddr: 0x9320, symBinAddr: 0x22AA0, symSize: 0x20 }
  - { offset: 0xFF222, size: 0x8, addend: 0x0, symName: _llama_get_embeddings_seq, symObjAddr: 0x9340, symBinAddr: 0x22AC0, symSize: 0x70 }
  - { offset: 0xFF422, size: 0x8, addend: 0x0, symName: _llama_set_adapter_lora, symObjAddr: 0x93B0, symBinAddr: 0x22B30, symSize: 0x70 }
  - { offset: 0xFF539, size: 0x8, addend: 0x0, symName: _llama_rm_adapter_lora, symObjAddr: 0x9420, symBinAddr: 0x22BA0, symSize: 0x90 }
  - { offset: 0xFF824, size: 0x8, addend: 0x0, symName: _llama_clear_adapter_lora, symObjAddr: 0x94B0, symBinAddr: 0x22C30, symSize: 0x100 }
  - { offset: 0xFFAD4, size: 0x8, addend: 0x0, symName: _llama_apply_adapter_cvec, symObjAddr: 0x95B0, symBinAddr: 0x22D30, symSize: 0x80 }
  - { offset: 0xFFBCA, size: 0x8, addend: 0x0, symName: _llama_get_memory, symObjAddr: 0x9630, symBinAddr: 0x22DB0, symSize: 0x10 }
  - { offset: 0xFFC22, size: 0x8, addend: 0x0, symName: _llama_memory_clear, symObjAddr: 0x9640, symBinAddr: 0x22DC0, symSize: 0x20 }
  - { offset: 0xFFC52, size: 0x8, addend: 0x0, symName: _llama_memory_seq_rm, symObjAddr: 0x9660, symBinAddr: 0x22DE0, symSize: 0x20 }
  - { offset: 0xFFC8E, size: 0x8, addend: 0x0, symName: _llama_memory_seq_cp, symObjAddr: 0x9680, symBinAddr: 0x22E00, symSize: 0x20 }
  - { offset: 0xFFCD1, size: 0x8, addend: 0x0, symName: _llama_memory_seq_keep, symObjAddr: 0x96A0, symBinAddr: 0x22E20, symSize: 0x20 }
  - { offset: 0xFFCFF, size: 0x8, addend: 0x0, symName: _llama_memory_seq_add, symObjAddr: 0x96C0, symBinAddr: 0x22E40, symSize: 0x20 }
  - { offset: 0xFFD42, size: 0x8, addend: 0x0, symName: _llama_memory_seq_div, symObjAddr: 0x96E0, symBinAddr: 0x22E60, symSize: 0x20 }
  - { offset: 0xFFD85, size: 0x8, addend: 0x0, symName: _llama_memory_seq_pos_min, symObjAddr: 0x9700, symBinAddr: 0x22E80, symSize: 0x20 }
  - { offset: 0xFFDB3, size: 0x8, addend: 0x0, symName: _llama_memory_seq_pos_max, symObjAddr: 0x9720, symBinAddr: 0x22EA0, symSize: 0x20 }
  - { offset: 0xFFDE1, size: 0x8, addend: 0x0, symName: _llama_memory_can_shift, symObjAddr: 0x9740, symBinAddr: 0x22EC0, symSize: 0x20 }
  - { offset: 0xFFE24, size: 0x8, addend: 0x0, symName: _llama_kv_self_n_tokens, symObjAddr: 0x9760, symBinAddr: 0x22EE0, symSize: 0x80 }
  - { offset: 0xFFF50, size: 0x8, addend: 0x0, symName: _llama_kv_self_used_cells, symObjAddr: 0x97E0, symBinAddr: 0x22F60, symSize: 0x80 }
  - { offset: 0x10009F, size: 0x8, addend: 0x0, symName: _llama_kv_self_clear, symObjAddr: 0x9860, symBinAddr: 0x22FE0, symSize: 0x30 }
  - { offset: 0x1001A9, size: 0x8, addend: 0x0, symName: _llama_kv_self_seq_rm, symObjAddr: 0x9890, symBinAddr: 0x23010, symSize: 0x20 }
  - { offset: 0x1002F3, size: 0x8, addend: 0x0, symName: _llama_kv_self_seq_cp, symObjAddr: 0x98B0, symBinAddr: 0x23030, symSize: 0x20 }
  - { offset: 0x10042B, size: 0x8, addend: 0x0, symName: _llama_kv_self_seq_keep, symObjAddr: 0x98D0, symBinAddr: 0x23050, symSize: 0x20 }
  - { offset: 0x100545, size: 0x8, addend: 0x0, symName: _llama_kv_self_seq_add, symObjAddr: 0x98F0, symBinAddr: 0x23070, symSize: 0x20 }
  - { offset: 0x1006A1, size: 0x8, addend: 0x0, symName: _llama_kv_self_seq_div, symObjAddr: 0x9910, symBinAddr: 0x23090, symSize: 0x20 }
  - { offset: 0x1007DD, size: 0x8, addend: 0x0, symName: _llama_kv_self_seq_pos_min, symObjAddr: 0x9930, symBinAddr: 0x230B0, symSize: 0x30 }
  - { offset: 0x1008DB, size: 0x8, addend: 0x0, symName: _llama_kv_self_seq_pos_max, symObjAddr: 0x9960, symBinAddr: 0x230E0, symSize: 0x30 }
  - { offset: 0x1009CB, size: 0x8, addend: 0x0, symName: _llama_kv_self_defrag, symObjAddr: 0x9990, symBinAddr: 0x23110, symSize: 0x20 }
  - { offset: 0x100A4A, size: 0x8, addend: 0x0, symName: _llama_kv_self_can_shift, symObjAddr: 0x99B0, symBinAddr: 0x23130, symSize: 0x20 }
  - { offset: 0x100B26, size: 0x8, addend: 0x0, symName: _llama_get_state_size, symObjAddr: 0x99D0, symBinAddr: 0x23150, symSize: 0x10 }
  - { offset: 0x100B83, size: 0x8, addend: 0x0, symName: _llama_state_get_size, symObjAddr: 0x99E0, symBinAddr: 0x23160, symSize: 0x10 }
  - { offset: 0x100BE8, size: 0x8, addend: 0x0, symName: _llama_copy_state_data, symObjAddr: 0x99F0, symBinAddr: 0x23170, symSize: 0x30 }
  - { offset: 0x100C87, size: 0x8, addend: 0x0, symName: _llama_state_get_data, symObjAddr: 0x9A20, symBinAddr: 0x231A0, symSize: 0x30 }
  - { offset: 0x100D0D, size: 0x8, addend: 0x0, symName: _llama_set_state_data, symObjAddr: 0x9A50, symBinAddr: 0x231D0, symSize: 0x30 }
  - { offset: 0x100DAC, size: 0x8, addend: 0x0, symName: _llama_state_set_data, symObjAddr: 0x9A80, symBinAddr: 0x23200, symSize: 0x30 }
  - { offset: 0x100DFF, size: 0x8, addend: 0x0, symName: _llama_load_session_file, symObjAddr: 0x9AB0, symBinAddr: 0x23230, symSize: 0x10 }
  - { offset: 0x100E98, size: 0x8, addend: 0x0, symName: _llama_state_load_file, symObjAddr: 0x9AC0, symBinAddr: 0x23240, symSize: 0x150 }
  - { offset: 0x100FF3, size: 0x8, addend: 0x0, symName: _llama_save_session_file, symObjAddr: 0x9C10, symBinAddr: 0x23390, symSize: 0x10 }
  - { offset: 0x101076, size: 0x8, addend: 0x0, symName: _llama_state_save_file, symObjAddr: 0x9C20, symBinAddr: 0x233A0, symSize: 0x200 }
  - { offset: 0x101586, size: 0x8, addend: 0x0, symName: _llama_state_seq_get_size, symObjAddr: 0x9E20, symBinAddr: 0x235A0, symSize: 0x10 }
  - { offset: 0x1015DD, size: 0x8, addend: 0x0, symName: _llama_state_seq_get_data, symObjAddr: 0x9E30, symBinAddr: 0x235B0, symSize: 0x40 }
  - { offset: 0x101660, size: 0x8, addend: 0x0, symName: _llama_state_seq_set_data, symObjAddr: 0x9E70, symBinAddr: 0x235F0, symSize: 0x40 }
  - { offset: 0x1016E3, size: 0x8, addend: 0x0, symName: _llama_state_seq_save_file, symObjAddr: 0x9EB0, symBinAddr: 0x23630, symSize: 0x150 }
  - { offset: 0x101825, size: 0x8, addend: 0x0, symName: _llama_state_seq_load_file, symObjAddr: 0xA000, symBinAddr: 0x23780, symSize: 0x150 }
  - { offset: 0x101980, size: 0x8, addend: 0x0, symName: _llama_encode, symObjAddr: 0xA150, symBinAddr: 0x238D0, symSize: 0x40 }
  - { offset: 0x101A02, size: 0x8, addend: 0x0, symName: _llama_decode, symObjAddr: 0xA190, symBinAddr: 0x23910, symSize: 0x40 }
  - { offset: 0x101AA8, size: 0x8, addend: 0x0, symName: _llama_perf_context, symObjAddr: 0xA1D0, symBinAddr: 0x23950, symSize: 0x90 }
  - { offset: 0x101B52, size: 0x8, addend: 0x0, symName: _llama_perf_context_print, symObjAddr: 0xA260, symBinAddr: 0x239E0, symSize: 0x1A0 }
  - { offset: 0x101D4F, size: 0x8, addend: 0x0, symName: _llama_perf_context_reset, symObjAddr: 0xA400, symBinAddr: 0x23B80, symSize: 0x40 }
  - { offset: 0x101DA3, size: 0x8, addend: 0x0, symName: _llama_opt_param_filter_all, symObjAddr: 0xA440, symBinAddr: 0x23BC0, symSize: 0x10 }
  - { offset: 0x101DDD, size: 0x8, addend: 0x0, symName: _llama_opt_init, symObjAddr: 0xA450, symBinAddr: 0x23BD0, symSize: 0x10 }
  - { offset: 0x101E40, size: 0x8, addend: 0x0, symName: _llama_opt_epoch, symObjAddr: 0xA460, symBinAddr: 0x23BE0, symSize: 0x10 }
  - { offset: 0x1030EF, size: 0x8, addend: 0x0, symName: __ZN20llama_io_write_dummyD0Ev, symObjAddr: 0xA890, symBinAddr: 0x23F10, symSize: 0x10 }
  - { offset: 0x10311B, size: 0x8, addend: 0x0, symName: __ZN20llama_io_write_dummy5writeEPKvm, symObjAddr: 0xA8A0, symBinAddr: 0x23F20, symSize: 0x10 }
  - { offset: 0x10315A, size: 0x8, addend: 0x0, symName: __ZN20llama_io_write_dummy12write_tensorEPK11ggml_tensormm, symObjAddr: 0xA8B0, symBinAddr: 0x23F30, symSize: 0x10 }
  - { offset: 0x1031A4, size: 0x8, addend: 0x0, symName: __ZN20llama_io_write_dummy7n_bytesEv, symObjAddr: 0xA8C0, symBinAddr: 0x23F40, symSize: 0x10 }
  - { offset: 0x1031C9, size: 0x8, addend: 0x0, symName: __ZN21llama_io_write_bufferD0Ev, symObjAddr: 0xA8D0, symBinAddr: 0x23F50, symSize: 0x10 }
  - { offset: 0x1031F5, size: 0x8, addend: 0x0, symName: __ZN21llama_io_write_buffer5writeEPKvm, symObjAddr: 0xA8E0, symBinAddr: 0x23F60, symSize: 0x80 }
  - { offset: 0x10323E, size: 0x8, addend: 0x0, symName: __ZN21llama_io_write_buffer12write_tensorEPK11ggml_tensormm, symObjAddr: 0xA960, symBinAddr: 0x23FE0, symSize: 0x80 }
  - { offset: 0x1032C2, size: 0x8, addend: 0x0, symName: __ZN21llama_io_write_buffer7n_bytesEv, symObjAddr: 0xA9E0, symBinAddr: 0x24060, symSize: 0x10 }
  - { offset: 0x1032E7, size: 0x8, addend: 0x0, symName: __ZN20llama_io_read_bufferD0Ev, symObjAddr: 0xA9F0, symBinAddr: 0x24070, symSize: 0x10 }
  - { offset: 0x103313, size: 0x8, addend: 0x0, symName: __ZN20llama_io_read_buffer4readEm, symObjAddr: 0xAA00, symBinAddr: 0x24080, symSize: 0x70 }
  - { offset: 0x10335C, size: 0x8, addend: 0x0, symName: __ZN20llama_io_read_buffer7read_toEPvm, symObjAddr: 0xAA70, symBinAddr: 0x240F0, symSize: 0x30 }
  - { offset: 0x1033C0, size: 0x8, addend: 0x0, symName: __ZN20llama_io_read_buffer7n_bytesEv, symObjAddr: 0xAAA0, symBinAddr: 0x24120, symSize: 0x10 }
  - { offset: 0x1033E5, size: 0x8, addend: 0x0, symName: __ZN18llama_io_read_fileD0Ev, symObjAddr: 0xAAB0, symBinAddr: 0x24130, symSize: 0x40 }
  - { offset: 0x10358D, size: 0x8, addend: 0x0, symName: __ZN18llama_io_read_file4readEm, symObjAddr: 0xAAF0, symBinAddr: 0x24170, symSize: 0x2A0 }
  - { offset: 0x103BB9, size: 0x8, addend: 0x0, symName: __ZN18llama_io_read_file7read_toEPvm, symObjAddr: 0xAD90, symBinAddr: 0x24410, symSize: 0x20 }
  - { offset: 0x103C02, size: 0x8, addend: 0x0, symName: __ZN18llama_io_read_file7n_bytesEv, symObjAddr: 0xADB0, symBinAddr: 0x24430, symSize: 0x10 }
  - { offset: 0x103C27, size: 0x8, addend: 0x0, symName: __ZN19llama_io_write_fileD0Ev, symObjAddr: 0xADC0, symBinAddr: 0x24440, symSize: 0x40 }
  - { offset: 0x103DB9, size: 0x8, addend: 0x0, symName: __ZN19llama_io_write_file5writeEPKvm, symObjAddr: 0xAE00, symBinAddr: 0x24480, symSize: 0x20 }
  - { offset: 0x103E02, size: 0x8, addend: 0x0, symName: __ZN19llama_io_write_file12write_tensorEPK11ggml_tensormm, symObjAddr: 0xAE20, symBinAddr: 0x244A0, symSize: 0x320 }
  - { offset: 0x10490A, size: 0x8, addend: 0x0, symName: __ZNKSt3__16vectorINS_10unique_ptrI12ggml_backend20ggml_backend_deleterEENS_9allocatorIS4_EEE20__throw_length_errorB8ne180100Ev, symObjAddr: 0xB3B0, symBinAddr: 0x24A30, symSize: 0x10 }
  - { offset: 0x104F66, size: 0x8, addend: 0x0, symName: __ZNSt3__112__hash_tableINS_17__hash_value_typeIP18llama_adapter_lorafEENS_22__unordered_map_hasherIS3_S4_NS_4hashIS3_EENS_8equal_toIS3_EELb1EEENS_21__unordered_map_equalIS3_S4_S9_S7_Lb1EEENS_9allocatorIS4_EEE11__do_rehashILb1EEEvm, symObjAddr: 0xB920, symBinAddr: 0x24EC0, symSize: 0x210 }
  - { offset: 0x105DAF, size: 0x8, addend: 0x0, symName: '__ZNSt3__110__function6__funcIZNK13llama_context12graph_get_cbEvE3$_0NS_9allocatorIS3_EEFvRK12llama_ubatchP11ggml_tensorPKciEED1Ev', symObjAddr: 0xC660, symBinAddr: 0x25440, symSize: 0x10 }
  - { offset: 0x105DBA, size: 0x8, addend: 0x0, symName: '__ZNSt3__110__function6__funcIZNK13llama_context12graph_get_cbEvE3$_0NS_9allocatorIS3_EEFvRK12llama_ubatchP11ggml_tensorPKciEED1Ev', symObjAddr: 0xC660, symBinAddr: 0x25440, symSize: 0x10 }
  - { offset: 0x105DE3, size: 0x8, addend: 0x0, symName: '__ZNSt3__110__function6__funcIZNK13llama_context12graph_get_cbEvE3$_0NS_9allocatorIS3_EEFvRK12llama_ubatchP11ggml_tensorPKciEED0Ev', symObjAddr: 0xC670, symBinAddr: 0x25450, symSize: 0x10 }
  - { offset: 0x105FE6, size: 0x8, addend: 0x0, symName: '__ZNKSt3__110__function6__funcIZNK13llama_context12graph_get_cbEvE3$_0NS_9allocatorIS3_EEFvRK12llama_ubatchP11ggml_tensorPKciEE7__cloneEv', symObjAddr: 0xC680, symBinAddr: 0x25460, symSize: 0x30 }
  - { offset: 0x1062CC, size: 0x8, addend: 0x0, symName: '__ZNKSt3__110__function6__funcIZNK13llama_context12graph_get_cbEvE3$_0NS_9allocatorIS3_EEFvRK12llama_ubatchP11ggml_tensorPKciEE7__cloneEPNS0_6__baseISD_EE', symObjAddr: 0xC6B0, symBinAddr: 0x25490, symSize: 0x20 }
  - { offset: 0x1063D3, size: 0x8, addend: 0x0, symName: '__ZNSt3__110__function6__funcIZNK13llama_context12graph_get_cbEvE3$_0NS_9allocatorIS3_EEFvRK12llama_ubatchP11ggml_tensorPKciEE7destroyEv', symObjAddr: 0xC6D0, symBinAddr: 0x254B0, symSize: 0x10 }
  - { offset: 0x106424, size: 0x8, addend: 0x0, symName: '__ZNSt3__110__function6__funcIZNK13llama_context12graph_get_cbEvE3$_0NS_9allocatorIS3_EEFvRK12llama_ubatchP11ggml_tensorPKciEE18destroy_deallocateEv', symObjAddr: 0xC6E0, symBinAddr: 0x254C0, symSize: 0x10 }
  - { offset: 0x10668E, size: 0x8, addend: 0x0, symName: '__ZNSt3__110__function6__funcIZNK13llama_context12graph_get_cbEvE3$_0NS_9allocatorIS3_EEFvRK12llama_ubatchP11ggml_tensorPKciEEclES8_OSA_OSC_Oi', symObjAddr: 0xC6F0, symBinAddr: 0x254D0, symSize: 0x140 }
  - { offset: 0x1069EA, size: 0x8, addend: 0x0, symName: '__ZNKSt3__110__function6__funcIZNK13llama_context12graph_get_cbEvE3$_0NS_9allocatorIS3_EEFvRK12llama_ubatchP11ggml_tensorPKciEE6targetERKSt9type_info', symObjAddr: 0xC830, symBinAddr: 0x25610, symSize: 0x20 }
  - { offset: 0x106A5C, size: 0x8, addend: 0x0, symName: '__ZNKSt3__110__function6__funcIZNK13llama_context12graph_get_cbEvE3$_0NS_9allocatorIS3_EEFvRK12llama_ubatchP11ggml_tensorPKciEE11target_typeEv', symObjAddr: 0xC850, symBinAddr: 0x25630, symSize: 0x10 }
  - { offset: 0x108ABF, size: 0x8, addend: 0x0, symName: _llama_max_parallel_sequences, symObjAddr: 0x0, symBinAddr: 0x25640, symSize: 0xB }
  - { offset: 0x108ACD, size: 0x8, addend: 0x0, symName: _llama_max_parallel_sequences, symObjAddr: 0x0, symBinAddr: 0x25640, symSize: 0xB }
  - { offset: 0x108C23, size: 0x8, addend: 0x0, symName: __ZN20llama_grammar_parser13get_symbol_idEPKcm, symObjAddr: 0x0, symBinAddr: 0x25650, symSize: 0xF0 }
  - { offset: 0x108C5C, size: 0x8, addend: 0x0, symName: __ZL11decode_utf8RKNSt3__112basic_stringIcNS_11char_traitsIcEENS_9allocatorIcEEEE18llama_partial_utf8, symObjAddr: 0x9210, symBinAddr: 0x2E7C0, symSize: 0xB80 }
  - { offset: 0x108C86, size: 0x8, addend: 0x0, symName: __ZZL11decode_utf8RKNSt3__112basic_stringIcNS_11char_traitsIcEENS_9allocatorIcEEEE18llama_partial_utf8E6lookup, symObjAddr: 0x1A8E0, symBinAddr: 0x225E70, symSize: 0x0 }
  - { offset: 0x10AB3D, size: 0x8, addend: 0x0, symName: __ZNSt3__119piecewise_constructE, symObjAddr: 0x1A920, symBinAddr: 0x225EB0, symSize: 0x0 }
  - { offset: 0x132DF8, size: 0x8, addend: 0x0, symName: __ZNSt3__1plB8ne180100IcNS_11char_traitsIcEENS_9allocatorIcEEEENS_12basic_stringIT_T0_T1_EEOS9_SA_, symObjAddr: 0x300, symBinAddr: 0x25950, symSize: 0x60 }
  - { offset: 0x1378E0, size: 0x8, addend: 0x0, symName: __ZNSt3__119__throw_regex_errorB8ne180100ILNS_15regex_constants10error_typeE17EEEvv, symObjAddr: 0xC3D0, symBinAddr: 0x316B0, symSize: 0x50 }
  - { offset: 0x13865A, size: 0x8, addend: 0x0, symName: __ZNSt3__119__throw_regex_errorB8ne180100ILNS_15regex_constants10error_typeE14EEEvv, symObjAddr: 0xCD30, symBinAddr: 0x32010, symSize: 0x50 }
  - { offset: 0x1389F7, size: 0x8, addend: 0x0, symName: __ZNSt3__119__throw_regex_errorB8ne180100ILNS_15regex_constants10error_typeE15EEEvv, symObjAddr: 0x15100, symBinAddr: 0x3A3D0, symSize: 0x50 }
  - { offset: 0x138D04, size: 0x8, addend: 0x0, symName: __ZNSt3__119__throw_regex_errorB8ne180100ILNS_15regex_constants10error_typeE6EEEvv, symObjAddr: 0xD930, symBinAddr: 0x32C10, symSize: 0x50 }
  - { offset: 0x138EB3, size: 0x8, addend: 0x0, symName: __ZNSt3__119__throw_regex_errorB8ne180100ILNS_15regex_constants10error_typeE11EEEvv, symObjAddr: 0xF180, symBinAddr: 0x34460, symSize: 0x50 }
  - { offset: 0x138EF7, size: 0x8, addend: 0x0, symName: __ZNSt3__119__throw_regex_errorB8ne180100ILNS_15regex_constants10error_typeE8EEEvv, symObjAddr: 0x14B10, symBinAddr: 0x39DE0, symSize: 0x50 }
  - { offset: 0x138F1D, size: 0x8, addend: 0x0, symName: __ZNSt3__119__throw_regex_errorB8ne180100ILNS_15regex_constants10error_typeE7EEEvv, symObjAddr: 0x14B60, symBinAddr: 0x39E30, symSize: 0x50 }
  - { offset: 0x13904C, size: 0x8, addend: 0x0, symName: __ZNSt3__119__throw_regex_errorB8ne180100ILNS_15regex_constants10error_typeE12EEEvv, symObjAddr: 0xE6E0, symBinAddr: 0x339C0, symSize: 0x50 }
  - { offset: 0x139072, size: 0x8, addend: 0x0, symName: __ZNSt3__119__throw_regex_errorB8ne180100ILNS_15regex_constants10error_typeE16EEEvv, symObjAddr: 0xE730, symBinAddr: 0x33A10, symSize: 0x50 }
  - { offset: 0x139B4C, size: 0x8, addend: 0x0, symName: __ZNSt3__119__throw_regex_errorB8ne180100ILNS_15regex_constants10error_typeE4EEEvv, symObjAddr: 0xFC70, symBinAddr: 0x34F50, symSize: 0x50 }
  - { offset: 0x139B72, size: 0x8, addend: 0x0, symName: __ZNSt3__119__throw_regex_errorB8ne180100ILNS_15regex_constants10error_typeE3EEEvv, symObjAddr: 0xF3F0, symBinAddr: 0x346D0, symSize: 0x50 }
  - { offset: 0x139B98, size: 0x8, addend: 0x0, symName: __ZNSt3__119__throw_regex_errorB8ne180100ILNS_15regex_constants10error_typeE5EEEvv, symObjAddr: 0x11FA0, symBinAddr: 0x37270, symSize: 0x50 }
  - { offset: 0x13A9BE, size: 0x8, addend: 0x0, symName: __ZNSt3__119__throw_regex_errorB8ne180100ILNS_15regex_constants10error_typeE1EEEvv, symObjAddr: 0x136B0, symBinAddr: 0x38980, symSize: 0x50 }
  - { offset: 0x13A9E4, size: 0x8, addend: 0x0, symName: __ZNSt3__119__throw_regex_errorB8ne180100ILNS_15regex_constants10error_typeE2EEEvv, symObjAddr: 0x13D10, symBinAddr: 0x38FE0, symSize: 0x50 }
  - { offset: 0x13AA46, size: 0x8, addend: 0x0, symName: __ZNSt3__119__throw_regex_errorB8ne180100ILNS_15regex_constants10error_typeE9EEEvv, symObjAddr: 0x14630, symBinAddr: 0x39900, symSize: 0x50 }
  - { offset: 0x13B7A6, size: 0x8, addend: 0x0, symName: __ZNSt3__135__uninitialized_allocator_copy_implB8ne180100INS_9allocatorINS_6vectorI21llama_grammar_elementNS1_IS3_EEEEEEPS5_S7_S7_EET2_RT_T0_T1_S8_, symObjAddr: 0x15E90, symBinAddr: 0x3B0D0, symSize: 0x110 }
  - { offset: 0x13BED0, size: 0x8, addend: 0x0, symName: __ZNSt3__135__uninitialized_allocator_copy_implB8ne180100INS_9allocatorINS_6vectorIPK21llama_grammar_elementNS1_IS5_EEEEEEPS7_S9_S9_EET2_RT_T0_T1_SA_, symObjAddr: 0x160C0, symBinAddr: 0x3B300, symSize: 0x110 }
  - { offset: 0x13C4D7, size: 0x8, addend: 0x0, symName: __ZNSt3__130__uninitialized_allocator_copyB8ne180100INS_9allocatorI29llama_grammar_trigger_patternEEPS2_S4_S4_EET2_RT_T0_T1_S5_, symObjAddr: 0x162F0, symBinAddr: 0x3B530, symSize: 0x100 }
  - { offset: 0x141E2A, size: 0x8, addend: 0x0, symName: __ZN20llama_grammar_parser13get_symbol_idEPKcm, symObjAddr: 0x0, symBinAddr: 0x25650, symSize: 0xF0 }
  - { offset: 0x142580, size: 0x8, addend: 0x0, symName: __ZNSt3__16__treeINS_12__value_typeINS_12basic_stringIcNS_11char_traitsIcEENS_9allocatorIcEEEEjEENS_19__map_value_compareIS7_S8_NS_4lessIS7_EELb1EEENS5_IS8_EEE25__emplace_unique_key_argsIS7_JS7_RjEEENS_4pairINS_15__tree_iteratorIS8_PNS_11__tree_nodeIS8_PvEElEEbEERKT_DpOT0_, symObjAddr: 0xB350, symBinAddr: 0x307B0, symSize: 0x1A0 }
  - { offset: 0x142B3A, size: 0x8, addend: 0x0, symName: __ZNSt3__16__treeINS_12__value_typeINS_12basic_stringIcNS_11char_traitsIcEENS_9allocatorIcEEEEjEENS_19__map_value_compareIS7_S8_NS_4lessIS7_EELb1EEENS5_IS8_EEE25__emplace_unique_key_argsIS7_JS7_RjEEENS_4pairINS_15__tree_iteratorIS8_PNS_11__tree_nodeIS8_PvEElEEbEERKT_DpOT0_, symObjAddr: 0xB350, symBinAddr: 0x307B0, symSize: 0x1A0 }
  - { offset: 0x142D06, size: 0x8, addend: 0x0, symName: __ZN20llama_grammar_parser18generate_symbol_idERKNSt3__112basic_stringIcNS0_11char_traitsIcEENS0_9allocatorIcEEEE, symObjAddr: 0xF0, symBinAddr: 0x25740, symSize: 0x210 }
  - { offset: 0x1439FF, size: 0x8, addend: 0x0, symName: __ZNSt3__16__treeINS_12__value_typeINS_12basic_stringIcNS_11char_traitsIcEENS_9allocatorIcEEEEjEENS_19__map_value_compareIS7_S8_NS_4lessIS7_EELb1EEENS5_IS8_EEE25__emplace_unique_key_argsIS7_JRKNS_21piecewise_construct_tENS_5tupleIJOS7_EEENSJ_IJEEEEEENS_4pairINS_15__tree_iteratorIS8_PNS_11__tree_nodeIS8_PvEElEEbEERKT_DpOT0_, symObjAddr: 0xB650, symBinAddr: 0x30950, symSize: 0x190 }
  - { offset: 0x144211, size: 0x8, addend: 0x0, symName: __ZN20llama_grammar_parser8add_ruleEjRKNSt3__16vectorI21llama_grammar_elementNS0_9allocatorIS2_EEEE, symObjAddr: 0x360, symBinAddr: 0x259B0, symSize: 0xE0 }
  - { offset: 0x14453F, size: 0x8, addend: 0x0, symName: __ZNSt3__16vectorINS0_I21llama_grammar_elementNS_9allocatorIS1_EEEENS2_IS4_EEE8__appendEm, symObjAddr: 0xB7E0, symBinAddr: 0x30AE0, symSize: 0x220 }
  - { offset: 0x144C16, size: 0x8, addend: 0x0, symName: __ZNKSt3__16vectorINS0_I21llama_grammar_elementNS_9allocatorIS1_EEEENS2_IS4_EEE20__throw_length_errorB8ne180100Ev, symObjAddr: 0xBA00, symBinAddr: 0x30D00, symSize: 0x10 }
  - { offset: 0x144C21, size: 0x8, addend: 0x0, symName: __ZNSt3__16vectorI21llama_grammar_elementNS_9allocatorIS1_EEE18__assign_with_sizeB8ne180100IPS1_S6_EEvT_T0_l, symObjAddr: 0xBA10, symBinAddr: 0x30D10, symSize: 0x150 }
  - { offset: 0x145A4D, size: 0x8, addend: 0x0, symName: __ZN20llama_grammar_parser16parse_alternatesEPKcRKNSt3__112basic_stringIcNS2_11char_traitsIcEENS2_9allocatorIcEEEEjb, symObjAddr: 0x440, symBinAddr: 0x25A90, symSize: 0x560 }
  - { offset: 0x146B52, size: 0x8, addend: 0x0, symName: __ZN20llama_grammar_parser14parse_sequenceEPKcRKNSt3__112basic_stringIcNS2_11char_traitsIcEENS2_9allocatorIcEEEERNS2_6vectorI21llama_grammar_elementNS6_ISC_EEEEb, symObjAddr: 0x9A0, symBinAddr: 0x25FF0, symSize: 0x1C00 }
  - { offset: 0x149E47, size: 0x8, addend: 0x0, symName: __ZNKSt3__16vectorI21llama_grammar_elementNS_9allocatorIS1_EEE20__throw_length_errorB8ne180100Ev, symObjAddr: 0xA6F0, symBinAddr: 0x2FCA0, symSize: 0x10 }
  - { offset: 0x149EB6, size: 0x8, addend: 0x0, symName: __ZL10parse_namePKc, symObjAddr: 0x2930, symBinAddr: 0x27F80, symSize: 0x140 }
  - { offset: 0x14A19C, size: 0x8, addend: 0x0, symName: __ZL10parse_charPKc, symObjAddr: 0x25A0, symBinAddr: 0x27BF0, symSize: 0x390 }
  - { offset: 0x14A4EA, size: 0x8, addend: 0x0, symName: __ZL9parse_intPKc, symObjAddr: 0x3690, symBinAddr: 0x28C40, symSize: 0x130 }
  - { offset: 0x14A7E2, size: 0x8, addend: 0x0, symName: '__ZZN20llama_grammar_parser14parse_sequenceEPKcRKNSt3__112basic_stringIcNS2_11char_traitsIcEENS2_9allocatorIcEEEERNS2_6vectorI21llama_grammar_elementNS6_ISC_EEEEbENK3$_0clEii', symObjAddr: 0x2B10, symBinAddr: 0x280C0, symSize: 0xB80 }
  - { offset: 0x14D309, size: 0x8, addend: 0x0, symName: __ZL9parse_hexPKci, symObjAddr: 0xA4C0, symBinAddr: 0x2FA70, symSize: 0x230 }
  - { offset: 0x14DDDC, size: 0x8, addend: 0x0, symName: __ZNSt3__16vectorI21llama_grammar_elementNS_9allocatorIS1_EEE18__insert_with_sizeB8ne180100INS_11__wrap_iterIPS1_EES8_EES8_NS6_IPKS1_EET_T0_l, symObjAddr: 0xA9C0, symBinAddr: 0x2FEB0, symSize: 0x3F0 }
  - { offset: 0x14EB50, size: 0x8, addend: 0x0, symName: __ZNSt3__16vectorI21llama_grammar_elementNS_9allocatorIS1_EEE8__appendEm, symObjAddr: 0xA7C0, symBinAddr: 0x2FCB0, symSize: 0x200 }
  - { offset: 0x14F0DC, size: 0x8, addend: 0x0, symName: __ZN20llama_grammar_parser10parse_ruleEPKc, symObjAddr: 0x37C0, symBinAddr: 0x28D70, symSize: 0x390 }
  - { offset: 0x14FB7E, size: 0x8, addend: 0x0, symName: __ZN20llama_grammar_parser5parseEPKc, symObjAddr: 0x3B50, symBinAddr: 0x29100, symSize: 0x340 }
  - { offset: 0x150CA5, size: 0x8, addend: 0x0, symName: __ZN20llama_grammar_parser5printEP7__sFILE, symObjAddr: 0x3E90, symBinAddr: 0x29440, symSize: 0x920 }
  - { offset: 0x151FB5, size: 0x8, addend: 0x0, symName: __ZNSt3__16__treeINS_12__value_typeIjNS_12basic_stringIcNS_11char_traitsIcEENS_9allocatorIcEEEEEENS_19__map_value_compareIjS8_NS_4lessIjEELb1EEENS5_IS8_EEE7destroyEPNS_11__tree_nodeIS8_PvEE, symObjAddr: 0xBB60, symBinAddr: 0x30E60, symSize: 0x50 }
  - { offset: 0x152796, size: 0x8, addend: 0x0, symName: __ZNK20llama_grammar_parser7c_rulesEv, symObjAddr: 0x47B0, symBinAddr: 0x29D60, symSize: 0x2F0 }
  - { offset: 0x153079, size: 0x8, addend: 0x0, symName: __ZNKSt3__16vectorIPK21llama_grammar_elementNS_9allocatorIS3_EEE20__throw_length_errorB8ne180100Ev, symObjAddr: 0xB0A0, symBinAddr: 0x30510, symSize: 0x10 }
  - { offset: 0x1530A3, size: 0x8, addend: 0x0, symName: __ZNSt3__114__split_bufferINS_6vectorIPK21llama_grammar_elementNS_9allocatorIS4_EEEERNS5_IS7_EEED1Ev, symObjAddr: 0xB0B0, symBinAddr: 0x30520, symSize: 0x60 }
  - { offset: 0x1530AE, size: 0x8, addend: 0x0, symName: __Z23llama_grammar_get_rulesPK13llama_grammar, symObjAddr: 0x4AA0, symBinAddr: 0x2A050, symSize: 0x10 }
  - { offset: 0x1530DD, size: 0x8, addend: 0x0, symName: __Z24llama_grammar_get_stacksP13llama_grammar, symObjAddr: 0x4AB0, symBinAddr: 0x2A060, symSize: 0x10 }
  - { offset: 0x1536E5, size: 0x8, addend: 0x0, symName: __Z20llama_grammar_acceptP13llama_grammarj, symObjAddr: 0x4AC0, symBinAddr: 0x2A070, symSize: 0x420 }
  - { offset: 0x1545AE, size: 0x8, addend: 0x0, symName: __ZNSt3__16vectorINS0_IPK21llama_grammar_elementNS_9allocatorIS3_EEEENS4_IS6_EEE7reserveEm, symObjAddr: 0x4EE0, symBinAddr: 0x2A490, symSize: 0x160 }
  - { offset: 0x154AE4, size: 0x8, addend: 0x0, symName: __ZL27llama_grammar_advance_stackRKNSt3__16vectorINS0_I21llama_grammar_elementNS_9allocatorIS1_EEEENS2_IS4_EEEERKNS0_IPKS1_NS2_ISA_EEEERNS0_ISC_NS2_ISC_EEEE, symObjAddr: 0x5040, symBinAddr: 0x2A5F0, symSize: 0x650 }
  - { offset: 0x1563B8, size: 0x8, addend: 0x0, symName: __ZNSt3__16vectorINS0_IPK21llama_grammar_elementNS_9allocatorIS3_EEEENS4_IS6_EEED1B8ne180100Ev, symObjAddr: 0x5690, symBinAddr: 0x2AC40, symSize: 0x70 }
  - { offset: 0x1568F0, size: 0x8, addend: 0x0, symName: __ZNKSt3__16vectorINS0_IPK21llama_grammar_elementNS_9allocatorIS3_EEEENS4_IS6_EEE20__throw_length_errorB8ne180100Ev, symObjAddr: 0xB110, symBinAddr: 0x30580, symSize: 0x10 }
  - { offset: 0x15691A, size: 0x8, addend: 0x0, symName: __ZNSt3__110shared_ptrINS_13__empty_stateIcEEED1B8ne180100Ev, symObjAddr: 0xB120, symBinAddr: 0x30590, symSize: 0x40 }
  - { offset: 0x156D3A, size: 0x8, addend: 0x0, symName: __ZNSt3__16vectorINS0_IPK21llama_grammar_elementNS_9allocatorIS3_EEEENS4_IS6_EEE24__emplace_back_slow_pathIJRKS6_EEEPS6_DpOT_, symObjAddr: 0xAE30, symBinAddr: 0x302A0, symSize: 0x270 }
  - { offset: 0x157F3A, size: 0x8, addend: 0x0, symName: __Z41llama_grammar_reject_candidates_for_stackRKNSt3__16vectorINS0_I21llama_grammar_elementNS_9allocatorIS1_EEEENS2_IS4_EEEERKNS0_IPKS1_NS2_ISA_EEEERKNS0_I23llama_grammar_candidateNS2_ISF_EEEE, symObjAddr: 0x5700, symBinAddr: 0x2ACB0, symSize: 0xF60 }
  - { offset: 0x15B35D, size: 0x8, addend: 0x0, symName: __ZL31llama_grammar_reject_candidatesRKNSt3__16vectorINS0_I21llama_grammar_elementNS_9allocatorIS1_EEEENS2_IS4_EEEERKNS0_INS0_IPKS1_NS2_ISA_EEEENS2_ISC_EEEERKNS0_I23llama_grammar_candidateNS2_ISH_EEEE, symObjAddr: 0x6660, symBinAddr: 0x2BC10, symSize: 0x120 }
  - { offset: 0x15B753, size: 0x8, addend: 0x0, symName: __ZNKSt3__16vectorI23llama_grammar_candidateNS_9allocatorIS1_EEE20__throw_length_errorB8ne180100Ev, symObjAddr: 0xBBB0, symBinAddr: 0x30EB0, symSize: 0x10 }
  - { offset: 0x15BD2E, size: 0x8, addend: 0x0, symName: __Z23llama_grammar_init_implPK11llama_vocabPPK21llama_grammar_elementmm, symObjAddr: 0x6780, symBinAddr: 0x2BD30, symSize: 0x9C0 }
  - { offset: 0x15DEEA, size: 0x8, addend: 0x0, symName: __ZNSt3__16vectorINS0_I21llama_grammar_elementNS_9allocatorIS1_EEEENS2_IS4_EEEC1Em, symObjAddr: 0x7140, symBinAddr: 0x2C6F0, symSize: 0xD0 }
  - { offset: 0x15E14D, size: 0x8, addend: 0x0, symName: __ZL35llama_grammar_detect_left_recursionRKNSt3__16vectorINS0_I21llama_grammar_elementNS_9allocatorIS1_EEEENS2_IS4_EEEEmPNS0_IbNS2_IbEEEESB_SB_, symObjAddr: 0x7210, symBinAddr: 0x2C7C0, symSize: 0x170 }
  - { offset: 0x15E4C4, size: 0x8, addend: 0x0, symName: __ZNSt3__16__treeINS_12__value_typeINS_12basic_stringIcNS_11char_traitsIcEENS_9allocatorIcEEEEjEENS_19__map_value_compareIS7_S8_NS_4lessIS7_EELb1EEENS5_IS8_EEE4findIS7_EENS_15__tree_iteratorIS8_PNS_11__tree_nodeIS8_PvEElEERKT_, symObjAddr: 0xBBD0, symBinAddr: 0x30EC0, symSize: 0x120 }
  - { offset: 0x15E4CF, size: 0x8, addend: 0x0, symName: __ZNSt3__16vectorINS0_I21llama_grammar_elementNS_9allocatorIS1_EEEENS2_IS4_EEED1B8ne180100Ev, symObjAddr: 0x7380, symBinAddr: 0x2C930, symSize: 0x70 }
  - { offset: 0x15E918, size: 0x8, addend: 0x0, symName: __ZNKSt3__16vectorINS0_I21llama_grammar_elementNS_9allocatorIS1_EEEENS2_IS4_EEE20__throw_length_errorB8ne180100Ev, symObjAddr: 0xBA00, symBinAddr: 0x30D00, symSize: 0x10 }
  - { offset: 0x15E942, size: 0x8, addend: 0x0, symName: __ZNSt3__16vectorI21llama_grammar_elementNS_9allocatorIS1_EEE18__assign_with_sizeB8ne180100IPS1_S6_EEvT_T0_l, symObjAddr: 0xBA10, symBinAddr: 0x30D10, symSize: 0x150 }
  - { offset: 0x15E94D, size: 0x8, addend: 0x0, symName: __ZNSt3__16vectorINS0_I21llama_grammar_elementNS_9allocatorIS1_EEEENS2_IS4_EEEC1Em.cold.1, symObjAddr: 0x193B0, symBinAddr: 0x224570, symSize: 0x50 }
  - { offset: 0x15F7A2, size: 0x8, addend: 0x0, symName: __Z23llama_grammar_init_implPK11llama_vocabPKcS3_bPS3_mPKim, symObjAddr: 0x73F0, symBinAddr: 0x2C9A0, symSize: 0x11F0 }
  - { offset: 0x163B9F, size: 0x8, addend: 0x0, symName: __ZNSt3__16__treeINS_12__value_typeINS_12basic_stringIcNS_11char_traitsIcEENS_9allocatorIcEEEEjEENS_19__map_value_compareIS7_S8_NS_4lessIS7_EELb1EEENS5_IS8_EEE4findIS7_EENS_15__tree_iteratorIS8_PNS_11__tree_nodeIS8_PvEElEERKT_, symObjAddr: 0xBBD0, symBinAddr: 0x30EC0, symSize: 0x120 }
  - { offset: 0x163F00, size: 0x8, addend: 0x0, symName: __ZNSt3__16__treeINS_12__value_typeINS_12basic_stringIcNS_11char_traitsIcEENS_9allocatorIcEEEEjEENS_19__map_value_compareIS7_S8_NS_4lessIS7_EELb1EEENS5_IS8_EEE7destroyEPNS_11__tree_nodeIS8_PvEE, symObjAddr: 0xB160, symBinAddr: 0x305D0, symSize: 0x50 }
  - { offset: 0x1641C8, size: 0x8, addend: 0x0, symName: __ZNSt3__13mapINS_12basic_stringIcNS_11char_traitsIcEENS_9allocatorIcEEEEjNS_4lessIS6_EENS4_INS_4pairIKS6_jEEEEE2atERSA_, symObjAddr: 0x85E0, symBinAddr: 0x2DB90, symSize: 0x110 }
  - { offset: 0x1644BE, size: 0x8, addend: 0x0, symName: __ZNSt3__16vectorI29llama_grammar_trigger_patternNS_9allocatorIS1_EEE24__emplace_back_slow_pathIJEEEPS1_DpOT_, symObjAddr: 0xBD00, symBinAddr: 0x30FE0, symSize: 0x300 }
  - { offset: 0x16500E, size: 0x8, addend: 0x0, symName: __ZNSt3__111basic_regexIcNS_12regex_traitsIcEEEC2B8ne180100INS_11char_traitsIcEENS_9allocatorIcEEEERKNS_12basic_stringIcT_T0_EENS_15regex_constants18syntax_option_typeE, symObjAddr: 0xC130, symBinAddr: 0x31410, symSize: 0xD0 }
  - { offset: 0x165221, size: 0x8, addend: 0x0, symName: __ZNSt3__16vectorI29llama_grammar_trigger_patternNS_9allocatorIS1_EEE24__emplace_back_slow_pathIJEEEPS1_DpOT_, symObjAddr: 0xBD00, symBinAddr: 0x30FE0, symSize: 0x300 }
  - { offset: 0x16522C, size: 0x8, addend: 0x0, symName: __ZN20llama_grammar_parserD1Ev, symObjAddr: 0x8810, symBinAddr: 0x2DDC0, symSize: 0x70 }
  - { offset: 0x1655AF, size: 0x8, addend: 0x0, symName: __ZNSt3__16vectorI29llama_grammar_trigger_patternNS_9allocatorIS1_EEED1B8ne180100Ev, symObjAddr: 0x8740, symBinAddr: 0x2DCF0, symSize: 0xD0 }
  - { offset: 0x165ABF, size: 0x8, addend: 0x0, symName: __ZNSt3__111basic_regexIcNS_12regex_traitsIcEEED1Ev, symObjAddr: 0x86F0, symBinAddr: 0x2DCA0, symSize: 0x50 }
  - { offset: 0x16643E, size: 0x8, addend: 0x0, symName: __Z23llama_grammar_free_implP13llama_grammar, symObjAddr: 0x8880, symBinAddr: 0x2DE30, symSize: 0x30 }
  - { offset: 0x166496, size: 0x8, addend: 0x0, symName: __ZN13llama_grammarD2Ev, symObjAddr: 0xB1B0, symBinAddr: 0x30620, symSize: 0x180 }
  - { offset: 0x167299, size: 0x8, addend: 0x0, symName: __Z24llama_grammar_clone_implRK13llama_grammar, symObjAddr: 0x88B0, symBinAddr: 0x2DE60, symSize: 0x330 }
  - { offset: 0x167A48, size: 0x8, addend: 0x0, symName: __ZNSt3__16vectorINS0_I21llama_grammar_elementNS_9allocatorIS1_EEEENS2_IS4_EEEC2ERKS6_, symObjAddr: 0x15DC0, symBinAddr: 0x3B000, symSize: 0xD0 }
  - { offset: 0x167CE3, size: 0x8, addend: 0x0, symName: __ZNSt3__16vectorINS0_IPK21llama_grammar_elementNS_9allocatorIS3_EEEENS4_IS6_EEEC2ERKS8_, symObjAddr: 0x15FF0, symBinAddr: 0x3B230, symSize: 0xD0 }
  - { offset: 0x1681DD, size: 0x8, addend: 0x0, symName: __ZNSt3__16vectorI29llama_grammar_trigger_patternNS_9allocatorIS1_EEEC2ERKS4_, symObjAddr: 0x16220, symBinAddr: 0x3B460, symSize: 0xD0 }
  - { offset: 0x16893C, size: 0x8, addend: 0x0, symName: __Z24llama_grammar_apply_implRK13llama_grammarP22llama_token_data_array, symObjAddr: 0x8BE0, symBinAddr: 0x2E190, symSize: 0x510 }
  - { offset: 0x169F72, size: 0x8, addend: 0x0, symName: __ZNSt3__16vectorINS_4pairINS0_IjNS_9allocatorIjEEEE18llama_partial_utf8EENS2_IS6_EEE7reserveEm, symObjAddr: 0x90F0, symBinAddr: 0x2E6A0, symSize: 0x120 }
  - { offset: 0x16A4FB, size: 0x8, addend: 0x0, symName: __ZNSt3__16vectorINS_4pairINS0_IjNS_9allocatorIjEEEE18llama_partial_utf8EENS2_IS6_EEE21__push_back_slow_pathIS6_EEPS6_OT_, symObjAddr: 0x16400, symBinAddr: 0x3B640, symSize: 0x190 }
  - { offset: 0x16ABBF, size: 0x8, addend: 0x0, symName: __ZNKSt3__111basic_regexIcNS_12regex_traitsIcEEE8__searchINS_9allocatorINS_9sub_matchIPKcEEEEEEbS8_S8_RNS_13match_resultsIS8_T_EENS_15regex_constants15match_flag_typeE, symObjAddr: 0x16590, symBinAddr: 0x3B7D0, symSize: 0x330 }
  - { offset: 0x16ABD3, size: 0x8, addend: 0x0, symName: __ZNSt3__16vectorINS_4pairINS0_IjNS_9allocatorIjEEEE18llama_partial_utf8EENS2_IS6_EEED1B8ne180100Ev, symObjAddr: 0x9D90, symBinAddr: 0x2F340, symSize: 0x70 }
  - { offset: 0x16B07F, size: 0x8, addend: 0x0, symName: __ZNKSt3__16vectorINS_4pairINS0_IjNS_9allocatorIjEEEE18llama_partial_utf8EENS2_IS6_EEE20__throw_length_errorB8ne180100Ev, symObjAddr: 0x163F0, symBinAddr: 0x3B630, symSize: 0x10 }
  - { offset: 0x16B0A9, size: 0x8, addend: 0x0, symName: __ZNSt3__16vectorINS_4pairINS0_IjNS_9allocatorIjEEEE18llama_partial_utf8EENS2_IS6_EEE21__push_back_slow_pathIS6_EEPS6_OT_, symObjAddr: 0x16400, symBinAddr: 0x3B640, symSize: 0x190 }
  - { offset: 0x16B6A8, size: 0x8, addend: 0x0, symName: __ZNKSt3__16vectorIjNS_9allocatorIjEEE20__throw_length_errorB8ne180100Ev, symObjAddr: 0xB330, symBinAddr: 0x307A0, symSize: 0x10 }
  - { offset: 0x16BDB7, size: 0x8, addend: 0x0, symName: __Z25llama_grammar_accept_implR13llama_grammari, symObjAddr: 0x9E00, symBinAddr: 0x2F3B0, symSize: 0x590 }
  - { offset: 0x16D79A, size: 0x8, addend: 0x0, symName: __Z24llama_grammar_accept_strR13llama_grammarRKNSt3__112basic_stringIcNS1_11char_traitsIcEENS1_9allocatorIcEEEE, symObjAddr: 0xA390, symBinAddr: 0x2F940, symSize: 0x130 }
  - { offset: 0x16DCE1, size: 0x8, addend: 0x0, symName: __ZNKSt3__111basic_regexIcNS_12regex_traitsIcEEE8__searchINS_9allocatorINS_9sub_matchIPKcEEEEEEbS8_S8_RNS_13match_resultsIS8_T_EENS_15regex_constants15match_flag_typeE, symObjAddr: 0x16590, symBinAddr: 0x3B7D0, symSize: 0x330 }
  - { offset: 0x16E271, size: 0x8, addend: 0x0, symName: __ZNSt3__113match_resultsINS_11__wrap_iterIPKcEENS_9allocatorINS_9sub_matchIS4_EEEEE8__assignB8ne180100IS3_NS5_INS6_IS3_EEEEEEvS4_S4_RKNS0_IT_T0_EEb, symObjAddr: 0x168C0, symBinAddr: 0x3BB00, symSize: 0x1C0 }
  - { offset: 0x16E9EF, size: 0x8, addend: 0x0, symName: __ZNSt3__14pairINS_12basic_stringIcNS_11char_traitsIcEENS_9allocatorIcEEEES6_ED1Ev, symObjAddr: 0x11930, symBinAddr: 0x36C00, symSize: 0x40 }
  - { offset: 0x16EFB3, size: 0x8, addend: 0x0, symName: __ZNSt3__114__split_bufferINS_6vectorIPK21llama_grammar_elementNS_9allocatorIS4_EEEERNS5_IS7_EEED1Ev, symObjAddr: 0xB0B0, symBinAddr: 0x30520, symSize: 0x60 }
  - { offset: 0x16F235, size: 0x8, addend: 0x0, symName: __ZNSt3__110shared_ptrINS_13__empty_stateIcEEED1B8ne180100Ev, symObjAddr: 0xB120, symBinAddr: 0x30590, symSize: 0x40 }
  - { offset: 0x1700BC, size: 0x8, addend: 0x0, symName: __ZNKSt3__16vectorI29llama_grammar_trigger_patternNS_9allocatorIS1_EEE20__throw_length_errorB8ne180100Ev, symObjAddr: 0xC120, symBinAddr: 0x31400, symSize: 0x10 }
  - { offset: 0x1700E6, size: 0x8, addend: 0x0, symName: __ZNSt3__111basic_regexIcNS_12regex_traitsIcEEEC2B8ne180100INS_11char_traitsIcEENS_9allocatorIcEEEERKNS_12basic_stringIcT_T0_EENS_15regex_constants18syntax_option_typeE, symObjAddr: 0xC130, symBinAddr: 0x31410, symSize: 0xD0 }
  - { offset: 0x1700F1, size: 0x8, addend: 0x0, symName: __ZNSt3__114__split_bufferI29llama_grammar_trigger_patternRNS_9allocatorIS1_EEED1Ev, symObjAddr: 0xC060, symBinAddr: 0x31340, symSize: 0xC0 }
  - { offset: 0x170449, size: 0x8, addend: 0x0, symName: __ZNSt3__111basic_regexIcNS_12regex_traitsIcEEEC1B8ne180100Ev, symObjAddr: 0xC000, symBinAddr: 0x312E0, symSize: 0x60 }
  - { offset: 0x17054C, size: 0x8, addend: 0x0, symName: __ZNSt3__111basic_regexIcNS_12regex_traitsIcEEE7__parseINS_11__wrap_iterIPKcEEEET_S9_S9_, symObjAddr: 0xC200, symBinAddr: 0x314E0, symSize: 0x1D0 }
  - { offset: 0x171140, size: 0x8, addend: 0x0, symName: __ZNSt3__111basic_regexIcNS_12regex_traitsIcEEE13__parse_egrepINS_11__wrap_iterIPKcEEEET_S9_S9_, symObjAddr: 0xCB50, symBinAddr: 0x31E30, symSize: 0x1E0 }
  - { offset: 0x1717A3, size: 0x8, addend: 0x0, symName: __ZNSt3__111basic_regexIcNS_12regex_traitsIcEEE24__parse_extended_reg_expINS_11__wrap_iterIPKcEEEET_S9_S9_, symObjAddr: 0xC7E0, symBinAddr: 0x31AC0, symSize: 0x190 }
  - { offset: 0x171C02, size: 0x8, addend: 0x0, symName: __ZNSt3__111basic_regexIcNS_12regex_traitsIcEEE16__parse_ecma_expINS_11__wrap_iterIPKcEEEET_S9_S9_, symObjAddr: 0xC420, symBinAddr: 0x31700, symSize: 0x270 }
  - { offset: 0x1722D9, size: 0x8, addend: 0x0, symName: __ZNSt3__111basic_regexIcNS_12regex_traitsIcEEE21__parse_basic_reg_expINS_11__wrap_iterIPKcEEEET_S9_S9_, symObjAddr: 0xC690, symBinAddr: 0x31970, symSize: 0x150 }
  - { offset: 0x172707, size: 0x8, addend: 0x0, symName: __ZNSt3__111basic_regexIcNS_12regex_traitsIcEEE12__parse_grepINS_11__wrap_iterIPKcEEEET_S9_S9_, symObjAddr: 0xC970, symBinAddr: 0x31C50, symSize: 0x1E0 }
  - { offset: 0x172FA0, size: 0x8, addend: 0x0, symName: __ZNSt3__111basic_regexIcNS_12regex_traitsIcEEE17__parse_assertionINS_11__wrap_iterIPKcEEEET_S9_S9_, symObjAddr: 0xCF50, symBinAddr: 0x32230, symSize: 0x290 }
  - { offset: 0x1736FC, size: 0x8, addend: 0x0, symName: __ZNSt3__111basic_regexIcNS_12regex_traitsIcEEE12__parse_atomINS_11__wrap_iterIPKcEEEET_S9_S9_, symObjAddr: 0xD1E0, symBinAddr: 0x324C0, symSize: 0x2E0 }
  - { offset: 0x173B8E, size: 0x8, addend: 0x0, symName: __ZNSt3__111basic_regexIcNS_12regex_traitsIcEEE23__parse_ERE_dupl_symbolINS_11__wrap_iterIPKcEEEET_S9_S9_PNS_16__owns_one_stateIcEEjj, symObjAddr: 0xD4C0, symBinAddr: 0x327A0, symSize: 0x3B0 }
  - { offset: 0x174521, size: 0x8, addend: 0x0, symName: __ZNSt3__111basic_regexIcNS_12regex_traitsIcEEE18__parse_nondupl_REINS_11__wrap_iterIPKcEEEET_S9_S9_, symObjAddr: 0x15150, symBinAddr: 0x3A420, symSize: 0x1C0 }
  - { offset: 0x174B77, size: 0x8, addend: 0x0, symName: __ZNSt3__111basic_regexIcNS_12regex_traitsIcEEE22__parse_RE_dupl_symbolINS_11__wrap_iterIPKcEEEET_S9_S9_PNS_16__owns_one_stateIcEEjj, symObjAddr: 0x15310, symBinAddr: 0x3A5E0, symSize: 0x240 }
  - { offset: 0x1753B2, size: 0x8, addend: 0x0, symName: __ZNSt3__111basic_regexIcNS_12regex_traitsIcEEE22__parse_ERE_expressionINS_11__wrap_iterIPKcEEEET_S9_S9_, symObjAddr: 0x15730, symBinAddr: 0x3AA00, symSize: 0x260 }
  - { offset: 0x175931, size: 0x8, addend: 0x0, symName: __ZNSt3__111__end_stateIcED1Ev, symObjAddr: 0xCD80, symBinAddr: 0x32060, symSize: 0x10 }
  - { offset: 0x17595D, size: 0x8, addend: 0x0, symName: __ZNSt3__111__end_stateIcED0Ev, symObjAddr: 0xCD90, symBinAddr: 0x32070, symSize: 0x10 }
  - { offset: 0x17597D, size: 0x8, addend: 0x0, symName: __ZNKSt3__111__end_stateIcE6__execERNS_7__stateIcEE, symObjAddr: 0xCDA0, symBinAddr: 0x32080, symSize: 0x10 }
  - { offset: 0x1759B3, size: 0x8, addend: 0x0, symName: __ZNKSt3__16__nodeIcE12__exec_splitEbRNS_7__stateIcEE, symObjAddr: 0xCDB0, symBinAddr: 0x32090, symSize: 0x10 }
  - { offset: 0x1759FA, size: 0x8, addend: 0x0, symName: __ZNKSt3__16__nodeIcE6__execERNS_7__stateIcEE, symObjAddr: 0xCDC0, symBinAddr: 0x320A0, symSize: 0x10 }
  - { offset: 0x175A46, size: 0x8, addend: 0x0, symName: __ZNSt3__120__shared_ptr_pointerIPNS_13__empty_stateIcEENS_10shared_ptrIS2_E27__shared_ptr_default_deleteIS2_S2_EENS_9allocatorIS2_EEED1Ev, symObjAddr: 0xCDD0, symBinAddr: 0x320B0, symSize: 0x10 }
  - { offset: 0x175A9E, size: 0x8, addend: 0x0, symName: __ZNSt3__120__shared_ptr_pointerIPNS_13__empty_stateIcEENS_10shared_ptrIS2_E27__shared_ptr_default_deleteIS2_S2_EENS_9allocatorIS2_EEED0Ev, symObjAddr: 0xCDE0, symBinAddr: 0x320C0, symSize: 0x20 }
  - { offset: 0x175B03, size: 0x8, addend: 0x0, symName: __ZNSt3__120__shared_ptr_pointerIPNS_13__empty_stateIcEENS_10shared_ptrIS2_E27__shared_ptr_default_deleteIS2_S2_EENS_9allocatorIS2_EEE16__on_zero_sharedEv, symObjAddr: 0xCE00, symBinAddr: 0x320E0, symSize: 0x20 }
  - { offset: 0x175B98, size: 0x8, addend: 0x0, symName: __ZNKSt3__120__shared_ptr_pointerIPNS_13__empty_stateIcEENS_10shared_ptrIS2_E27__shared_ptr_default_deleteIS2_S2_EENS_9allocatorIS2_EEE13__get_deleterERKSt9type_info, symObjAddr: 0xCE20, symBinAddr: 0x32100, symSize: 0x20 }
  - { offset: 0x175C59, size: 0x8, addend: 0x0, symName: __ZNSt3__120__shared_ptr_pointerIPNS_13__empty_stateIcEENS_10shared_ptrIS2_E27__shared_ptr_default_deleteIS2_S2_EENS_9allocatorIS2_EEE21__on_zero_shared_weakEv, symObjAddr: 0xCE40, symBinAddr: 0x32120, symSize: 0x10 }
  - { offset: 0x175D29, size: 0x8, addend: 0x0, symName: __ZNSt3__113__empty_stateIcED1Ev, symObjAddr: 0xCE50, symBinAddr: 0x32130, symSize: 0x30 }
  - { offset: 0x175D95, size: 0x8, addend: 0x0, symName: __ZNSt3__113__empty_stateIcED0Ev, symObjAddr: 0xCE80, symBinAddr: 0x32160, symSize: 0x40 }
  - { offset: 0x175E35, size: 0x8, addend: 0x0, symName: __ZNKSt3__113__empty_stateIcE6__execERNS_7__stateIcEE, symObjAddr: 0xCEC0, symBinAddr: 0x321A0, symSize: 0x20 }
  - { offset: 0x175E88, size: 0x8, addend: 0x0, symName: __ZNSt3__116__owns_one_stateIcED1Ev, symObjAddr: 0xCEE0, symBinAddr: 0x321C0, symSize: 0x30 }
  - { offset: 0x175EF1, size: 0x8, addend: 0x0, symName: __ZNSt3__116__owns_one_stateIcED0Ev, symObjAddr: 0xCF10, symBinAddr: 0x321F0, symSize: 0x40 }
  - { offset: 0x176061, size: 0x8, addend: 0x0, symName: __ZNSt3__111basic_regexIcNS_12regex_traitsIcEEE16__push_lookaheadERKS3_bj, symObjAddr: 0xD870, symBinAddr: 0x32B50, symSize: 0xC0 }
  - { offset: 0x17644C, size: 0x8, addend: 0x0, symName: __ZNSt3__111basic_regexIcNS_12regex_traitsIcEEE26__parse_bracket_expressionINS_11__wrap_iterIPKcEEEET_S9_S9_, symObjAddr: 0xF040, symBinAddr: 0x34320, symSize: 0x140 }
  - { offset: 0x17675B, size: 0x8, addend: 0x0, symName: __ZNSt3__111basic_regexIcNS_12regex_traitsIcEEE19__parse_atom_escapeINS_11__wrap_iterIPKcEEEET_S9_S9_, symObjAddr: 0xEF30, symBinAddr: 0x34210, symSize: 0x110 }
  - { offset: 0x176A1C, size: 0x8, addend: 0x0, symName: __ZNSt3__111basic_regexIcNS_12regex_traitsIcEEE25__parse_pattern_characterINS_11__wrap_iterIPKcEEEET_S9_S9_, symObjAddr: 0xF1D0, symBinAddr: 0x344B0, symSize: 0x1B0 }
  - { offset: 0x176C20, size: 0x8, addend: 0x0, symName: __ZNSt3__111basic_regexIcNS_12regex_traitsIcEEE11__push_loopEmmPNS_16__owns_one_stateIcEEmmb, symObjAddr: 0x149D0, symBinAddr: 0x39CA0, symSize: 0x140 }
  - { offset: 0x177209, size: 0x8, addend: 0x0, symName: __ZNSt3__120__l_anchor_multilineIcED1Ev, symObjAddr: 0xD980, symBinAddr: 0x32C60, symSize: 0x30 }
  - { offset: 0x177292, size: 0x8, addend: 0x0, symName: __ZNSt3__120__l_anchor_multilineIcED0Ev, symObjAddr: 0xD9B0, symBinAddr: 0x32C90, symSize: 0x40 }
  - { offset: 0x177323, size: 0x8, addend: 0x0, symName: __ZNKSt3__120__l_anchor_multilineIcE6__execERNS_7__stateIcEE, symObjAddr: 0xD9F0, symBinAddr: 0x32CD0, symSize: 0x60 }
  - { offset: 0x17738A, size: 0x8, addend: 0x0, symName: __ZNSt3__120__r_anchor_multilineIcED1Ev, symObjAddr: 0xDA50, symBinAddr: 0x32D30, symSize: 0x30 }
  - { offset: 0x177413, size: 0x8, addend: 0x0, symName: __ZNSt3__120__r_anchor_multilineIcED0Ev, symObjAddr: 0xDA80, symBinAddr: 0x32D60, symSize: 0x40 }
  - { offset: 0x1774A4, size: 0x8, addend: 0x0, symName: __ZNKSt3__120__r_anchor_multilineIcE6__execERNS_7__stateIcEE, symObjAddr: 0xDAC0, symBinAddr: 0x32DA0, symSize: 0x50 }
  - { offset: 0x17750B, size: 0x8, addend: 0x0, symName: __ZNSt3__115__word_boundaryIcNS_12regex_traitsIcEEED1Ev, symObjAddr: 0xDB10, symBinAddr: 0x32DF0, symSize: 0x50 }
  - { offset: 0x1775CE, size: 0x8, addend: 0x0, symName: __ZNSt3__115__word_boundaryIcNS_12regex_traitsIcEEED0Ev, symObjAddr: 0xDB60, symBinAddr: 0x32E40, symSize: 0x50 }
  - { offset: 0x177713, size: 0x8, addend: 0x0, symName: __ZNKSt3__115__word_boundaryIcNS_12regex_traitsIcEEE6__execERNS_7__stateIcEE, symObjAddr: 0xDBB0, symBinAddr: 0x32E90, symSize: 0x100 }
  - { offset: 0x1778F8, size: 0x8, addend: 0x0, symName: __ZNSt3__111__lookaheadIcNS_12regex_traitsIcEEED1Ev, symObjAddr: 0xDCB0, symBinAddr: 0x32F90, symSize: 0x90 }
  - { offset: 0x177A9D, size: 0x8, addend: 0x0, symName: __ZNSt3__111__lookaheadIcNS_12regex_traitsIcEEED0Ev, symObjAddr: 0xDD40, symBinAddr: 0x33020, symSize: 0x90 }
  - { offset: 0x177D11, size: 0x8, addend: 0x0, symName: __ZNKSt3__111__lookaheadIcNS_12regex_traitsIcEEE6__execERNS_7__stateIcEE, symObjAddr: 0xDDD0, symBinAddr: 0x330B0, symSize: 0x1A0 }
  - { offset: 0x1782A0, size: 0x8, addend: 0x0, symName: __ZNSt3__16vectorINS_9sub_matchIPKcEENS_9allocatorIS4_EEE6assignEmRKS4_, symObjAddr: 0xE460, symBinAddr: 0x33740, symSize: 0x230 }
  - { offset: 0x1788C0, size: 0x8, addend: 0x0, symName: __ZNKSt3__111basic_regexIcNS_12regex_traitsIcEEE21__match_at_start_ecmaINS_9allocatorINS_9sub_matchIPKcEEEEEEbS8_S8_RNS_13match_resultsIS8_T_EENS_15regex_constants15match_flag_typeEb, symObjAddr: 0xDF70, symBinAddr: 0x33250, symSize: 0x4F0 }
  - { offset: 0x17A126, size: 0x8, addend: 0x0, symName: __ZNSt3__16vectorINS_7__stateIcEENS_9allocatorIS2_EEE21__push_back_slow_pathIS2_EEPS2_OT_, symObjAddr: 0xE800, symBinAddr: 0x33AE0, symSize: 0x240 }
  - { offset: 0x17AA44, size: 0x8, addend: 0x0, symName: __ZNSt3__16vectorINS_9sub_matchIPKcEENS_9allocatorIS4_EEE8__appendEmRKS4_, symObjAddr: 0xEA50, symBinAddr: 0x33D30, symSize: 0x1C0 }
  - { offset: 0x17AFD5, size: 0x8, addend: 0x0, symName: __ZNSt3__16vectorINS_4pairImPKcEENS_9allocatorIS4_EEE8__appendEm, symObjAddr: 0xEC10, symBinAddr: 0x33EF0, symSize: 0x150 }
  - { offset: 0x17B53E, size: 0x8, addend: 0x0, symName: __ZNSt3__17__stateIcEC2ERKS1_, symObjAddr: 0xED70, symBinAddr: 0x34050, symSize: 0x1C0 }
  - { offset: 0x17BB76, size: 0x8, addend: 0x0, symName: __ZNSt3__17__stateIcED1Ev, symObjAddr: 0xE6A0, symBinAddr: 0x33980, symSize: 0x40 }
  - { offset: 0x17BDFF, size: 0x8, addend: 0x0, symName: __ZNSt3__16vectorINS_7__stateIcEENS_9allocatorIS2_EEED1B8ne180100Ev, symObjAddr: 0xE780, symBinAddr: 0x33A60, symSize: 0x80 }
  - { offset: 0x17C4D6, size: 0x8, addend: 0x0, symName: __ZNKSt3__16vectorINS_9sub_matchIPKcEENS_9allocatorIS4_EEE20__throw_length_errorB8ne180100Ev, symObjAddr: 0xE690, symBinAddr: 0x33970, symSize: 0x10 }
  - { offset: 0x17C500, size: 0x8, addend: 0x0, symName: __ZNSt3__17__stateIcED1Ev, symObjAddr: 0xE6A0, symBinAddr: 0x33980, symSize: 0x40 }
  - { offset: 0x17C738, size: 0x8, addend: 0x0, symName: __ZNKSt3__16vectorINS_7__stateIcEENS_9allocatorIS2_EEE20__throw_length_errorB8ne180100Ev, symObjAddr: 0xEA40, symBinAddr: 0x33D20, symSize: 0x10 }
  - { offset: 0x17C762, size: 0x8, addend: 0x0, symName: __ZNSt3__16vectorINS_9sub_matchIPKcEENS_9allocatorIS4_EEE8__appendEmRKS4_, symObjAddr: 0xEA50, symBinAddr: 0x33D30, symSize: 0x1C0 }
  - { offset: 0x17CD94, size: 0x8, addend: 0x0, symName: __ZNKSt3__16vectorINS_4pairImPKcEENS_9allocatorIS4_EEE20__throw_length_errorB8ne180100Ev, symObjAddr: 0xED60, symBinAddr: 0x34040, symSize: 0x10 }
  - { offset: 0x17CDBE, size: 0x8, addend: 0x0, symName: __ZNSt3__17__stateIcEC2ERKS1_, symObjAddr: 0xED70, symBinAddr: 0x34050, symSize: 0x1C0 }
  - { offset: 0x17D1EB, size: 0x8, addend: 0x0, symName: __ZNSt3__111basic_regexIcNS_12regex_traitsIcEEE11__push_charEc, symObjAddr: 0xFB30, symBinAddr: 0x34E10, symSize: 0x140 }
  - { offset: 0x17D58B, size: 0x8, addend: 0x0, symName: __ZNSt3__111basic_regexIcNS_12regex_traitsIcEEE15__push_back_refEi, symObjAddr: 0xFCC0, symBinAddr: 0x34FA0, symSize: 0xD0 }
  - { offset: 0x17D7E0, size: 0x8, addend: 0x0, symName: __ZNSt3__111basic_regexIcNS_12regex_traitsIcEEE30__parse_character_class_escapeINS_11__wrap_iterIPKcEEEET_S9_S9_, symObjAddr: 0xF440, symBinAddr: 0x34720, symSize: 0x2E0 }
  - { offset: 0x17DD3C, size: 0x8, addend: 0x0, symName: __ZNSt3__111basic_regexIcNS_12regex_traitsIcEEE24__parse_character_escapeINS_11__wrap_iterIPKcEEEET_S9_S9_PNS_12basic_stringIcNS_11char_traitsIcEENS_9allocatorIcEEEE, symObjAddr: 0xF720, symBinAddr: 0x34A00, symSize: 0x410 }
  - { offset: 0x17E3A1, size: 0x8, addend: 0x0, symName: __ZNSt3__120__bracket_expressionIcNS_12regex_traitsIcEEEC2B8ne180100ERKS2_PNS_6__nodeIcEEbbb, symObjAddr: 0x10A30, symBinAddr: 0x35D10, symSize: 0x1A0 }
  - { offset: 0x17EACB, size: 0x8, addend: 0x0, symName: __ZNSt3__120__bracket_expressionIcNS_12regex_traitsIcEEE10__add_charB8ne180100Ec, symObjAddr: 0x103B0, symBinAddr: 0x35690, symSize: 0x680 }
  - { offset: 0x17F721, size: 0x8, addend: 0x0, symName: __ZNSt3__111basic_regexIcNS_12regex_traitsIcEEE23__parse_expression_termINS_11__wrap_iterIPKcEEEET_S9_S9_PNS_20__bracket_expressionIcS2_EE, symObjAddr: 0x11FF0, symBinAddr: 0x372C0, symSize: 0x450 }
  - { offset: 0x1807B9, size: 0x8, addend: 0x0, symName: __ZNSt3__123__match_any_but_newlineIcED1Ev, symObjAddr: 0xF380, symBinAddr: 0x34660, symSize: 0x30 }
  - { offset: 0x180842, size: 0x8, addend: 0x0, symName: __ZNSt3__123__match_any_but_newlineIcED0Ev, symObjAddr: 0xF3B0, symBinAddr: 0x34690, symSize: 0x40 }
  - { offset: 0x180CDA, size: 0x8, addend: 0x0, symName: __ZNSt3__118__match_char_icaseIcNS_12regex_traitsIcEEED1Ev, symObjAddr: 0xFD90, symBinAddr: 0x35070, symSize: 0x50 }
  - { offset: 0x180D9D, size: 0x8, addend: 0x0, symName: __ZNSt3__118__match_char_icaseIcNS_12regex_traitsIcEEED0Ev, symObjAddr: 0xFDE0, symBinAddr: 0x350C0, symSize: 0x50 }
  - { offset: 0x180E68, size: 0x8, addend: 0x0, symName: __ZNKSt3__118__match_char_icaseIcNS_12regex_traitsIcEEE6__execERNS_7__stateIcEE, symObjAddr: 0xFE30, symBinAddr: 0x35110, symSize: 0x50 }
  - { offset: 0x180F24, size: 0x8, addend: 0x0, symName: __ZNSt3__120__match_char_collateIcNS_12regex_traitsIcEEED1Ev, symObjAddr: 0xFE80, symBinAddr: 0x35160, symSize: 0x50 }
  - { offset: 0x180FE7, size: 0x8, addend: 0x0, symName: __ZNSt3__120__match_char_collateIcNS_12regex_traitsIcEEED0Ev, symObjAddr: 0xFED0, symBinAddr: 0x351B0, symSize: 0x50 }
  - { offset: 0x1810B2, size: 0x8, addend: 0x0, symName: __ZNKSt3__120__match_char_collateIcNS_12regex_traitsIcEEE6__execERNS_7__stateIcEE, symObjAddr: 0xFF20, symBinAddr: 0x35200, symSize: 0x40 }
  - { offset: 0x181122, size: 0x8, addend: 0x0, symName: __ZNSt3__112__match_charIcED1Ev, symObjAddr: 0xFF60, symBinAddr: 0x35240, symSize: 0x30 }
  - { offset: 0x1811AB, size: 0x8, addend: 0x0, symName: __ZNSt3__112__match_charIcED0Ev, symObjAddr: 0xFF90, symBinAddr: 0x35270, symSize: 0x40 }
  - { offset: 0x18123C, size: 0x8, addend: 0x0, symName: __ZNKSt3__112__match_charIcE6__execERNS_7__stateIcEE, symObjAddr: 0xFFD0, symBinAddr: 0x352B0, symSize: 0x40 }
  - { offset: 0x1812AC, size: 0x8, addend: 0x0, symName: __ZNSt3__116__back_ref_icaseIcNS_12regex_traitsIcEEED1Ev, symObjAddr: 0x10010, symBinAddr: 0x352F0, symSize: 0x50 }
  - { offset: 0x18136F, size: 0x8, addend: 0x0, symName: __ZNSt3__116__back_ref_icaseIcNS_12regex_traitsIcEEED0Ev, symObjAddr: 0x10060, symBinAddr: 0x35340, symSize: 0x50 }
  - { offset: 0x18143A, size: 0x8, addend: 0x0, symName: __ZNKSt3__116__back_ref_icaseIcNS_12regex_traitsIcEEE6__execERNS_7__stateIcEE, symObjAddr: 0x100B0, symBinAddr: 0x35390, symSize: 0xD0 }
  - { offset: 0x1815AE, size: 0x8, addend: 0x0, symName: __ZNSt3__118__back_ref_collateIcNS_12regex_traitsIcEEED1Ev, symObjAddr: 0x10180, symBinAddr: 0x35460, symSize: 0x50 }
  - { offset: 0x181671, size: 0x8, addend: 0x0, symName: __ZNSt3__118__back_ref_collateIcNS_12regex_traitsIcEEED0Ev, symObjAddr: 0x101D0, symBinAddr: 0x354B0, symSize: 0x50 }
  - { offset: 0x18173C, size: 0x8, addend: 0x0, symName: __ZNKSt3__118__back_ref_collateIcNS_12regex_traitsIcEEE6__execERNS_7__stateIcEE, symObjAddr: 0x10220, symBinAddr: 0x35500, symSize: 0x80 }
  - { offset: 0x18181A, size: 0x8, addend: 0x0, symName: __ZNSt3__110__back_refIcED1Ev, symObjAddr: 0x102A0, symBinAddr: 0x35580, symSize: 0x30 }
  - { offset: 0x1818A3, size: 0x8, addend: 0x0, symName: __ZNSt3__110__back_refIcED0Ev, symObjAddr: 0x102D0, symBinAddr: 0x355B0, symSize: 0x40 }
  - { offset: 0x181934, size: 0x8, addend: 0x0, symName: __ZNKSt3__110__back_refIcE6__execERNS_7__stateIcEE, symObjAddr: 0x10310, symBinAddr: 0x355F0, symSize: 0xA0 }
  - { offset: 0x181EFE, size: 0x8, addend: 0x0, symName: __ZNKSt3__16vectorIcNS_9allocatorIcEEE20__throw_length_errorB8ne180100Ev, symObjAddr: 0x11F90, symBinAddr: 0x37260, symSize: 0x10 }
  - { offset: 0x181F28, size: 0x8, addend: 0x0, symName: __ZNSt3__119__throw_regex_errorB8ne180100ILNS_15regex_constants10error_typeE5EEEvv, symObjAddr: 0x11FA0, symBinAddr: 0x37270, symSize: 0x50 }
  - { offset: 0x182171, size: 0x8, addend: 0x0, symName: __ZNSt3__16vectorINS_12basic_stringIcNS_11char_traitsIcEENS_9allocatorIcEEEENS4_IS6_EEED1B8ne180100Ev, symObjAddr: 0x10BD0, symBinAddr: 0x35EB0, symSize: 0x70 }
  - { offset: 0x1823D9, size: 0x8, addend: 0x0, symName: __ZNSt3__16vectorINS_4pairINS_12basic_stringIcNS_11char_traitsIcEENS_9allocatorIcEEEES7_EENS5_IS8_EEED1B8ne180100Ev, symObjAddr: 0x10C40, symBinAddr: 0x35F20, symSize: 0x90 }
  - { offset: 0x1829EE, size: 0x8, addend: 0x0, symName: __ZNSt3__120__bracket_expressionIcNS_12regex_traitsIcEEED1Ev, symObjAddr: 0x10CD0, symBinAddr: 0x35FB0, symSize: 0x10 }
  - { offset: 0x182A24, size: 0x8, addend: 0x0, symName: __ZNSt3__120__bracket_expressionIcNS_12regex_traitsIcEEED2Ev, symObjAddr: 0x11970, symBinAddr: 0x36C40, symSize: 0x150 }
  - { offset: 0x18346D, size: 0x8, addend: 0x0, symName: __ZNSt3__120__bracket_expressionIcNS_12regex_traitsIcEEED0Ev, symObjAddr: 0x10CE0, symBinAddr: 0x35FC0, symSize: 0x20 }
  - { offset: 0x1838AF, size: 0x8, addend: 0x0, symName: __ZNKSt3__120__bracket_expressionIcNS_12regex_traitsIcEEE6__execERNS_7__stateIcEE, symObjAddr: 0x10D00, symBinAddr: 0x35FE0, symSize: 0xC20 }
  - { offset: 0x185465, size: 0x8, addend: 0x0, symName: __ZNKSt3__112regex_traitsIcE20__lookup_collatenameIPcEENS_12basic_stringIcNS_11char_traitsIcEENS_9allocatorIcEEEET_SA_c, symObjAddr: 0x11BE0, symBinAddr: 0x36EB0, symSize: 0x230 }
  - { offset: 0x18608A, size: 0x8, addend: 0x0, symName: __ZNKSt3__112regex_traitsIcE9transformIPcEENS_12basic_stringIcNS_11char_traitsIcEENS_9allocatorIcEEEET_SA_, symObjAddr: 0x11AC0, symBinAddr: 0x36D90, symSize: 0x120 }
  - { offset: 0x1866B6, size: 0x8, addend: 0x0, symName: __ZNKSt3__112regex_traitsIcE19__transform_primaryIPcEENS_12basic_stringIcNS_11char_traitsIcEENS_9allocatorIcEEEET_SA_c, symObjAddr: 0x11E10, symBinAddr: 0x370E0, symSize: 0x180 }
  - { offset: 0x186E34, size: 0x8, addend: 0x0, symName: __ZNSt3__14pairINS_12basic_stringIcNS_11char_traitsIcEENS_9allocatorIcEEEES6_ED1Ev, symObjAddr: 0x11930, symBinAddr: 0x36C00, symSize: 0x40 }
  - { offset: 0x187152, size: 0x8, addend: 0x0, symName: __ZNSt3__111basic_regexIcNS_12regex_traitsIcEEE25__parse_equivalence_classINS_11__wrap_iterIPKcEEEET_S9_S9_PNS_20__bracket_expressionIcS2_EE, symObjAddr: 0x12440, symBinAddr: 0x37710, symSize: 0x270 }
  - { offset: 0x187D6B, size: 0x8, addend: 0x0, symName: __ZNSt3__111basic_regexIcNS_12regex_traitsIcEEE18__parse_awk_escapeINS_11__wrap_iterIPKcEEEET_S9_S9_PNS_12basic_stringIcNS_11char_traitsIcEENS_9allocatorIcEEEE, symObjAddr: 0x129C0, symBinAddr: 0x37C90, symSize: 0x320 }
  - { offset: 0x187F71, size: 0x8, addend: 0x0, symName: __ZNSt3__111basic_regexIcNS_12regex_traitsIcEEE24__parse_collating_symbolINS_11__wrap_iterIPKcEEEET_S9_S9_RNS_12basic_stringIcNS_11char_traitsIcEENS_9allocatorIcEEEE, symObjAddr: 0x12750, symBinAddr: 0x37A20, symSize: 0xE0 }
  - { offset: 0x188421, size: 0x8, addend: 0x0, symName: __ZNSt3__111basic_regexIcNS_12regex_traitsIcEEE23__parse_character_classINS_11__wrap_iterIPKcEEEET_S9_S9_PNS_20__bracket_expressionIcS2_EE, symObjAddr: 0x126B0, symBinAddr: 0x37980, symSize: 0xA0 }
  - { offset: 0x1887CB, size: 0x8, addend: 0x0, symName: __ZNSt3__111basic_regexIcNS_12regex_traitsIcEEE20__parse_class_escapeINS_11__wrap_iterIPKcEEEET_S9_S9_RNS_12basic_stringIcNS_11char_traitsIcEENS_9allocatorIcEEEEPNS_20__bracket_expressionIcS2_EE, symObjAddr: 0x12830, symBinAddr: 0x37B00, symSize: 0x190 }
  - { offset: 0x18898E, size: 0x8, addend: 0x0, symName: __ZNSt3__120__bracket_expressionIcNS_12regex_traitsIcEEE13__add_digraphB8ne180100Ecc, symObjAddr: 0x131D0, symBinAddr: 0x384A0, symSize: 0x4E0 }
  - { offset: 0x189737, size: 0x8, addend: 0x0, symName: __ZNSt3__120__bracket_expressionIcNS_12regex_traitsIcEEE11__add_rangeB8ne180100ENS_12basic_stringIcNS_11char_traitsIcEENS_9allocatorIcEEEES9_, symObjAddr: 0x12CE0, symBinAddr: 0x37FB0, symSize: 0x4F0 }
  - { offset: 0x18B153, size: 0x8, addend: 0x0, symName: __ZNKSt3__112regex_traitsIcE20__lookup_collatenameINS_11__wrap_iterIPKcEEEENS_12basic_stringIcNS_11char_traitsIcEENS_9allocatorIcEEEET_SD_c, symObjAddr: 0x13700, symBinAddr: 0x389D0, symSize: 0x230 }
  - { offset: 0x18BDA8, size: 0x8, addend: 0x0, symName: __ZNKSt3__112regex_traitsIcE19__transform_primaryINS_11__wrap_iterIPcEEEENS_12basic_stringIcNS_11char_traitsIcEENS_9allocatorIcEEEET_SC_c, symObjAddr: 0x13930, symBinAddr: 0x38C00, symSize: 0x180 }
  - { offset: 0x18C556, size: 0x8, addend: 0x0, symName: __ZNSt3__16vectorINS_12basic_stringIcNS_11char_traitsIcEENS_9allocatorIcEEEENS4_IS6_EEE21__push_back_slow_pathIRKS6_EEPS6_OT_, symObjAddr: 0x13AB0, symBinAddr: 0x38D80, symSize: 0x1F0 }
  - { offset: 0x18CCBB, size: 0x8, addend: 0x0, symName: __ZNKSt3__112regex_traitsIcE18__lookup_classnameINS_11__wrap_iterIPKcEEEEjT_S7_bc, symObjAddr: 0x13D60, symBinAddr: 0x39030, symSize: 0x130 }
  - { offset: 0x18D40E, size: 0x8, addend: 0x0, symName: __ZNSt3__120__bracket_expressionIcNS_12regex_traitsIcEEE14__add_neg_charB8ne180100Ec, symObjAddr: 0x13E90, symBinAddr: 0x39160, symSize: 0x680 }
  - { offset: 0x18E264, size: 0x8, addend: 0x0, symName: __ZNKSt3__112regex_traitsIcE9transformINS_11__wrap_iterIPcEEEENS_12basic_stringIcNS_11char_traitsIcEENS_9allocatorIcEEEET_SC_, symObjAddr: 0x14510, symBinAddr: 0x397E0, symSize: 0x120 }
  - { offset: 0x18E8E7, size: 0x8, addend: 0x0, symName: __ZNSt3__16vectorINS_4pairINS_12basic_stringIcNS_11char_traitsIcEENS_9allocatorIcEEEES7_EENS5_IS8_EEE21__push_back_slow_pathIS8_EEPS8_OT_, symObjAddr: 0x14680, symBinAddr: 0x39950, symSize: 0x1F0 }
  - { offset: 0x18F431, size: 0x8, addend: 0x0, symName: __ZNKSt3__16vectorINS_4pairIccEENS_9allocatorIS2_EEE20__throw_length_errorB8ne180100Ev, symObjAddr: 0x14880, symBinAddr: 0x39B50, symSize: 0x10 }
  - { offset: 0x18F45B, size: 0x8, addend: 0x0, symName: __ZNSt3__128__begin_marked_subexpressionIcED1Ev, symObjAddr: 0x14890, symBinAddr: 0x39B60, symSize: 0x30 }
  - { offset: 0x18FA3B, size: 0x8, addend: 0x0, symName: __ZNKSt3__16vectorINS_12basic_stringIcNS_11char_traitsIcEENS_9allocatorIcEEEENS4_IS6_EEE20__throw_length_errorB8ne180100Ev, symObjAddr: 0x13D00, symBinAddr: 0x38FD0, symSize: 0x10 }
  - { offset: 0x18FA65, size: 0x8, addend: 0x0, symName: __ZNSt3__119__throw_regex_errorB8ne180100ILNS_15regex_constants10error_typeE2EEEvv, symObjAddr: 0x13D10, symBinAddr: 0x38FE0, symSize: 0x50 }
  - { offset: 0x18FA70, size: 0x8, addend: 0x0, symName: __ZNSt3__114__split_bufferINS_12basic_stringIcNS_11char_traitsIcEENS_9allocatorIcEEEERNS4_IS6_EEED1Ev, symObjAddr: 0x13CA0, symBinAddr: 0x38F70, symSize: 0x60 }
  - { offset: 0x18FF36, size: 0x8, addend: 0x0, symName: __ZNKSt3__16vectorINS_4pairINS_12basic_stringIcNS_11char_traitsIcEENS_9allocatorIcEEEES7_EENS5_IS8_EEE20__throw_length_errorB8ne180100Ev, symObjAddr: 0x14870, symBinAddr: 0x39B40, symSize: 0x10 }
  - { offset: 0x18FF60, size: 0x8, addend: 0x0, symName: __ZNKSt3__16vectorINS_4pairIccEENS_9allocatorIS2_EEE20__throw_length_errorB8ne180100Ev, symObjAddr: 0x14880, symBinAddr: 0x39B50, symSize: 0x10 }
  - { offset: 0x18FF88, size: 0x8, addend: 0x0, symName: __ZNSt3__128__begin_marked_subexpressionIcED1Ev, symObjAddr: 0x14890, symBinAddr: 0x39B60, symSize: 0x30 }
  - { offset: 0x190011, size: 0x8, addend: 0x0, symName: __ZNSt3__128__begin_marked_subexpressionIcED0Ev, symObjAddr: 0x148C0, symBinAddr: 0x39B90, symSize: 0x40 }
  - { offset: 0x1900A2, size: 0x8, addend: 0x0, symName: __ZNKSt3__128__begin_marked_subexpressionIcE6__execERNS_7__stateIcEE, symObjAddr: 0x14900, symBinAddr: 0x39BD0, symSize: 0x30 }
  - { offset: 0x190138, size: 0x8, addend: 0x0, symName: __ZNSt3__126__end_marked_subexpressionIcED1Ev, symObjAddr: 0x14930, symBinAddr: 0x39C00, symSize: 0x30 }
  - { offset: 0x1901C1, size: 0x8, addend: 0x0, symName: __ZNSt3__126__end_marked_subexpressionIcED0Ev, symObjAddr: 0x14960, symBinAddr: 0x39C30, symSize: 0x40 }
  - { offset: 0x190252, size: 0x8, addend: 0x0, symName: __ZNKSt3__126__end_marked_subexpressionIcE6__execERNS_7__stateIcEE, symObjAddr: 0x149A0, symBinAddr: 0x39C70, symSize: 0x30 }
  - { offset: 0x190560, size: 0x8, addend: 0x0, symName: __ZNSt3__16__loopIcED0Ev, symObjAddr: 0x14C00, symBinAddr: 0x39ED0, symSize: 0x60 }
  - { offset: 0x190653, size: 0x8, addend: 0x0, symName: __ZNSt3__16__loopIcED1Ev, symObjAddr: 0x14BB0, symBinAddr: 0x39E80, symSize: 0x50 }
  - { offset: 0x19077B, size: 0x8, addend: 0x0, symName: __ZNKSt3__16__loopIcE6__execERNS_7__stateIcEE, symObjAddr: 0x14C60, symBinAddr: 0x39F30, symSize: 0x1D0 }
  - { offset: 0x19091B, size: 0x8, addend: 0x0, symName: __ZNKSt3__16__loopIcE12__exec_splitEbRNS_7__stateIcEE, symObjAddr: 0x14E30, symBinAddr: 0x3A100, symSize: 0xC0 }
  - { offset: 0x190A23, size: 0x8, addend: 0x0, symName: __ZNSt3__117__owns_two_statesIcED1Ev, symObjAddr: 0x14EF0, symBinAddr: 0x3A1C0, symSize: 0x50 }
  - { offset: 0x190AB7, size: 0x8, addend: 0x0, symName: __ZNSt3__117__owns_two_statesIcED0Ev, symObjAddr: 0x14F40, symBinAddr: 0x3A210, symSize: 0x60 }
  - { offset: 0x190B53, size: 0x8, addend: 0x0, symName: __ZNSt3__117__repeat_one_loopIcED1Ev, symObjAddr: 0x14FA0, symBinAddr: 0x3A270, symSize: 0x10 }
  - { offset: 0x190B7F, size: 0x8, addend: 0x0, symName: __ZNSt3__117__repeat_one_loopIcED0Ev, symObjAddr: 0x14FB0, symBinAddr: 0x3A280, symSize: 0x10 }
  - { offset: 0x190BAB, size: 0x8, addend: 0x0, symName: __ZNKSt3__117__repeat_one_loopIcE6__execERNS_7__stateIcEE, symObjAddr: 0x14FC0, symBinAddr: 0x3A290, symSize: 0x20 }
  - { offset: 0x190C1B, size: 0x8, addend: 0x0, symName: __ZNSt3__111__alternateIcED1Ev, symObjAddr: 0x14FE0, symBinAddr: 0x3A2B0, symSize: 0x50 }
  - { offset: 0x190CCF, size: 0x8, addend: 0x0, symName: __ZNSt3__111__alternateIcED0Ev, symObjAddr: 0x15030, symBinAddr: 0x3A300, symSize: 0x60 }
  - { offset: 0x190D89, size: 0x8, addend: 0x0, symName: __ZNKSt3__111__alternateIcE6__execERNS_7__stateIcEE, symObjAddr: 0x15090, symBinAddr: 0x3A360, symSize: 0x10 }
  - { offset: 0x190DBF, size: 0x8, addend: 0x0, symName: __ZNKSt3__111__alternateIcE12__exec_splitEbRNS_7__stateIcEE, symObjAddr: 0x150A0, symBinAddr: 0x3A370, symSize: 0x20 }
  - { offset: 0x190E10, size: 0x8, addend: 0x0, symName: __ZNSt3__121__empty_non_own_stateIcED1Ev, symObjAddr: 0x150C0, symBinAddr: 0x3A390, symSize: 0x10 }
  - { offset: 0x190E3C, size: 0x8, addend: 0x0, symName: __ZNSt3__121__empty_non_own_stateIcED0Ev, symObjAddr: 0x150D0, symBinAddr: 0x3A3A0, symSize: 0x10 }
  - { offset: 0x190E68, size: 0x8, addend: 0x0, symName: __ZNKSt3__121__empty_non_own_stateIcE6__execERNS_7__stateIcEE, symObjAddr: 0x150E0, symBinAddr: 0x3A3B0, symSize: 0x20 }
  - { offset: 0x190FC0, size: 0x8, addend: 0x0, symName: __ZNSt3__111basic_regexIcNS_12regex_traitsIcEEE32__parse_one_char_or_coll_elem_REINS_11__wrap_iterIPKcEEEET_S9_S9_, symObjAddr: 0x15550, symBinAddr: 0x3A820, symSize: 0xF0 }
  - { offset: 0x191400, size: 0x8, addend: 0x0, symName: __ZNSt3__111__match_anyIcED1Ev, symObjAddr: 0x15640, symBinAddr: 0x3A910, symSize: 0x30 }
  - { offset: 0x191489, size: 0x8, addend: 0x0, symName: __ZNSt3__111__match_anyIcED0Ev, symObjAddr: 0x15670, symBinAddr: 0x3A940, symSize: 0x40 }
  - { offset: 0x19151A, size: 0x8, addend: 0x0, symName: __ZNKSt3__111__match_anyIcE6__execERNS_7__stateIcEE, symObjAddr: 0x156B0, symBinAddr: 0x3A980, symSize: 0x40 }
  - { offset: 0x19156D, size: 0x8, addend: 0x0, symName: __ZNSt3__111basic_regexIcNS_12regex_traitsIcEEE15__test_back_refEc, symObjAddr: 0x156F0, symBinAddr: 0x3A9C0, symSize: 0x40 }
  - { offset: 0x191699, size: 0x8, addend: 0x0, symName: __ZNSt3__111basic_regexIcNS_12regex_traitsIcEEE20__parse_ORD_CHAR_EREINS_11__wrap_iterIPKcEEEET_S9_S9_, symObjAddr: 0x15990, symBinAddr: 0x3AC60, symSize: 0x1B0 }
  - { offset: 0x19173A, size: 0x8, addend: 0x0, symName: __ZNSt3__111basic_regexIcNS_12regex_traitsIcEEE23__parse_QUOTED_CHAR_EREINS_11__wrap_iterIPKcEEEET_S9_S9_, symObjAddr: 0x15B40, symBinAddr: 0x3AE10, symSize: 0x1F0 }
  - { offset: 0x1919A1, size: 0x8, addend: 0x0, symName: __ZNSt3__16vectorINS0_I21llama_grammar_elementNS_9allocatorIS1_EEEENS2_IS4_EEEC2ERKS6_.cold.1, symObjAddr: 0x19400, symBinAddr: 0x2245C0, symSize: 0x50 }
  - { offset: 0x191CD3, size: 0x8, addend: 0x0, symName: __ZNSt3__128__exception_guard_exceptionsINS_29_AllocatorDestroyRangeReverseINS_9allocatorINS_6vectorI21llama_grammar_elementNS2_IS4_EEEEEEPS6_EEED1B8ne180100Ev, symObjAddr: 0x15FA0, symBinAddr: 0x3B1E0, symSize: 0x50 }
  - { offset: 0x192038, size: 0x8, addend: 0x0, symName: __ZNSt3__16vectorINS0_IPK21llama_grammar_elementNS_9allocatorIS3_EEEENS4_IS6_EEEC2ERKS8_.cold.1, symObjAddr: 0x19450, symBinAddr: 0x224610, symSize: 0x50 }
  - { offset: 0x19236A, size: 0x8, addend: 0x0, symName: __ZNSt3__128__exception_guard_exceptionsINS_29_AllocatorDestroyRangeReverseINS_9allocatorINS_6vectorIPK21llama_grammar_elementNS2_IS6_EEEEEEPS8_EEED1B8ne180100Ev, symObjAddr: 0x161D0, symBinAddr: 0x3B410, symSize: 0x50 }
  - { offset: 0x1926B6, size: 0x8, addend: 0x0, symName: __ZNSt3__16vectorI29llama_grammar_trigger_patternNS_9allocatorIS1_EEEC2ERKS4_.cold.1, symObjAddr: 0x194A0, symBinAddr: 0x224660, symSize: 0x90 }
  - { offset: 0x192B4E, size: 0x8, addend: 0x0, symName: __ZNSt3__130__uninitialized_allocator_copyB8ne180100INS_9allocatorI29llama_grammar_trigger_patternEEPS2_S4_S4_EET2_RT_T0_T1_S5_.cold.1, symObjAddr: 0x19530, symBinAddr: 0x2246F0, symSize: 0x68 }
  - { offset: 0x192F12, size: 0x8, addend: 0x0, symName: __ZNKSt3__111basic_regexIcNS_12regex_traitsIcEEE27__match_at_start_posix_subsINS_9allocatorINS_9sub_matchIPKcEEEEEEbS8_S8_RNS_13match_resultsIS8_T_EENS_15regex_constants15match_flag_typeEb, symObjAddr: 0x174C0, symBinAddr: 0x3C700, symSize: 0x6F0 }
  - { offset: 0x194F0F, size: 0x8, addend: 0x0, symName: __ZNKSt3__111basic_regexIcNS_12regex_traitsIcEEE29__match_at_start_posix_nosubsINS_9allocatorINS_9sub_matchIPKcEEEEEEbS8_S8_RNS_13match_resultsIS8_T_EENS_15regex_constants15match_flag_typeEb, symObjAddr: 0x16A80, symBinAddr: 0x3BCC0, symSize: 0xA40 }
  - { offset: 0x196E6E, size: 0x8, addend: 0x0, symName: __ZNSt3__16vectorINS_9sub_matchINS_11__wrap_iterIPKcEEEENS_9allocatorIS6_EEE8__appendEm, symObjAddr: 0x191E0, symBinAddr: 0x3E420, symSize: 0x1C0 }
  - { offset: 0x1978BE, size: 0x8, addend: 0x0, symName: __ZNSt3__15dequeINS_7__stateIcEENS_9allocatorIS2_EEE19__add_back_capacityEv, symObjAddr: 0x17D80, symBinAddr: 0x3CFC0, symSize: 0x720 }
  - { offset: 0x198BE4, size: 0x8, addend: 0x0, symName: __ZNSt3__15dequeINS_7__stateIcEENS_9allocatorIS2_EEE20__add_front_capacityEv, symObjAddr: 0x18850, symBinAddr: 0x3DA90, symSize: 0x410 }
  - { offset: 0x199A31, size: 0x8, addend: 0x0, symName: __ZNSt3__15dequeINS_7__stateIcEENS_9allocatorIS2_EEED1B8ne180100Ev, symObjAddr: 0x17D10, symBinAddr: 0x3CF50, symSize: 0x70 }
  - { offset: 0x199DCE, size: 0x8, addend: 0x0, symName: __ZNSt3__16vectorINS_9sub_matchIPKcEENS_9allocatorIS4_EEE18__assign_with_sizeB8ne180100IPS4_S9_EEvT_T0_l, symObjAddr: 0x18E30, symBinAddr: 0x3E070, symSize: 0x1F0 }
  - { offset: 0x19A69B, size: 0x8, addend: 0x0, symName: __ZNSt3__16vectorINS_4pairImPKcEENS_9allocatorIS4_EEE18__assign_with_sizeB8ne180100IPS4_S9_EEvT_T0_l, symObjAddr: 0x19020, symBinAddr: 0x3E260, symSize: 0x1C0 }
  - { offset: 0x19AEED, size: 0x8, addend: 0x0, symName: __ZNSt3__15dequeINS_7__stateIcEENS_9allocatorIS2_EEE5clearEv, symObjAddr: 0x17BB0, symBinAddr: 0x3CDF0, symSize: 0x160 }
  - { offset: 0x19B99D, size: 0x8, addend: 0x0, symName: __ZNSt3__114__split_bufferIPNS_7__stateIcEENS_9allocatorIS3_EEE9push_backEOS3_, symObjAddr: 0x184A0, symBinAddr: 0x3D6E0, symSize: 0x1E0 }
  - { offset: 0x19BE44, size: 0x8, addend: 0x0, symName: __ZNSt3__114__split_bufferIPNS_7__stateIcEENS_9allocatorIS3_EEE10push_frontEOS3_, symObjAddr: 0x18680, symBinAddr: 0x3D8C0, symSize: 0x1D0 }
  - { offset: 0x19C34C, size: 0x8, addend: 0x0, symName: __ZNSt3__114__split_bufferIPNS_7__stateIcEENS_9allocatorIS3_EEE10push_frontERKS3_, symObjAddr: 0x18C60, symBinAddr: 0x3DEA0, symSize: 0x1D0 }
  - { offset: 0x19CCD8, size: 0x8, addend: 0x0, symName: __ZNKSt3__16vectorINS_9sub_matchINS_11__wrap_iterIPKcEEEENS_9allocatorIS6_EEE20__throw_length_errorB8ne180100Ev, symObjAddr: 0x193A0, symBinAddr: 0x3E5E0, symSize: 0x10 }
  - { offset: 0x19CD02, size: 0x8, addend: 0x0, symName: __ZNSt3__16vectorINS0_I21llama_grammar_elementNS_9allocatorIS1_EEEENS2_IS4_EEEC1Em.cold.1, symObjAddr: 0x193B0, symBinAddr: 0x224570, symSize: 0x50 }
  - { offset: 0x19EBA2, size: 0x8, addend: 0x0, symName: __ZN20llm_graph_input_embd9set_inputEPK12llama_ubatch, symObjAddr: 0x0, symBinAddr: 0x3E5F0, symSize: 0x90 }
  - { offset: 0x1C25BA, size: 0x8, addend: 0x0, symName: __ZNSt3__125__throw_bad_function_callB8ne180100Ev, symObjAddr: 0x6100, symBinAddr: 0x44630, symSize: 0x40 }
  - { offset: 0x1CA1E3, size: 0x8, addend: 0x0, symName: __ZN20llm_graph_input_embd9set_inputEPK12llama_ubatch, symObjAddr: 0x0, symBinAddr: 0x3E5F0, symSize: 0x90 }
  - { offset: 0x1CA53D, size: 0x8, addend: 0x0, symName: __ZN19llm_graph_input_pos9set_inputEPK12llama_ubatch, symObjAddr: 0x90, symBinAddr: 0x3E680, symSize: 0x290 }
  - { offset: 0x1CAB92, size: 0x8, addend: 0x0, symName: __ZN25llm_graph_input_attn_temp9set_inputEPK12llama_ubatch, symObjAddr: 0x320, symBinAddr: 0x3E910, symSize: 0x270 }
  - { offset: 0x1CB01A, size: 0x8, addend: 0x0, symName: __ZN26llm_graph_input_pos_bucket9set_inputEPK12llama_ubatch, symObjAddr: 0x590, symBinAddr: 0x3EB80, symSize: 0x570 }
  - { offset: 0x1CB193, size: 0x8, addend: 0x0, symName: __Z30llama_relative_position_bucketiiyb, symObjAddr: 0xB00, symBinAddr: 0x3F0F0, symSize: 0xF0 }
  - { offset: 0x1CB1F8, size: 0x8, addend: 0x0, symName: __ZN29llm_graph_input_pos_bucket_kv9set_inputEPK12llama_ubatch, symObjAddr: 0xBF0, symBinAddr: 0x3F1E0, symSize: 0x20 }
  - { offset: 0x1CB230, size: 0x8, addend: 0x0, symName: __ZN23llm_graph_input_out_ids9set_inputEPK12llama_ubatch, symObjAddr: 0xC10, symBinAddr: 0x3F200, symSize: 0x1D0 }
  - { offset: 0x1CB574, size: 0x8, addend: 0x0, symName: __ZN20llm_graph_input_mean9set_inputEPK12llama_ubatch, symObjAddr: 0xDE0, symBinAddr: 0x3F3D0, symSize: 0x570 }
  - { offset: 0x1CBDAC, size: 0x8, addend: 0x0, symName: __ZN19llm_graph_input_cls9set_inputEPK12llama_ubatch, symObjAddr: 0x1350, symBinAddr: 0x3F940, symSize: 0x4D0 }
  - { offset: 0x1CC4EB, size: 0x8, addend: 0x0, symName: __ZN18llm_graph_input_rs9set_inputEPK12llama_ubatch, symObjAddr: 0x1820, symBinAddr: 0x3FE10, symSize: 0xA0 }
  - { offset: 0x1CC599, size: 0x8, addend: 0x0, symName: __ZN26llm_graph_input_cross_embd9set_inputEPK12llama_ubatch, symObjAddr: 0x18C0, symBinAddr: 0x3FEB0, symSize: 0x40 }
  - { offset: 0x1CC626, size: 0x8, addend: 0x0, symName: __ZN29llm_graph_input_attn_no_cache9set_inputEPK12llama_ubatch, symObjAddr: 0x1900, symBinAddr: 0x3FEF0, symSize: 0x160 }
  - { offset: 0x1CC77F, size: 0x8, addend: 0x0, symName: __ZN31llm_graph_input_attn_kv_unified9set_inputEPK12llama_ubatch, symObjAddr: 0x1A60, symBinAddr: 0x40050, symSize: 0x50 }
  - { offset: 0x1CC7BA, size: 0x8, addend: 0x0, symName: __ZN36llm_graph_input_attn_kv_unified_iswa9set_inputEPK12llama_ubatch, symObjAddr: 0x1AB0, symBinAddr: 0x400A0, symSize: 0xC0 }
  - { offset: 0x1CC8D2, size: 0x8, addend: 0x0, symName: __ZN26llm_graph_input_attn_cross9set_inputEPK12llama_ubatch, symObjAddr: 0x1B70, symBinAddr: 0x40160, symSize: 0x270 }
  - { offset: 0x1CCB9F, size: 0x8, addend: 0x0, symName: __ZN26llm_graph_input_mem_hybrid9set_inputEPK12llama_ubatch, symObjAddr: 0x1DE0, symBinAddr: 0x403D0, symSize: 0x30 }
  - { offset: 0x1CD817, size: 0x8, addend: 0x0, symName: __ZN17llm_graph_contextC2ERK16llm_graph_params, symObjAddr: 0x1E10, symBinAddr: 0x40400, symSize: 0x190 }
  - { offset: 0x1CD950, size: 0x8, addend: 0x0, symName: __ZN17llm_graph_contextC1ERK16llm_graph_params, symObjAddr: 0x1FA0, symBinAddr: 0x40590, symSize: 0x10 }
  - { offset: 0x1CDA6C, size: 0x8, addend: 0x0, symName: __ZNK17llm_graph_context2cbEP11ggml_tensorPKci, symObjAddr: 0x1FB0, symBinAddr: 0x405A0, symSize: 0x50 }
  - { offset: 0x1CDB73, size: 0x8, addend: 0x0, symName: __ZNK17llm_graph_context10build_cvecEP11ggml_tensori, symObjAddr: 0x2000, symBinAddr: 0x405F0, symSize: 0x20 }
  - { offset: 0x1CDC10, size: 0x8, addend: 0x0, symName: __ZNK17llm_graph_context13build_lora_mmEP11ggml_tensorS1_, symObjAddr: 0x2020, symBinAddr: 0x40610, symSize: 0x100 }
  - { offset: 0x1CDE46, size: 0x8, addend: 0x0, symName: __ZNK17llm_graph_context16build_lora_mm_idEP11ggml_tensorS1_S1_, symObjAddr: 0x2120, symBinAddr: 0x40710, symSize: 0x130 }
  - { offset: 0x1CE07C, size: 0x8, addend: 0x0, symName: __ZNK17llm_graph_context10build_normEP11ggml_tensorS1_S1_13llm_norm_typei, symObjAddr: 0x2250, symBinAddr: 0x40840, symSize: 0x1A0 }
  - { offset: 0x1CE434, size: 0x8, addend: 0x0, symName: __ZNK17llm_graph_context9build_ffnEP11ggml_tensorS1_S1_S1_S1_S1_S1_S1_S1_S1_S1_15llm_ffn_op_type17llm_ffn_gate_typei, symObjAddr: 0x23F0, symBinAddr: 0x409E0, symSize: 0x730 }
  - { offset: 0x1CF63E, size: 0x8, addend: 0x0, symName: __ZNK17llm_graph_context13build_moe_ffnEP11ggml_tensorS1_S1_S1_S1_S1_xx15llm_ffn_op_typebbf29llama_expert_gating_func_typei, symObjAddr: 0x2B20, symBinAddr: 0x41110, symSize: 0x880 }
  - { offset: 0x1D124B, size: 0x8, addend: 0x0, symName: __ZNK17llm_graph_context14build_inp_embdEP11ggml_tensor, symObjAddr: 0x33A0, symBinAddr: 0x41990, symSize: 0x290 }
  - { offset: 0x1D19BC, size: 0x8, addend: 0x0, symName: __ZNSt3__16vectorINS_10unique_ptrI17llm_graph_input_iNS_14default_deleteIS2_EEEENS_9allocatorIS5_EEE24__emplace_back_slow_pathIJS5_EEEPS5_DpOT_, symObjAddr: 0x5C70, symBinAddr: 0x44260, symSize: 0x220 }
  - { offset: 0x1D227C, size: 0x8, addend: 0x0, symName: __ZNK17llm_graph_context13build_inp_posEv, symObjAddr: 0x3630, symBinAddr: 0x41C20, symSize: 0x110 }
  - { offset: 0x1D295A, size: 0x8, addend: 0x0, symName: __ZNK17llm_graph_context20build_inp_attn_scaleEv, symObjAddr: 0x3740, symBinAddr: 0x41D30, symSize: 0x100 }
  - { offset: 0x1D309F, size: 0x8, addend: 0x0, symName: __ZNK17llm_graph_context17build_inp_out_idsEv, symObjAddr: 0x3840, symBinAddr: 0x41E30, symSize: 0xE0 }
  - { offset: 0x1D374E, size: 0x8, addend: 0x0, symName: __ZNK17llm_graph_context14build_inp_meanEv, symObjAddr: 0x3920, symBinAddr: 0x41F10, symSize: 0xE0 }
  - { offset: 0x1D3E11, size: 0x8, addend: 0x0, symName: __ZNK17llm_graph_context13build_inp_clsEv, symObjAddr: 0x3A00, symBinAddr: 0x41FF0, symSize: 0xE0 }
  - { offset: 0x1D44DE, size: 0x8, addend: 0x0, symName: __ZNK17llm_graph_context20build_inp_cross_embdEv, symObjAddr: 0x3AE0, symBinAddr: 0x420D0, symSize: 0xF0 }
  - { offset: 0x1D4BE5, size: 0x8, addend: 0x0, symName: __ZNK17llm_graph_context24build_inp_pos_bucket_encEv, symObjAddr: 0x3BD0, symBinAddr: 0x421C0, symSize: 0xF0 }
  - { offset: 0x1D52C3, size: 0x8, addend: 0x0, symName: __ZNK17llm_graph_context24build_inp_pos_bucket_decEv, symObjAddr: 0x3CC0, symBinAddr: 0x422B0, symSize: 0x100 }
  - { offset: 0x1D57B0, size: 0x8, addend: 0x0, symName: __ZNK17llm_graph_context14build_pos_biasEP11ggml_tensorS1_, symObjAddr: 0x3DC0, symBinAddr: 0x423B0, symSize: 0x120 }
  - { offset: 0x1D5AB6, size: 0x8, addend: 0x0, symName: __ZNK17llm_graph_context14build_attn_mhaEP11ggml_cgraphP11ggml_tensorS3_S3_S3_S3_S3_f, symObjAddr: 0x3EE0, symBinAddr: 0x424D0, symSize: 0x420 }
  - { offset: 0x1D6237, size: 0x8, addend: 0x0, symName: __ZNK17llm_graph_context23build_attn_inp_no_cacheEv, symObjAddr: 0x4300, symBinAddr: 0x428F0, symSize: 0x130 }
  - { offset: 0x1D6717, size: 0x8, addend: 0x0, symName: __ZNK17llm_graph_context10build_attnEP29llm_graph_input_attn_no_cacheP11ggml_cgraphP11ggml_tensorS5_S5_S5_S5_S5_S5_fi, symObjAddr: 0x4430, symBinAddr: 0x42A20, symSize: 0x110 }
  - { offset: 0x1D6B48, size: 0x8, addend: 0x0, symName: __ZNK17llm_graph_context25build_attn_inp_kv_unifiedEv, symObjAddr: 0x4540, symBinAddr: 0x42B30, symSize: 0xB0 }
  - { offset: 0x1D6F82, size: 0x8, addend: 0x0, symName: __ZL30build_attn_inp_kv_unified_implP12ggml_contextRK12llama_ubatchRK13llama_hparamsRK13llama_cparamsPK30llama_kv_cache_unified_context, symObjAddr: 0x45F0, symBinAddr: 0x42BE0, symSize: 0x160 }
  - { offset: 0x1D74BC, size: 0x8, addend: 0x0, symName: __ZNK17llm_graph_context10build_attnEP31llm_graph_input_attn_kv_unifiedP11ggml_cgraphP11ggml_tensorS5_S5_S5_S5_S5_S5_fi, symObjAddr: 0x4750, symBinAddr: 0x42D40, symSize: 0x1A0 }
  - { offset: 0x1D78EA, size: 0x8, addend: 0x0, symName: __ZNK17llm_graph_context10build_attnEP36llm_graph_input_attn_kv_unified_iswaP11ggml_cgraphP11ggml_tensorS5_S5_S5_S5_S5_S5_fi, symObjAddr: 0x48F0, symBinAddr: 0x42EE0, symSize: 0x210 }
  - { offset: 0x1D7EF4, size: 0x8, addend: 0x0, symName: __ZNK17llm_graph_context20build_attn_inp_crossEv, symObjAddr: 0x4B00, symBinAddr: 0x430F0, symSize: 0x140 }
  - { offset: 0x1D8408, size: 0x8, addend: 0x0, symName: __ZNK17llm_graph_context10build_attnEP26llm_graph_input_attn_crossP11ggml_cgraphP11ggml_tensorS5_S5_S5_S5_S5_S5_fi, symObjAddr: 0x4C40, symBinAddr: 0x43230, symSize: 0x110 }
  - { offset: 0x1D8920, size: 0x8, addend: 0x0, symName: __ZNK17llm_graph_context30build_attn_inp_kv_unified_iswaEv, symObjAddr: 0x4D50, symBinAddr: 0x43340, symSize: 0x2A0 }
  - { offset: 0x1D8F00, size: 0x8, addend: 0x0, symName: __ZNK17llm_graph_context8build_rsEP11ggml_cgraphP11ggml_tensorS3_iijjjiRKNSt3__18functionIFS3_P12ggml_contextS3_S3_EEE, symObjAddr: 0x4FF0, symBinAddr: 0x435E0, symSize: 0x1A0 }
  - { offset: 0x1D94A1, size: 0x8, addend: 0x0, symName: __ZNK17llm_graph_context12build_rs_inpEv, symObjAddr: 0x5190, symBinAddr: 0x43780, symSize: 0xF0 }
  - { offset: 0x1D999D, size: 0x8, addend: 0x0, symName: __ZNK17llm_graph_context8build_rsEP18llm_graph_input_rsP11ggml_cgraphP11ggml_tensoriiRKNSt3__18functionIFS5_P12ggml_contextS5_S5_EEE, symObjAddr: 0x5280, symBinAddr: 0x43870, symSize: 0x90 }
  - { offset: 0x1D9E2F, size: 0x8, addend: 0x0, symName: __ZNK17llm_graph_context27build_rwkv_token_shift_loadEP18llm_graph_input_rsP11ggml_cgraphRK12llama_ubatchi, symObjAddr: 0x5310, symBinAddr: 0x43900, symSize: 0x1C0 }
  - { offset: 0x1DA215, size: 0x8, addend: 0x0, symName: __ZNK17llm_graph_context28build_rwkv_token_shift_storeEP11ggml_tensorRK12llama_ubatchi, symObjAddr: 0x54D0, symBinAddr: 0x43AC0, symSize: 0xF0 }
  - { offset: 0x1DA6D0, size: 0x8, addend: 0x0, symName: __ZNK17llm_graph_context20build_inp_mem_hybridEv, symObjAddr: 0x55C0, symBinAddr: 0x43BB0, symSize: 0x180 }
  - { offset: 0x1DAE91, size: 0x8, addend: 0x0, symName: __ZNK17llm_graph_context13build_poolingEP11ggml_cgraphP11ggml_tensorS3_S3_S3_, symObjAddr: 0x5740, symBinAddr: 0x43D30, symSize: 0x240 }
  - { offset: 0x1DB214, size: 0x8, addend: 0x0, symName: __ZN19llm_graph_input_posD1Ev, symObjAddr: 0x5980, symBinAddr: 0x43F70, symSize: 0x10 }
  - { offset: 0x1DB23D, size: 0x8, addend: 0x0, symName: __ZN19llm_graph_input_posD0Ev, symObjAddr: 0x5990, symBinAddr: 0x43F80, symSize: 0x10 }
  - { offset: 0x1DB266, size: 0x8, addend: 0x0, symName: __ZN25llm_graph_input_attn_tempD1Ev, symObjAddr: 0x59A0, symBinAddr: 0x43F90, symSize: 0x10 }
  - { offset: 0x1DB28F, size: 0x8, addend: 0x0, symName: __ZN25llm_graph_input_attn_tempD0Ev, symObjAddr: 0x59B0, symBinAddr: 0x43FA0, symSize: 0x10 }
  - { offset: 0x1DB2B8, size: 0x8, addend: 0x0, symName: __ZN26llm_graph_input_pos_bucketD1Ev, symObjAddr: 0x59C0, symBinAddr: 0x43FB0, symSize: 0x10 }
  - { offset: 0x1DB2E1, size: 0x8, addend: 0x0, symName: __ZN26llm_graph_input_pos_bucketD0Ev, symObjAddr: 0x59D0, symBinAddr: 0x43FC0, symSize: 0x10 }
  - { offset: 0x1DB30A, size: 0x8, addend: 0x0, symName: __ZN29llm_graph_input_pos_bucket_kvD1Ev, symObjAddr: 0x59E0, symBinAddr: 0x43FD0, symSize: 0x10 }
  - { offset: 0x1DB333, size: 0x8, addend: 0x0, symName: __ZN29llm_graph_input_pos_bucket_kvD0Ev, symObjAddr: 0x59F0, symBinAddr: 0x43FE0, symSize: 0x10 }
  - { offset: 0x1DB35C, size: 0x8, addend: 0x0, symName: __ZN23llm_graph_input_out_idsD1Ev, symObjAddr: 0x5A00, symBinAddr: 0x43FF0, symSize: 0x10 }
  - { offset: 0x1DB385, size: 0x8, addend: 0x0, symName: __ZN23llm_graph_input_out_idsD0Ev, symObjAddr: 0x5A10, symBinAddr: 0x44000, symSize: 0x10 }
  - { offset: 0x1DB3AE, size: 0x8, addend: 0x0, symName: __ZN20llm_graph_input_meanD1Ev, symObjAddr: 0x5A20, symBinAddr: 0x44010, symSize: 0x10 }
  - { offset: 0x1DB3D7, size: 0x8, addend: 0x0, symName: __ZN20llm_graph_input_meanD0Ev, symObjAddr: 0x5A30, symBinAddr: 0x44020, symSize: 0x10 }
  - { offset: 0x1DB400, size: 0x8, addend: 0x0, symName: __ZN19llm_graph_input_clsD1Ev, symObjAddr: 0x5A40, symBinAddr: 0x44030, symSize: 0x10 }
  - { offset: 0x1DB429, size: 0x8, addend: 0x0, symName: __ZN19llm_graph_input_clsD0Ev, symObjAddr: 0x5A50, symBinAddr: 0x44040, symSize: 0x10 }
  - { offset: 0x1DB452, size: 0x8, addend: 0x0, symName: __ZN18llm_graph_input_rsD1Ev, symObjAddr: 0x5A60, symBinAddr: 0x44050, symSize: 0x10 }
  - { offset: 0x1DB47B, size: 0x8, addend: 0x0, symName: __ZN18llm_graph_input_rsD0Ev, symObjAddr: 0x5A70, symBinAddr: 0x44060, symSize: 0x10 }
  - { offset: 0x1DB4A4, size: 0x8, addend: 0x0, symName: __ZN26llm_graph_input_cross_embdD1Ev, symObjAddr: 0x5A80, symBinAddr: 0x44070, symSize: 0x10 }
  - { offset: 0x1DB4CD, size: 0x8, addend: 0x0, symName: __ZN26llm_graph_input_cross_embdD0Ev, symObjAddr: 0x5A90, symBinAddr: 0x44080, symSize: 0x10 }
  - { offset: 0x1DB4F6, size: 0x8, addend: 0x0, symName: __ZN29llm_graph_input_attn_no_cacheD1Ev, symObjAddr: 0x5AA0, symBinAddr: 0x44090, symSize: 0x10 }
  - { offset: 0x1DB51F, size: 0x8, addend: 0x0, symName: __ZN29llm_graph_input_attn_no_cacheD0Ev, symObjAddr: 0x5AB0, symBinAddr: 0x440A0, symSize: 0x10 }
  - { offset: 0x1DB548, size: 0x8, addend: 0x0, symName: __ZN31llm_graph_input_attn_kv_unifiedD1Ev, symObjAddr: 0x5AC0, symBinAddr: 0x440B0, symSize: 0x10 }
  - { offset: 0x1DB571, size: 0x8, addend: 0x0, symName: __ZN31llm_graph_input_attn_kv_unifiedD0Ev, symObjAddr: 0x5AD0, symBinAddr: 0x440C0, symSize: 0x10 }
  - { offset: 0x1DB59A, size: 0x8, addend: 0x0, symName: __ZN36llm_graph_input_attn_kv_unified_iswaD1Ev, symObjAddr: 0x5AE0, symBinAddr: 0x440D0, symSize: 0x10 }
  - { offset: 0x1DB5C3, size: 0x8, addend: 0x0, symName: __ZN36llm_graph_input_attn_kv_unified_iswaD0Ev, symObjAddr: 0x5AF0, symBinAddr: 0x440E0, symSize: 0x10 }
  - { offset: 0x1DB5EC, size: 0x8, addend: 0x0, symName: __ZN26llm_graph_input_attn_crossD1Ev, symObjAddr: 0x5B00, symBinAddr: 0x440F0, symSize: 0x10 }
  - { offset: 0x1DB615, size: 0x8, addend: 0x0, symName: __ZN26llm_graph_input_attn_crossD0Ev, symObjAddr: 0x5B10, symBinAddr: 0x44100, symSize: 0x10 }
  - { offset: 0x1DB658, size: 0x8, addend: 0x0, symName: __ZN26llm_graph_input_mem_hybridD1Ev, symObjAddr: 0x5B20, symBinAddr: 0x44110, symSize: 0x50 }
  - { offset: 0x1DB7E1, size: 0x8, addend: 0x0, symName: __ZN26llm_graph_input_mem_hybridD0Ev, symObjAddr: 0x5B70, symBinAddr: 0x44160, symSize: 0x50 }
  - { offset: 0x1DB97A, size: 0x8, addend: 0x0, symName: __ZN20llm_graph_input_embdD1Ev, symObjAddr: 0x5BC0, symBinAddr: 0x441B0, symSize: 0x10 }
  - { offset: 0x1DB9A3, size: 0x8, addend: 0x0, symName: __ZN20llm_graph_input_embdD0Ev, symObjAddr: 0x5BD0, symBinAddr: 0x441C0, symSize: 0x10 }
  - { offset: 0x1DBA73, size: 0x8, addend: 0x0, symName: __ZN17llm_graph_contextD1Ev, symObjAddr: 0x5BE0, symBinAddr: 0x441D0, symSize: 0x40 }
  - { offset: 0x1DBB62, size: 0x8, addend: 0x0, symName: __ZN17llm_graph_contextD0Ev, symObjAddr: 0x5C20, symBinAddr: 0x44210, symSize: 0x50 }
  - { offset: 0x1DBF5B, size: 0x8, addend: 0x0, symName: __ZNKSt3__16vectorINS_10unique_ptrI17llm_graph_input_iNS_14default_deleteIS2_EEEENS_9allocatorIS5_EEE20__throw_length_errorB8ne180100Ev, symObjAddr: 0x5E90, symBinAddr: 0x44480, symSize: 0x10 }
  - { offset: 0x1DC0A1, size: 0x8, addend: 0x0, symName: __ZN16llm_graph_resultD1Ev, symObjAddr: 0x5F60, symBinAddr: 0x44490, symSize: 0x90 }
  - { offset: 0x1DC2C6, size: 0x8, addend: 0x0, symName: __ZN16llm_graph_resultD0Ev, symObjAddr: 0x5FF0, symBinAddr: 0x44520, symSize: 0x90 }
  - { offset: 0x1DC515, size: 0x8, addend: 0x0, symName: __ZN16llm_graph_result10get_tokensEv, symObjAddr: 0x6080, symBinAddr: 0x445B0, symSize: 0x10 }
  - { offset: 0x1DC53A, size: 0x8, addend: 0x0, symName: __ZN16llm_graph_result10get_logitsEv, symObjAddr: 0x6090, symBinAddr: 0x445C0, symSize: 0x10 }
  - { offset: 0x1DC55F, size: 0x8, addend: 0x0, symName: __ZN16llm_graph_result8get_embdEv, symObjAddr: 0x60A0, symBinAddr: 0x445D0, symSize: 0x10 }
  - { offset: 0x1DC584, size: 0x8, addend: 0x0, symName: __ZN16llm_graph_result15get_embd_pooledEv, symObjAddr: 0x60B0, symBinAddr: 0x445E0, symSize: 0x10 }
  - { offset: 0x1DC60F, size: 0x8, addend: 0x0, symName: __ZN16llm_graph_result10set_inputsEPK12llama_ubatch, symObjAddr: 0x60C0, symBinAddr: 0x445F0, symSize: 0x40 }
  - { offset: 0x1DC7A3, size: 0x8, addend: 0x0, symName: __ZNSt3__117bad_function_callD1Ev, symObjAddr: 0x6140, symBinAddr: 0x44670, symSize: 0x10 }
  - { offset: 0x1DC7F9, size: 0x8, addend: 0x0, symName: __ZNSt3__117bad_function_callD0Ev, symObjAddr: 0x6150, symBinAddr: 0x44680, symSize: 0x20 }
  - { offset: 0x1DC85C, size: 0x8, addend: 0x0, symName: __ZNSt3__110__function6__funcIPFP11ggml_tensorP12ggml_contextS3_S3_ENS_9allocatorIS7_EES6_ED1Ev, symObjAddr: 0x6170, symBinAddr: 0x446A0, symSize: 0x10 }
  - { offset: 0x1DC887, size: 0x8, addend: 0x0, symName: __ZNSt3__110__function6__funcIPFP11ggml_tensorP12ggml_contextS3_S3_ENS_9allocatorIS7_EES6_ED0Ev, symObjAddr: 0x6180, symBinAddr: 0x446B0, symSize: 0x10 }
  - { offset: 0x1DCA8A, size: 0x8, addend: 0x0, symName: __ZNKSt3__110__function6__funcIPFP11ggml_tensorP12ggml_contextS3_S3_ENS_9allocatorIS7_EES6_E7__cloneEv, symObjAddr: 0x6190, symBinAddr: 0x446C0, symSize: 0x30 }
  - { offset: 0x1DCDAF, size: 0x8, addend: 0x0, symName: __ZNKSt3__110__function6__funcIPFP11ggml_tensorP12ggml_contextS3_S3_ENS_9allocatorIS7_EES6_E7__cloneEPNS0_6__baseIS6_EE, symObjAddr: 0x61C0, symBinAddr: 0x446F0, symSize: 0x20 }
  - { offset: 0x1DCF2B, size: 0x8, addend: 0x0, symName: __ZNSt3__110__function6__funcIPFP11ggml_tensorP12ggml_contextS3_S3_ENS_9allocatorIS7_EES6_E7destroyEv, symObjAddr: 0x61E0, symBinAddr: 0x44710, symSize: 0x10 }
  - { offset: 0x1DCF7E, size: 0x8, addend: 0x0, symName: __ZNSt3__110__function6__funcIPFP11ggml_tensorP12ggml_contextS3_S3_ENS_9allocatorIS7_EES6_E18destroy_deallocateEv, symObjAddr: 0x61F0, symBinAddr: 0x44720, symSize: 0x10 }
  - { offset: 0x1DD0DB, size: 0x8, addend: 0x0, symName: __ZNSt3__110__function6__funcIPFP11ggml_tensorP12ggml_contextS3_S3_ENS_9allocatorIS7_EES6_EclEOS5_OS3_SC_, symObjAddr: 0x6200, symBinAddr: 0x44730, symSize: 0x20 }
  - { offset: 0x1DD22D, size: 0x8, addend: 0x0, symName: __ZNKSt3__110__function6__funcIPFP11ggml_tensorP12ggml_contextS3_S3_ENS_9allocatorIS7_EES6_E6targetERKSt9type_info, symObjAddr: 0x6220, symBinAddr: 0x44750, symSize: 0x20 }
  - { offset: 0x1DD29D, size: 0x8, addend: 0x0, symName: __ZNKSt3__110__function6__funcIPFP11ggml_tensorP12ggml_contextS3_S3_ENS_9allocatorIS7_EES6_E11target_typeEv, symObjAddr: 0x6240, symBinAddr: 0x44770, symSize: 0xD }
  - { offset: 0x1DF226, size: 0x8, addend: 0x0, symName: __ZN13llama_hparams15set_swa_patternEj, symObjAddr: 0x0, symBinAddr: 0x44780, symSize: 0xA0 }
  - { offset: 0x1E0B96, size: 0x8, addend: 0x0, symName: __ZN13llama_hparams15set_swa_patternEj, symObjAddr: 0x0, symBinAddr: 0x44780, symSize: 0xA0 }
  - { offset: 0x1E0BED, size: 0x8, addend: 0x0, symName: __ZNK13llama_hparams10is_swa_anyEv, symObjAddr: 0xA0, symBinAddr: 0x44820, symSize: 0x60 }
  - { offset: 0x1E0C2A, size: 0x8, addend: 0x0, symName: __ZNK13llama_hparams6n_headEj, symObjAddr: 0x100, symBinAddr: 0x44880, symSize: 0x30 }
  - { offset: 0x1E0C88, size: 0x8, addend: 0x0, symName: __ZNK13llama_hparams9n_head_kvEj, symObjAddr: 0x130, symBinAddr: 0x448B0, symSize: 0x30 }
  - { offset: 0x1E0CC7, size: 0x8, addend: 0x0, symName: __ZNK13llama_hparams4n_ffEj, symObjAddr: 0x160, symBinAddr: 0x448E0, symSize: 0x30 }
  - { offset: 0x1E0D5E, size: 0x8, addend: 0x0, symName: __ZNK13llama_hparams5n_gqaEj, symObjAddr: 0x190, symBinAddr: 0x44910, symSize: 0x40 }
  - { offset: 0x1E0E05, size: 0x8, addend: 0x0, symName: __ZNK13llama_hparams12n_embd_k_gqaEj, symObjAddr: 0x1D0, symBinAddr: 0x44950, symSize: 0x40 }
  - { offset: 0x1E0E7C, size: 0x8, addend: 0x0, symName: __ZNK13llama_hparams12n_embd_v_gqaEj, symObjAddr: 0x210, symBinAddr: 0x44990, symSize: 0x40 }
  - { offset: 0x1E0EF3, size: 0x8, addend: 0x0, symName: __ZNK13llama_hparams8n_embd_rEv, symObjAddr: 0x250, symBinAddr: 0x449D0, symSize: 0x50 }
  - { offset: 0x1E0F1A, size: 0x8, addend: 0x0, symName: __ZNK13llama_hparams8n_embd_sEv, symObjAddr: 0x2A0, symBinAddr: 0x44A20, symSize: 0x30 }
  - { offset: 0x1E0F43, size: 0x8, addend: 0x0, symName: __ZNK13llama_hparams12is_recurrentEj, symObjAddr: 0x2D0, symBinAddr: 0x44A50, symSize: 0x10 }
  - { offset: 0x1E0F78, size: 0x8, addend: 0x0, symName: __ZNK13llama_hparams14n_pos_per_embdEv, symObjAddr: 0x2E0, symBinAddr: 0x44A60, symSize: 0x20 }
  - { offset: 0x1E0F9F, size: 0x8, addend: 0x0, symName: __ZNK13llama_hparams6is_swaEj, symObjAddr: 0x300, symBinAddr: 0x44A80, symSize: 0x2F }
  - { offset: 0x1E2ACE, size: 0x8, addend: 0x0, symName: __ZL14g_logger_state.0, symObjAddr: 0x17A0, symBinAddr: 0x2843A0, symSize: 0x0 }
  - { offset: 0x1E2AD9, size: 0x8, addend: 0x0, symName: __ZL14g_logger_state.1, symObjAddr: 0x32F18, symBinAddr: 0x2F3C88, symSize: 0x0 }
  - { offset: 0x1EA1D0, size: 0x8, addend: 0x0, symName: __ZN9time_measC2ERxb, symObjAddr: 0x0, symBinAddr: 0x44AB0, symSize: 0x30 }
  - { offset: 0x1EA256, size: 0x8, addend: 0x0, symName: __ZN9time_measC1ERxb, symObjAddr: 0x30, symBinAddr: 0x44AE0, symSize: 0x30 }
  - { offset: 0x1EA2DB, size: 0x8, addend: 0x0, symName: __ZN9time_measD2Ev, symObjAddr: 0x60, symBinAddr: 0x44B10, symSize: 0x30 }
  - { offset: 0x1EA327, size: 0x8, addend: 0x0, symName: __ZN9time_measD1Ev, symObjAddr: 0xA0, symBinAddr: 0x44B40, symSize: 0x30 }
  - { offset: 0x1EA379, size: 0x8, addend: 0x0, symName: _llama_log_set, symObjAddr: 0xD0, symBinAddr: 0x44B70, symSize: 0x40 }
  - { offset: 0x1EA3DD, size: 0x8, addend: 0x0, symName: __Z26llama_log_callback_default14ggml_log_levelPKcPv, symObjAddr: 0x110, symBinAddr: 0x44BB0, symSize: 0x30 }
  - { offset: 0x1EA669, size: 0x8, addend: 0x0, symName: __Z18llama_log_internal14ggml_log_levelPKcz, symObjAddr: 0x140, symBinAddr: 0x44BE0, symSize: 0x170 }
  - { offset: 0x1EAADB, size: 0x8, addend: 0x0, symName: __Z11replace_allRNSt3__112basic_stringIcNS_11char_traitsIcEENS_9allocatorIcEEEERKS5_S8_, symObjAddr: 0x2B0, symBinAddr: 0x44D50, symSize: 0x240 }
  - { offset: 0x1EB5D8, size: 0x8, addend: 0x0, symName: __Z6formatPKcz, symObjAddr: 0x4F0, symBinAddr: 0x44F90, symSize: 0x200 }
  - { offset: 0x1EBE70, size: 0x8, addend: 0x0, symName: __Z25llama_format_tensor_shapeRKNSt3__16vectorIxNS_9allocatorIxEEEE, symObjAddr: 0x6F0, symBinAddr: 0x45190, symSize: 0x190 }
  - { offset: 0x1EC3E1, size: 0x8, addend: 0x0, symName: __ZNKSt3__16vectorIxNS_9allocatorIxEEE20__throw_out_of_rangeB8ne180100Ev, symObjAddr: 0x1310, symBinAddr: 0x45B70, symSize: 0x10 }
  - { offset: 0x1EC439, size: 0x8, addend: 0x0, symName: __Z25llama_format_tensor_shapePK11ggml_tensor, symObjAddr: 0x880, symBinAddr: 0x45320, symSize: 0x180 }
  - { offset: 0x1ECAE3, size: 0x8, addend: 0x0, symName: __Z14gguf_kv_to_strPK12gguf_contexti, symObjAddr: 0xA00, symBinAddr: 0x454A0, symSize: 0x580 }
  - { offset: 0x1EE58C, size: 0x8, addend: 0x0, symName: __ZL16gguf_data_to_str9gguf_typePKvi, symObjAddr: 0x10B0, symBinAddr: 0x45A20, symSize: 0x150 }
  - { offset: 0x1F0E5F, size: 0x8, addend: 0x0, symName: __ZN16llama_io_write_i12write_stringERKNSt3__112basic_stringIcNS0_11char_traitsIcEENS0_9allocatorIcEEEE, symObjAddr: 0x0, symBinAddr: 0x45B80, symSize: 0x60 }
  - { offset: 0x1F390A, size: 0x8, addend: 0x0, symName: __ZN16llama_io_write_i12write_stringERKNSt3__112basic_stringIcNS0_11char_traitsIcEENS0_9allocatorIcEEEE, symObjAddr: 0x0, symBinAddr: 0x45B80, symSize: 0x60 }
  - { offset: 0x1F3A1E, size: 0x8, addend: 0x0, symName: __ZN15llama_io_read_i11read_stringERNSt3__112basic_stringIcNS0_11char_traitsIcEENS0_9allocatorIcEEEE, symObjAddr: 0x60, symBinAddr: 0x45BE0, symSize: 0x43 }
  - { offset: 0x1F596B, size: 0x8, addend: 0x0, symName: __ZN27llama_kv_cache_unified_iswaC2ERK11llama_model9ggml_typeS3_bbbjjjj, symObjAddr: 0x0, symBinAddr: 0x45C30, symSize: 0x380 }
  - { offset: 0x210827, size: 0x8, addend: 0x0, symName: __ZNSt3__111make_uniqueB8ne180100I35llama_kv_cache_unified_iswa_contextJP27llama_kv_cache_unified_iswaNS_6vectorIN22llama_kv_cache_unified9slot_infoENS_9allocatorIS6_EEEES9_NS4_I12llama_ubatchNS7_ISA_EEEEEEENS_11__unique_ifIT_E15__unique_singleEDpOT0_, symObjAddr: 0xCD0, symBinAddr: 0x46900, symSize: 0x180 }
  - { offset: 0x217663, size: 0x8, addend: 0x0, symName: __ZN27llama_kv_cache_unified_iswaC1ERK11llama_model9ggml_typeS3_bbbjjjj, symObjAddr: 0x380, symBinAddr: 0x45FB0, symSize: 0x10 }
  - { offset: 0x218686, size: 0x8, addend: 0x0, symName: __ZN27llama_kv_cache_unified_iswaC2ERK11llama_model9ggml_typeS3_bbbjjjj, symObjAddr: 0x0, symBinAddr: 0x45C30, symSize: 0x380 }
  - { offset: 0x218F71, size: 0x8, addend: 0x0, symName: __ZN27llama_kv_cache_unified_iswa5clearEb, symObjAddr: 0x390, symBinAddr: 0x45FC0, symSize: 0x30 }
  - { offset: 0x219005, size: 0x8, addend: 0x0, symName: __ZN27llama_kv_cache_unified_iswa6seq_rmEiii, symObjAddr: 0x3C0, symBinAddr: 0x45FF0, symSize: 0x50 }
  - { offset: 0x2190E8, size: 0x8, addend: 0x0, symName: __ZN27llama_kv_cache_unified_iswa6seq_cpEiiii, symObjAddr: 0x410, symBinAddr: 0x46040, symSize: 0x50 }
  - { offset: 0x2191BE, size: 0x8, addend: 0x0, symName: __ZN27llama_kv_cache_unified_iswa8seq_keepEi, symObjAddr: 0x460, symBinAddr: 0x46090, symSize: 0x30 }
  - { offset: 0x219252, size: 0x8, addend: 0x0, symName: __ZN27llama_kv_cache_unified_iswa7seq_addEiiii, symObjAddr: 0x490, symBinAddr: 0x460C0, symSize: 0x50 }
  - { offset: 0x219328, size: 0x8, addend: 0x0, symName: __ZN27llama_kv_cache_unified_iswa7seq_divEiiii, symObjAddr: 0x4E0, symBinAddr: 0x46110, symSize: 0x50 }
  - { offset: 0x2193FE, size: 0x8, addend: 0x0, symName: __ZNK27llama_kv_cache_unified_iswa11seq_pos_minEi, symObjAddr: 0x530, symBinAddr: 0x46160, symSize: 0x20 }
  - { offset: 0x219467, size: 0x8, addend: 0x0, symName: __ZNK27llama_kv_cache_unified_iswa11seq_pos_maxEi, symObjAddr: 0x550, symBinAddr: 0x46180, symSize: 0x20 }
  - { offset: 0x219DC4, size: 0x8, addend: 0x0, symName: __ZN27llama_kv_cache_unified_iswa10init_batchER18llama_batch_allocrjb, symObjAddr: 0x570, symBinAddr: 0x461A0, symSize: 0x760 }
  - { offset: 0x21BD57, size: 0x8, addend: 0x0, symName: __ZNKSt3__16vectorI12llama_ubatchNS_9allocatorIS1_EEE20__throw_length_errorB8ne180100Ev, symObjAddr: 0x1B80, symBinAddr: 0x47770, symSize: 0x10 }
  - { offset: 0x21BD8C, size: 0x8, addend: 0x0, symName: __ZNSt3__16vectorIN22llama_kv_cache_unified9slot_infoENS_9allocatorIS2_EEED1B8ne180100Ev, symObjAddr: 0xE50, symBinAddr: 0x46A80, symSize: 0x70 }
  - { offset: 0x21C242, size: 0x8, addend: 0x0, symName: __ZN35llama_kv_cache_unified_iswa_contextC2EP27llama_kv_cache_unified_iswaNSt3__16vectorIN22llama_kv_cache_unified9slot_infoENS2_9allocatorIS5_EEEES8_NS3_I12llama_ubatchNS6_IS9_EEEE, symObjAddr: 0x12C0, symBinAddr: 0x46EF0, symSize: 0x420 }
  - { offset: 0x21D71F, size: 0x8, addend: 0x0, symName: __ZN27llama_kv_cache_unified_iswa9init_fullEv, symObjAddr: 0xEC0, symBinAddr: 0x46AF0, symSize: 0x50 }
  - { offset: 0x21D81A, size: 0x8, addend: 0x0, symName: __ZN35llama_kv_cache_unified_iswa_contextC2EP27llama_kv_cache_unified_iswa, symObjAddr: 0x10A0, symBinAddr: 0x46CD0, symSize: 0x100 }
  - { offset: 0x21DBF5, size: 0x8, addend: 0x0, symName: __ZN27llama_kv_cache_unified_iswa11init_updateEP13llama_contextb, symObjAddr: 0xF10, symBinAddr: 0x46B40, symSize: 0x60 }
  - { offset: 0x21DD21, size: 0x8, addend: 0x0, symName: __ZN35llama_kv_cache_unified_iswa_contextC2EP27llama_kv_cache_unified_iswaP13llama_contextb, symObjAddr: 0x11B0, symBinAddr: 0x46DE0, symSize: 0x100 }
  - { offset: 0x21E0F5, size: 0x8, addend: 0x0, symName: __ZNK27llama_kv_cache_unified_iswa13get_can_shiftEv, symObjAddr: 0xF70, symBinAddr: 0x46BA0, symSize: 0x30 }
  - { offset: 0x21E15A, size: 0x8, addend: 0x0, symName: __ZNK27llama_kv_cache_unified_iswa11state_writeER16llama_io_write_ii, symObjAddr: 0xFA0, symBinAddr: 0x46BD0, symSize: 0x40 }
  - { offset: 0x21E204, size: 0x8, addend: 0x0, symName: __ZN27llama_kv_cache_unified_iswa10state_readER15llama_io_read_ii, symObjAddr: 0xFE0, symBinAddr: 0x46C10, symSize: 0x40 }
  - { offset: 0x21E2C4, size: 0x8, addend: 0x0, symName: __ZNK27llama_kv_cache_unified_iswa8get_baseEv, symObjAddr: 0x1020, symBinAddr: 0x46C50, symSize: 0x10 }
  - { offset: 0x21E302, size: 0x8, addend: 0x0, symName: __ZNK27llama_kv_cache_unified_iswa7get_swaEv, symObjAddr: 0x1030, symBinAddr: 0x46C60, symSize: 0x10 }
  - { offset: 0x21E340, size: 0x8, addend: 0x0, symName: __ZN35llama_kv_cache_unified_iswa_contextC2E19llama_memory_status, symObjAddr: 0x1040, symBinAddr: 0x46C70, symSize: 0x30 }
  - { offset: 0x21E3A4, size: 0x8, addend: 0x0, symName: __ZN35llama_kv_cache_unified_iswa_contextC1E19llama_memory_status, symObjAddr: 0x1070, symBinAddr: 0x46CA0, symSize: 0x30 }
  - { offset: 0x21E51D, size: 0x8, addend: 0x0, symName: __ZN35llama_kv_cache_unified_iswa_contextC1EP27llama_kv_cache_unified_iswa, symObjAddr: 0x11A0, symBinAddr: 0x46DD0, symSize: 0x10 }
  - { offset: 0x21E561, size: 0x8, addend: 0x0, symName: __ZN35llama_kv_cache_unified_iswa_contextC1EP27llama_kv_cache_unified_iswaP13llama_contextb, symObjAddr: 0x12B0, symBinAddr: 0x46EE0, symSize: 0x10 }
  - { offset: 0x21E8C0, size: 0x8, addend: 0x0, symName: __ZN35llama_kv_cache_unified_iswa_contextC1EP27llama_kv_cache_unified_iswaNSt3__16vectorIN22llama_kv_cache_unified9slot_infoENS2_9allocatorIS5_EEEES8_NS3_I12llama_ubatchNS6_IS9_EEEE, symObjAddr: 0x16E0, symBinAddr: 0x47310, symSize: 0x10 }
  - { offset: 0x21E931, size: 0x8, addend: 0x0, symName: __ZN35llama_kv_cache_unified_iswa_contextD2Ev, symObjAddr: 0x16F0, symBinAddr: 0x47320, symSize: 0x60 }
  - { offset: 0x21EBBE, size: 0x8, addend: 0x0, symName: __ZN35llama_kv_cache_unified_iswa_contextD1Ev, symObjAddr: 0x1750, symBinAddr: 0x47380, symSize: 0x60 }
  - { offset: 0x21EE69, size: 0x8, addend: 0x0, symName: __ZN35llama_kv_cache_unified_iswa_contextD0Ev, symObjAddr: 0x17B0, symBinAddr: 0x473E0, symSize: 0x70 }
  - { offset: 0x21F129, size: 0x8, addend: 0x0, symName: __ZN35llama_kv_cache_unified_iswa_context4nextEv, symObjAddr: 0x1820, symBinAddr: 0x47450, symSize: 0x50 }
  - { offset: 0x21F1BD, size: 0x8, addend: 0x0, symName: __ZN35llama_kv_cache_unified_iswa_context5applyEv, symObjAddr: 0x1870, symBinAddr: 0x474A0, symSize: 0x30 }
  - { offset: 0x21F24E, size: 0x8, addend: 0x0, symName: __ZNK35llama_kv_cache_unified_iswa_context10get_statusEv, symObjAddr: 0x18A0, symBinAddr: 0x474D0, symSize: 0x10 }
  - { offset: 0x21F29A, size: 0x8, addend: 0x0, symName: __ZNK35llama_kv_cache_unified_iswa_context10get_ubatchEv, symObjAddr: 0x18B0, symBinAddr: 0x474E0, symSize: 0x10 }
  - { offset: 0x21F2F7, size: 0x8, addend: 0x0, symName: __ZNK35llama_kv_cache_unified_iswa_context8get_baseEv, symObjAddr: 0x18C0, symBinAddr: 0x474F0, symSize: 0x10 }
  - { offset: 0x21F33E, size: 0x8, addend: 0x0, symName: __ZNK35llama_kv_cache_unified_iswa_context7get_swaEv, symObjAddr: 0x18D0, symBinAddr: 0x47500, symSize: 0x10 }
  - { offset: 0x21F39F, size: 0x8, addend: 0x0, symName: __ZN27llama_kv_cache_unified_iswaD1Ev, symObjAddr: 0x18E0, symBinAddr: 0x47510, symSize: 0x50 }
  - { offset: 0x21F525, size: 0x8, addend: 0x0, symName: __ZN27llama_kv_cache_unified_iswaD0Ev, symObjAddr: 0x1930, symBinAddr: 0x47560, symSize: 0x50 }
  - { offset: 0x21F6BA, size: 0x8, addend: 0x0, symName: '__ZNSt3__110__function6__funcIZN27llama_kv_cache_unified_iswaC1ERK11llama_model9ggml_typeS6_bbbjjjjE3$_0NS_9allocatorIS7_EEFbiEED1Ev', symObjAddr: 0x1980, symBinAddr: 0x475B0, symSize: 0x10 }
  - { offset: 0x21F6E3, size: 0x8, addend: 0x0, symName: '__ZNSt3__110__function6__funcIZN27llama_kv_cache_unified_iswaC1ERK11llama_model9ggml_typeS6_bbbjjjjE3$_0NS_9allocatorIS7_EEFbiEED0Ev', symObjAddr: 0x1990, symBinAddr: 0x475C0, symSize: 0x10 }
  - { offset: 0x21F8E6, size: 0x8, addend: 0x0, symName: '__ZNKSt3__110__function6__funcIZN27llama_kv_cache_unified_iswaC1ERK11llama_model9ggml_typeS6_bbbjjjjE3$_0NS_9allocatorIS7_EEFbiEE7__cloneEv', symObjAddr: 0x19A0, symBinAddr: 0x475D0, symSize: 0x30 }
  - { offset: 0x21FBCC, size: 0x8, addend: 0x0, symName: '__ZNKSt3__110__function6__funcIZN27llama_kv_cache_unified_iswaC1ERK11llama_model9ggml_typeS6_bbbjjjjE3$_0NS_9allocatorIS7_EEFbiEE7__cloneEPNS0_6__baseISA_EE', symObjAddr: 0x19D0, symBinAddr: 0x47600, symSize: 0x20 }
  - { offset: 0x21FCD3, size: 0x8, addend: 0x0, symName: '__ZNSt3__110__function6__funcIZN27llama_kv_cache_unified_iswaC1ERK11llama_model9ggml_typeS6_bbbjjjjE3$_0NS_9allocatorIS7_EEFbiEE7destroyEv', symObjAddr: 0x19F0, symBinAddr: 0x47620, symSize: 0x10 }
  - { offset: 0x21FD24, size: 0x8, addend: 0x0, symName: '__ZNSt3__110__function6__funcIZN27llama_kv_cache_unified_iswaC1ERK11llama_model9ggml_typeS6_bbbjjjjE3$_0NS_9allocatorIS7_EEFbiEE18destroy_deallocateEv', symObjAddr: 0x1A00, symBinAddr: 0x47630, symSize: 0x10 }
  - { offset: 0x21FE73, size: 0x8, addend: 0x0, symName: '__ZNSt3__110__function6__funcIZN27llama_kv_cache_unified_iswaC1ERK11llama_model9ggml_typeS6_bbbjjjjE3$_0NS_9allocatorIS7_EEFbiEEclEOi', symObjAddr: 0x1A10, symBinAddr: 0x47640, symSize: 0x20 }
  - { offset: 0x21FF52, size: 0x8, addend: 0x0, symName: '__ZNKSt3__110__function6__funcIZN27llama_kv_cache_unified_iswaC1ERK11llama_model9ggml_typeS6_bbbjjjjE3$_0NS_9allocatorIS7_EEFbiEE6targetERKSt9type_info', symObjAddr: 0x1A30, symBinAddr: 0x47660, symSize: 0x20 }
  - { offset: 0x21FFC4, size: 0x8, addend: 0x0, symName: '__ZNKSt3__110__function6__funcIZN27llama_kv_cache_unified_iswaC1ERK11llama_model9ggml_typeS6_bbbjjjjE3$_0NS_9allocatorIS7_EEFbiEE11target_typeEv', symObjAddr: 0x1A50, symBinAddr: 0x47680, symSize: 0x10 }
  - { offset: 0x21FFE9, size: 0x8, addend: 0x0, symName: '__ZNSt3__110__function6__funcIZN27llama_kv_cache_unified_iswaC1ERK11llama_model9ggml_typeS6_bbbjjjjE3$_1NS_9allocatorIS7_EEFbiEED1Ev', symObjAddr: 0x1AA0, symBinAddr: 0x47690, symSize: 0x10 }
  - { offset: 0x220012, size: 0x8, addend: 0x0, symName: '__ZNSt3__110__function6__funcIZN27llama_kv_cache_unified_iswaC1ERK11llama_model9ggml_typeS6_bbbjjjjE3$_1NS_9allocatorIS7_EEFbiEED0Ev', symObjAddr: 0x1AB0, symBinAddr: 0x476A0, symSize: 0x10 }
  - { offset: 0x220215, size: 0x8, addend: 0x0, symName: '__ZNKSt3__110__function6__funcIZN27llama_kv_cache_unified_iswaC1ERK11llama_model9ggml_typeS6_bbbjjjjE3$_1NS_9allocatorIS7_EEFbiEE7__cloneEv', symObjAddr: 0x1AC0, symBinAddr: 0x476B0, symSize: 0x30 }
  - { offset: 0x2204FB, size: 0x8, addend: 0x0, symName: '__ZNKSt3__110__function6__funcIZN27llama_kv_cache_unified_iswaC1ERK11llama_model9ggml_typeS6_bbbjjjjE3$_1NS_9allocatorIS7_EEFbiEE7__cloneEPNS0_6__baseISA_EE', symObjAddr: 0x1AF0, symBinAddr: 0x476E0, symSize: 0x20 }
  - { offset: 0x220602, size: 0x8, addend: 0x0, symName: '__ZNSt3__110__function6__funcIZN27llama_kv_cache_unified_iswaC1ERK11llama_model9ggml_typeS6_bbbjjjjE3$_1NS_9allocatorIS7_EEFbiEE7destroyEv', symObjAddr: 0x1B10, symBinAddr: 0x47700, symSize: 0x10 }
  - { offset: 0x220653, size: 0x8, addend: 0x0, symName: '__ZNSt3__110__function6__funcIZN27llama_kv_cache_unified_iswaC1ERK11llama_model9ggml_typeS6_bbbjjjjE3$_1NS_9allocatorIS7_EEFbiEE18destroy_deallocateEv', symObjAddr: 0x1B20, symBinAddr: 0x47710, symSize: 0x10 }
  - { offset: 0x2207A2, size: 0x8, addend: 0x0, symName: '__ZNSt3__110__function6__funcIZN27llama_kv_cache_unified_iswaC1ERK11llama_model9ggml_typeS6_bbbjjjjE3$_1NS_9allocatorIS7_EEFbiEEclEOi', symObjAddr: 0x1B30, symBinAddr: 0x47720, symSize: 0x20 }
  - { offset: 0x22083A, size: 0x8, addend: 0x0, symName: '__ZNKSt3__110__function6__funcIZN27llama_kv_cache_unified_iswaC1ERK11llama_model9ggml_typeS6_bbbjjjjE3$_1NS_9allocatorIS7_EEFbiEE6targetERKSt9type_info', symObjAddr: 0x1B50, symBinAddr: 0x47740, symSize: 0x20 }
  - { offset: 0x2208AC, size: 0x8, addend: 0x0, symName: '__ZNKSt3__110__function6__funcIZN27llama_kv_cache_unified_iswaC1ERK11llama_model9ggml_typeS6_bbbjjjjE3$_1NS_9allocatorIS7_EEFbiEE11target_typeEv', symObjAddr: 0x1B70, symBinAddr: 0x47760, symSize: 0x10 }
  - { offset: 0x24E0A7, size: 0x8, addend: 0x0, symName: __ZNSt3__113__tree_removeB8ne180100IPNS_16__tree_node_baseIPvEEEEvT_S5_, symObjAddr: 0xA410, symBinAddr: 0x51420, symSize: 0x3B0 }
  - { offset: 0x2578F1, size: 0x8, addend: 0x0, symName: __ZN22llama_kv_cache_unified7prepareERKNSt3__16vectorI12llama_ubatchNS0_9allocatorIS2_EEEE, symObjAddr: 0x2320, symBinAddr: 0x49AA0, symSize: 0xCF0 }
  - { offset: 0x25A624, size: 0x8, addend: 0x0, symName: __ZN22llama_kv_cache_unifiedC2ERK11llama_modelONSt3__18functionIFbiEEE9ggml_typeS8_bbjjjj14llama_swa_type, symObjAddr: 0x0, symBinAddr: 0x47780, symSize: 0xD80 }
  - { offset: 0x25D4DD, size: 0x8, addend: 0x0, symName: __ZN22llama_kv_cells_unifiedC2Ev, symObjAddr: 0x9000, symBinAddr: 0x50710, symSize: 0x570 }
  - { offset: 0x25D6B7, size: 0x8, addend: 0x0, symName: __ZN22llama_kv_cells_unified6resizeEj, symObjAddr: 0xD80, symBinAddr: 0x48500, symSize: 0x140 }
  - { offset: 0x25DFBC, size: 0x8, addend: 0x0, symName: __ZNSt3__112__hash_tableINS_17__hash_value_typeIiiEENS_22__unordered_map_hasherIiS2_NS_4hashIiEENS_8equal_toIiEELb1EEENS_21__unordered_map_equalIiS2_S7_S5_Lb1EEENS_9allocatorIS2_EEE25__emplace_unique_key_argsIiJRKNS_21piecewise_construct_tENS_5tupleIJOiEEENSI_IJEEEEEENS_4pairINS_15__hash_iteratorIPNS_11__hash_nodeIS2_PvEEEEbEERKT_DpOT0_, symObjAddr: 0xB0E0, symBinAddr: 0x51B40, symSize: 0x4A0 }
  - { offset: 0x25ECE0, size: 0x8, addend: 0x0, symName: __ZNKSt3__16vectorIN22llama_kv_cache_unified8kv_layerENS_9allocatorIS2_EEE20__throw_length_errorB8ne180100Ev, symObjAddr: 0xB790, symBinAddr: 0x521F0, symSize: 0x10 }
  - { offset: 0x25ED15, size: 0x8, addend: 0x0, symName: __ZNSt3__113unordered_mapIiiNS_4hashIiEENS_8equal_toIiEENS_9allocatorINS_4pairIKiiEEEEED1B8ne180100Ev, symObjAddr: 0xF60, symBinAddr: 0x486E0, symSize: 0x50 }
  - { offset: 0x25EFDB, size: 0x8, addend: 0x0, symName: __ZN22llama_kv_cells_unifiedD2Ev, symObjAddr: 0x9DF0, symBinAddr: 0x50E80, symSize: 0x520 }
  - { offset: 0x25F9AF, size: 0x8, addend: 0x0, symName: __ZNSt3__16vectorINS_10unique_ptrI19ggml_backend_buffer27ggml_backend_buffer_deleterEENS_9allocatorIS4_EEED1B8ne180100Ev, symObjAddr: 0xFB0, symBinAddr: 0x48730, symSize: 0x80 }
  - { offset: 0x25FB6B, size: 0x8, addend: 0x0, symName: __ZNSt3__16vectorINS_10unique_ptrI12ggml_context20ggml_context_deleterEENS_9allocatorIS4_EEED1B8ne180100Ev, symObjAddr: 0x1030, symBinAddr: 0x487B0, symSize: 0x80 }
  - { offset: 0x260302, size: 0x8, addend: 0x0, symName: __ZNSt3__16vectorINS_6bitsetILm64EEENS_9allocatorIS2_EEE8__appendEm, symObjAddr: 0x9850, symBinAddr: 0x50C80, symSize: 0x200 }
  - { offset: 0x260910, size: 0x8, addend: 0x0, symName: __ZNSt3__16__treeIjNS_4lessIjEENS_9allocatorIjEEE7destroyEPNS_11__tree_nodeIjPvEE, symObjAddr: 0xA350, symBinAddr: 0x513E0, symSize: 0x40 }
  - { offset: 0x260A4A, size: 0x8, addend: 0x0, symName: __ZNSt3__16__treeINS_12__value_typeIiiEENS_19__map_value_compareIiS2_NS_4lessIiEELb1EEENS_9allocatorIS2_EEE7destroyEPNS_11__tree_nodeIS2_PvEE, symObjAddr: 0xA310, symBinAddr: 0x513A0, symSize: 0x40 }
  - { offset: 0x260B86, size: 0x8, addend: 0x0, symName: __ZNK22llama_kv_cache_unified12size_k_bytesEv, symObjAddr: 0xEC0, symBinAddr: 0x48640, symSize: 0x50 }
  - { offset: 0x260C70, size: 0x8, addend: 0x0, symName: __ZNK22llama_kv_cache_unified12size_v_bytesEv, symObjAddr: 0xF10, symBinAddr: 0x48690, symSize: 0x50 }
  - { offset: 0x26129D, size: 0x8, addend: 0x0, symName: __ZN22llama_kv_cache_unifiedC1ERK11llama_modelONSt3__18functionIFbiEEE9ggml_typeS8_bbjjjj14llama_swa_type, symObjAddr: 0x10B0, symBinAddr: 0x48830, symSize: 0x10 }
  - { offset: 0x26140F, size: 0x8, addend: 0x0, symName: __ZN22llama_kv_cache_unified5clearEb, symObjAddr: 0x10C0, symBinAddr: 0x48840, symSize: 0x110 }
  - { offset: 0x261869, size: 0x8, addend: 0x0, symName: __ZN22llama_kv_cache_unified6seq_rmEiii, symObjAddr: 0x11D0, symBinAddr: 0x48950, symSize: 0x1C0 }
  - { offset: 0x261B22, size: 0x8, addend: 0x0, symName: __ZN22llama_kv_cells_unified2rmEj, symObjAddr: 0x1560, symBinAddr: 0x48CE0, symSize: 0xE0 }
  - { offset: 0x261F53, size: 0x8, addend: 0x0, symName: __ZN22llama_kv_cells_unified6seq_rmEji, symObjAddr: 0x1390, symBinAddr: 0x48B10, symSize: 0x1D0 }
  - { offset: 0x262B9E, size: 0x8, addend: 0x0, symName: __ZN22llama_kv_cells_unified10seq_pos_rmEj, symObjAddr: 0xA7C0, symBinAddr: 0x517D0, symSize: 0x100 }
  - { offset: 0x262F5C, size: 0x8, addend: 0x0, symName: __ZN22llama_kv_cache_unified6seq_cpEiiii, symObjAddr: 0x1640, symBinAddr: 0x48DC0, symSize: 0x120 }
  - { offset: 0x2630DE, size: 0x8, addend: 0x0, symName: __ZN22llama_kv_cells_unified7seq_addEji, symObjAddr: 0x1760, symBinAddr: 0x48EE0, symSize: 0x100 }
  - { offset: 0x263944, size: 0x8, addend: 0x0, symName: __ZN22llama_kv_cache_unified8seq_keepEi, symObjAddr: 0x1860, symBinAddr: 0x48FE0, symSize: 0xA0 }
  - { offset: 0x263A64, size: 0x8, addend: 0x0, symName: __ZN22llama_kv_cells_unified8seq_keepEji, symObjAddr: 0x1900, symBinAddr: 0x49080, symSize: 0x200 }
  - { offset: 0x2643AC, size: 0x8, addend: 0x0, symName: __ZN22llama_kv_cache_unified7seq_addEiiii, symObjAddr: 0x1B00, symBinAddr: 0x49280, symSize: 0x180 }
  - { offset: 0x26456A, size: 0x8, addend: 0x0, symName: __ZN22llama_kv_cells_unified7pos_addEji, symObjAddr: 0x1C80, symBinAddr: 0x49400, symSize: 0x100 }
  - { offset: 0x264A0D, size: 0x8, addend: 0x0, symName: __ZN22llama_kv_cells_unified11seq_pos_addEj, symObjAddr: 0xA8C0, symBinAddr: 0x518D0, symSize: 0x110 }
  - { offset: 0x264DBC, size: 0x8, addend: 0x0, symName: __ZN22llama_kv_cache_unified7seq_divEiiii, symObjAddr: 0x1D80, symBinAddr: 0x49500, symSize: 0x180 }
  - { offset: 0x26503B, size: 0x8, addend: 0x0, symName: __ZNK22llama_kv_cache_unified11seq_pos_minEi, symObjAddr: 0x1F00, symBinAddr: 0x49680, symSize: 0x30 }
  - { offset: 0x26517C, size: 0x8, addend: 0x0, symName: __ZNK22llama_kv_cache_unified11seq_pos_maxEi, symObjAddr: 0x1F30, symBinAddr: 0x496B0, symSize: 0x70 }
  - { offset: 0x265AFE, size: 0x8, addend: 0x0, symName: __ZN22llama_kv_cache_unified10init_batchER18llama_batch_allocrjb, symObjAddr: 0x1FA0, symBinAddr: 0x49720, symSize: 0x380 }
  - { offset: 0x2668E1, size: 0x8, addend: 0x0, symName: __ZNSt3__16vectorIN22llama_kv_cache_unified9slot_infoENS_9allocatorIS2_EEE21__push_back_slow_pathIRKS2_EEPS2_OT_, symObjAddr: 0xB9E0, symBinAddr: 0x52200, symSize: 0x230 }
  - { offset: 0x267BC2, size: 0x8, addend: 0x0, symName: __ZNK22llama_kv_cache_unified9find_slotERK12llama_ubatchb, symObjAddr: 0x35A0, symBinAddr: 0x4ACB0, symSize: 0xB20 }
  - { offset: 0x269CCA, size: 0x8, addend: 0x0, symName: __ZNSt3__16vectorIN22llama_kv_cache_unified9slot_infoENS_9allocatorIS2_EEE21__push_back_slow_pathIRKS2_EEPS2_OT_, symObjAddr: 0xB9E0, symBinAddr: 0x52200, symSize: 0x230 }
  - { offset: 0x26A809, size: 0x8, addend: 0x0, symName: __ZNSt3__116allocator_traitsINS_9allocatorIZN22llama_kv_cache_unified7prepareERKNS_6vectorI12llama_ubatchNS1_IS4_EEEEE5stateEEE9constructB8ne180100IS9_JS9_EvEEvRSA_PT_DpOT0_, symObjAddr: 0xBC80, symBinAddr: 0x524A0, symSize: 0x180 }
  - { offset: 0x26AB86, size: 0x8, addend: 0x0, symName: __ZN22llama_kv_cache_unified12apply_ubatchERKNS_9slot_infoERK12llama_ubatch, symObjAddr: 0x4100, symBinAddr: 0x4B810, symSize: 0x630 }
  - { offset: 0x26B880, size: 0x8, addend: 0x0, symName: __ZN22llama_kv_cells_unified3setERKNSt3__16vectorIjNS0_9allocatorIjEEEERKS_, symObjAddr: 0x4730, symBinAddr: 0x4BE40, symSize: 0x230 }
  - { offset: 0x26BFC4, size: 0x8, addend: 0x0, symName: __ZNKSt3__16vectorIZN22llama_kv_cache_unified7prepareERKNS0_I12llama_ubatchNS_9allocatorIS2_EEEEE5stateNS3_IS8_EEE20__throw_length_errorB8ne180100Ev, symObjAddr: 0xBE00, symBinAddr: 0x52620, symSize: 0x10 }
  - { offset: 0x26BFF5, size: 0x8, addend: 0x0, symName: __ZZN22llama_kv_cache_unified7prepareERKNSt3__16vectorI12llama_ubatchNS0_9allocatorIS2_EEEEEN5stateD1Ev, symObjAddr: 0x40C0, symBinAddr: 0x4B7D0, symSize: 0x40 }
  - { offset: 0x26C1BB, size: 0x8, addend: 0x0, symName: __ZNSt3__16vectorIZN22llama_kv_cache_unified7prepareERKNS0_I12llama_ubatchNS_9allocatorIS2_EEEEE5stateNS3_IS8_EEED1B8ne180100Ev, symObjAddr: 0x4960, symBinAddr: 0x4C070, symSize: 0x90 }
  - { offset: 0x26C522, size: 0x8, addend: 0x0, symName: __ZN22llama_kv_cache_unified9init_fullEv, symObjAddr: 0x3080, symBinAddr: 0x4A790, symSize: 0x50 }
  - { offset: 0x26C61F, size: 0x8, addend: 0x0, symName: __ZN30llama_kv_cache_unified_contextC2EP22llama_kv_cache_unified, symObjAddr: 0x8610, symBinAddr: 0x4FD20, symSize: 0xF0 }
  - { offset: 0x26CD24, size: 0x8, addend: 0x0, symName: __ZN22llama_kv_cache_unified11init_updateEP13llama_contextb, symObjAddr: 0x30D0, symBinAddr: 0x4A7E0, symSize: 0x1B0 }
  - { offset: 0x26D1E9, size: 0x8, addend: 0x0, symName: __ZNK22llama_kv_cache_unified14defrag_prepareEi, symObjAddr: 0x3290, symBinAddr: 0x4A9A0, symSize: 0x310 }
  - { offset: 0x26D963, size: 0x8, addend: 0x0, symName: __ZNK22llama_kv_cache_unified13get_has_shiftEv, symObjAddr: 0x3280, symBinAddr: 0x4A990, symSize: 0x10 }
  - { offset: 0x26DA00, size: 0x8, addend: 0x0, symName: __ZNSt3__16vectorIjNS_9allocatorIjEEE8__appendEmRKj, symObjAddr: 0xBFB0, symBinAddr: 0x52630, symSize: 0x320 }
  - { offset: 0x26EAAD, size: 0x8, addend: 0x0, symName: __ZNKSt3__16vectorIjNS_9allocatorIjEEE20__throw_out_of_rangeB8ne180100Ev, symObjAddr: 0xB090, symBinAddr: 0x51B30, symSize: 0x10 }
  - { offset: 0x26EBEC, size: 0x8, addend: 0x0, symName: __ZN22llama_kv_cache_unified6updateEP13llama_contextbRKNS_11defrag_infoE, symObjAddr: 0x49F0, symBinAddr: 0x4C100, symSize: 0x410 }
  - { offset: 0x26F23F, size: 0x8, addend: 0x0, symName: __ZNK22llama_kv_cache_unified17build_graph_shiftERK13llama_cparamsP12ggml_contextP11ggml_cgraph, symObjAddr: 0x4E00, symBinAddr: 0x4C510, symSize: 0x2B0 }
  - { offset: 0x26FB11, size: 0x8, addend: 0x0, symName: __ZN22llama_kv_cells_unified2mvEjj, symObjAddr: 0x50B0, symBinAddr: 0x4C7C0, symSize: 0x160 }
  - { offset: 0x27022F, size: 0x8, addend: 0x0, symName: __ZNK22llama_kv_cache_unified18build_graph_defragERK13llama_cparamsP12ggml_contextP11ggml_cgraphRKNS_11defrag_infoE, symObjAddr: 0x5210, symBinAddr: 0x4C920, symSize: 0x3D0 }
  - { offset: 0x271023, size: 0x8, addend: 0x0, symName: __ZNK22llama_kv_cache_unified16build_rope_shiftERK13llama_cparamsP12ggml_contextP11ggml_tensorS6_S6_ff, symObjAddr: 0x6A70, symBinAddr: 0x4E180, symSize: 0x160 }
  - { offset: 0x2716B7, size: 0x8, addend: 0x0, symName: __ZNK22llama_kv_cache_unified8get_sizeEv, symObjAddr: 0x55E0, symBinAddr: 0x4CCF0, symSize: 0x20 }
  - { offset: 0x271716, size: 0x8, addend: 0x0, symName: __ZNK22llama_kv_cache_unified13is_masked_swaEii, symObjAddr: 0x5600, symBinAddr: 0x4CD10, symSize: 0x40 }
  - { offset: 0x27175E, size: 0x8, addend: 0x0, symName: __ZNK22llama_kv_cache_unified13get_can_shiftEv, symObjAddr: 0x5640, symBinAddr: 0x4CD50, symSize: 0x10 }
  - { offset: 0x2717C2, size: 0x8, addend: 0x0, symName: __ZNK22llama_kv_cache_unified8get_n_kvEv, symObjAddr: 0x5650, symBinAddr: 0x4CD60, symSize: 0x80 }
  - { offset: 0x2719F8, size: 0x8, addend: 0x0, symName: __ZNK22llama_kv_cache_unified5get_kEP12ggml_contextij, symObjAddr: 0x56D0, symBinAddr: 0x4CDE0, symSize: 0x230 }
  - { offset: 0x271C73, size: 0x8, addend: 0x0, symName: __ZNK22llama_kv_cache_unified5get_vEP12ggml_contextij, symObjAddr: 0x5900, symBinAddr: 0x4D010, symSize: 0x290 }
  - { offset: 0x271EF9, size: 0x8, addend: 0x0, symName: __ZNK22llama_kv_cache_unified5cpy_kEP12ggml_contextP11ggml_tensorS3_iRKNS_9slot_infoE, symObjAddr: 0x5B90, symBinAddr: 0x4D2A0, symSize: 0x270 }
  - { offset: 0x272296, size: 0x8, addend: 0x0, symName: __ZNK22llama_kv_cache_unified5cpy_vEP12ggml_contextP11ggml_tensorS3_iRKNS_9slot_infoE, symObjAddr: 0x5E00, symBinAddr: 0x4D510, symSize: 0x360 }
  - { offset: 0x2727C2, size: 0x8, addend: 0x0, symName: __ZNK22llama_kv_cache_unified18build_input_k_idxsEP12ggml_contextRK12llama_ubatch, symObjAddr: 0x6160, symBinAddr: 0x4D870, symSize: 0x30 }
  - { offset: 0x27282D, size: 0x8, addend: 0x0, symName: __ZNK22llama_kv_cache_unified18build_input_v_idxsEP12ggml_contextRK12llama_ubatch, symObjAddr: 0x6190, symBinAddr: 0x4D8A0, symSize: 0x30 }
  - { offset: 0x272898, size: 0x8, addend: 0x0, symName: __ZNK22llama_kv_cache_unified16set_input_k_idxsEP11ggml_tensorPK12llama_ubatchRKNS_9slot_infoE, symObjAddr: 0x61C0, symBinAddr: 0x4D8D0, symSize: 0xA0 }
  - { offset: 0x27295C, size: 0x8, addend: 0x0, symName: __ZNK22llama_kv_cache_unified16set_input_v_idxsEP11ggml_tensorPK12llama_ubatchRKNS_9slot_infoE, symObjAddr: 0x6260, symBinAddr: 0x4D970, symSize: 0xA0 }
  - { offset: 0x272A0E, size: 0x8, addend: 0x0, symName: __ZNK22llama_kv_cache_unified17set_input_kq_maskEP11ggml_tensorPK12llama_ubatchb, symObjAddr: 0x6300, symBinAddr: 0x4DA10, symSize: 0x520 }
  - { offset: 0x272C64, size: 0x8, addend: 0x0, symName: __ZNK22llama_kv_cache_unified17set_input_k_shiftEP11ggml_tensor, symObjAddr: 0x6820, symBinAddr: 0x4DF30, symSize: 0xE0 }
  - { offset: 0x272C99, size: 0x8, addend: 0x0, symName: __ZNK22llama_kv_cache_unified17set_input_k_shiftEP11ggml_tensor, symObjAddr: 0x6820, symBinAddr: 0x4DF30, symSize: 0xE0 }
  - { offset: 0x272D5F, size: 0x8, addend: 0x0, symName: __ZNK22llama_kv_cache_unified20set_input_pos_bucketEP11ggml_tensorPK12llama_ubatch, symObjAddr: 0x6900, symBinAddr: 0x4E010, symSize: 0x120 }
  - { offset: 0x272F4B, size: 0x8, addend: 0x0, symName: __ZNK22llama_kv_cache_unified10total_sizeEv, symObjAddr: 0x6A20, symBinAddr: 0x4E130, symSize: 0x50 }
  - { offset: 0x273185, size: 0x8, addend: 0x0, symName: __ZN23llm_graph_input_k_shift9set_inputEPK12llama_ubatch, symObjAddr: 0x6BD0, symBinAddr: 0x4E2E0, symSize: 0x100 }
  - { offset: 0x273A85, size: 0x8, addend: 0x0, symName: __ZNK22llama_kv_cache_unified11state_writeER16llama_io_write_ii, symObjAddr: 0x6CD0, symBinAddr: 0x4E3E0, symSize: 0x660 }
  - { offset: 0x274A98, size: 0x8, addend: 0x0, symName: __ZNK22llama_kv_cache_unified16state_write_metaER16llama_io_write_iRKNSt3__16vectorINS2_4pairIjjEENS2_9allocatorIS5_EEEEi, symObjAddr: 0x7330, symBinAddr: 0x4EA40, symSize: 0x3C0 }
  - { offset: 0x275560, size: 0x8, addend: 0x0, symName: __ZNK22llama_kv_cache_unified16state_write_dataER16llama_io_write_iRKNSt3__16vectorINS2_4pairIjjEENS2_9allocatorIS5_EEEE, symObjAddr: 0x76F0, symBinAddr: 0x4EE00, symSize: 0x380 }
  - { offset: 0x275DDC, size: 0x8, addend: 0x0, symName: __ZNKSt3__16vectorINS_4pairIjjEENS_9allocatorIS2_EEE20__throw_length_errorB8ne180100Ev, symObjAddr: 0xC2D0, symBinAddr: 0x52950, symSize: 0x10 }
  - { offset: 0x275E06, size: 0x8, addend: 0x0, symName: __ZNSt3__16vectorIN22llama_kv_cache_unified9slot_infoENS_9allocatorIS2_EEE8__appendEm, symObjAddr: 0xC2E0, symBinAddr: 0x52960, symSize: 0x220 }
  - { offset: 0x2762E8, size: 0x8, addend: 0x0, symName: __ZN22llama_kv_cache_unified10state_readER15llama_io_read_ii, symObjAddr: 0x7A70, symBinAddr: 0x4F180, symSize: 0xD0 }
  - { offset: 0x2763DF, size: 0x8, addend: 0x0, symName: __ZN22llama_kv_cache_unified15state_read_metaER15llama_io_read_iji, symObjAddr: 0x7B40, symBinAddr: 0x4F250, symSize: 0x4E0 }
  - { offset: 0x276F9F, size: 0x8, addend: 0x0, symName: __ZN22llama_kv_cache_unified15state_read_dataER15llama_io_read_ij, symObjAddr: 0x8020, symBinAddr: 0x4F730, symSize: 0x590 }
  - { offset: 0x278325, size: 0x8, addend: 0x0, symName: __ZN30llama_kv_cache_unified_contextC2E19llama_memory_status, symObjAddr: 0x85B0, symBinAddr: 0x4FCC0, symSize: 0x30 }
  - { offset: 0x2783C6, size: 0x8, addend: 0x0, symName: __ZN30llama_kv_cache_unified_contextC1E19llama_memory_status, symObjAddr: 0x85E0, symBinAddr: 0x4FCF0, symSize: 0x30 }
  - { offset: 0x27857A, size: 0x8, addend: 0x0, symName: __ZNSt3__16vectorIN22llama_kv_cache_unified9slot_infoENS_9allocatorIS2_EEE8__appendEm, symObjAddr: 0xC2E0, symBinAddr: 0x52960, symSize: 0x220 }
  - { offset: 0x278CEB, size: 0x8, addend: 0x0, symName: __ZNSt3__16vectorIjNS_9allocatorIjEEE8__appendEm, symObjAddr: 0xC500, symBinAddr: 0x52B80, symSize: 0x1FB }
  - { offset: 0x278CF6, size: 0x8, addend: 0x0, symName: __ZNSt3__16vectorIjNS_9allocatorIjEEE8__appendEm, symObjAddr: 0xC500, symBinAddr: 0x52B80, symSize: 0x1FB }
  - { offset: 0x27926D, size: 0x8, addend: 0x0, symName: __ZN30llama_kv_cache_unified_contextC1EP22llama_kv_cache_unified, symObjAddr: 0x8700, symBinAddr: 0x4FE10, symSize: 0x10 }
  - { offset: 0x2792B1, size: 0x8, addend: 0x0, symName: __ZN30llama_kv_cache_unified_contextC2EP22llama_kv_cache_unifiedP13llama_contextbNS0_11defrag_infoE, symObjAddr: 0x8710, symBinAddr: 0x4FE20, symSize: 0x80 }
  - { offset: 0x2793EF, size: 0x8, addend: 0x0, symName: __ZN30llama_kv_cache_unified_contextC1EP22llama_kv_cache_unifiedP13llama_contextbNS0_11defrag_infoE, symObjAddr: 0x8790, symBinAddr: 0x4FEA0, symSize: 0x80 }
  - { offset: 0x279574, size: 0x8, addend: 0x0, symName: __ZN30llama_kv_cache_unified_contextC2EP22llama_kv_cache_unifiedNSt3__16vectorINS0_9slot_infoENS2_9allocatorIS4_EEEENS3_I12llama_ubatchNS5_IS8_EEEE, symObjAddr: 0x8810, symBinAddr: 0x4FF20, symSize: 0x80 }
  - { offset: 0x2796C1, size: 0x8, addend: 0x0, symName: __ZN30llama_kv_cache_unified_contextC1EP22llama_kv_cache_unifiedNSt3__16vectorINS0_9slot_infoENS2_9allocatorIS4_EEEENS3_I12llama_ubatchNS5_IS8_EEEE, symObjAddr: 0x8890, symBinAddr: 0x4FFA0, symSize: 0x80 }
  - { offset: 0x279842, size: 0x8, addend: 0x0, symName: __ZN30llama_kv_cache_unified_contextD2Ev, symObjAddr: 0x8910, symBinAddr: 0x50020, symSize: 0xA0 }
  - { offset: 0x279DD1, size: 0x8, addend: 0x0, symName: __ZN30llama_kv_cache_unified_contextD1Ev, symObjAddr: 0x89B0, symBinAddr: 0x500C0, symSize: 0xA0 }
  - { offset: 0x27A37F, size: 0x8, addend: 0x0, symName: __ZN30llama_kv_cache_unified_contextD0Ev, symObjAddr: 0x8A50, symBinAddr: 0x50160, symSize: 0x90 }
  - { offset: 0x27A943, size: 0x8, addend: 0x0, symName: __ZN30llama_kv_cache_unified_context4nextEv, symObjAddr: 0x8AE0, symBinAddr: 0x501F0, symSize: 0x40 }
  - { offset: 0x27A9D6, size: 0x8, addend: 0x0, symName: __ZN30llama_kv_cache_unified_context5applyEv, symObjAddr: 0x8B20, symBinAddr: 0x50230, symSize: 0xD0 }
  - { offset: 0x27ABA6, size: 0x8, addend: 0x0, symName: __ZNK30llama_kv_cache_unified_context10get_statusEv, symObjAddr: 0x8BF0, symBinAddr: 0x50300, symSize: 0x10 }
  - { offset: 0x27ABF2, size: 0x8, addend: 0x0, symName: __ZNK30llama_kv_cache_unified_context10get_ubatchEv, symObjAddr: 0x8C00, symBinAddr: 0x50310, symSize: 0x10 }
  - { offset: 0x27AC3A, size: 0x8, addend: 0x0, symName: __ZNK30llama_kv_cache_unified_context8get_n_kvEv, symObjAddr: 0x8C10, symBinAddr: 0x50320, symSize: 0x10 }
  - { offset: 0x27AC62, size: 0x8, addend: 0x0, symName: __ZNK30llama_kv_cache_unified_context5get_kEP12ggml_contexti, symObjAddr: 0x8C20, symBinAddr: 0x50330, symSize: 0x20 }
  - { offset: 0x27ACC7, size: 0x8, addend: 0x0, symName: __ZNK30llama_kv_cache_unified_context5get_vEP12ggml_contexti, symObjAddr: 0x8C40, symBinAddr: 0x50350, symSize: 0x20 }
  - { offset: 0x27AD50, size: 0x8, addend: 0x0, symName: __ZNK30llama_kv_cache_unified_context5cpy_kEP12ggml_contextP11ggml_tensorS3_i, symObjAddr: 0x8C60, symBinAddr: 0x50370, symSize: 0x30 }
  - { offset: 0x27AE00, size: 0x8, addend: 0x0, symName: __ZNK30llama_kv_cache_unified_context5cpy_vEP12ggml_contextP11ggml_tensorS3_i, symObjAddr: 0x8C90, symBinAddr: 0x503A0, symSize: 0x30 }
  - { offset: 0x27AEF9, size: 0x8, addend: 0x0, symName: __ZNK30llama_kv_cache_unified_context18build_input_k_idxsEP12ggml_contextRK12llama_ubatch, symObjAddr: 0x8CC0, symBinAddr: 0x503D0, symSize: 0x30 }
  - { offset: 0x27AFE7, size: 0x8, addend: 0x0, symName: __ZNK30llama_kv_cache_unified_context18build_input_v_idxsEP12ggml_contextRK12llama_ubatch, symObjAddr: 0x8CF0, symBinAddr: 0x50400, symSize: 0x30 }
  - { offset: 0x27B08C, size: 0x8, addend: 0x0, symName: __ZNK30llama_kv_cache_unified_context17set_input_k_shiftEP11ggml_tensor, symObjAddr: 0x8D20, symBinAddr: 0x50430, symSize: 0xF0 }
  - { offset: 0x27B1E5, size: 0x8, addend: 0x0, symName: __ZNK30llama_kv_cache_unified_context16set_input_k_idxsEP11ggml_tensorPK12llama_ubatch, symObjAddr: 0x8E10, symBinAddr: 0x50520, symSize: 0xB0 }
  - { offset: 0x27B323, size: 0x8, addend: 0x0, symName: __ZNK30llama_kv_cache_unified_context16set_input_v_idxsEP11ggml_tensorPK12llama_ubatch, symObjAddr: 0x8EC0, symBinAddr: 0x505D0, symSize: 0xB0 }
  - { offset: 0x27B3FE, size: 0x8, addend: 0x0, symName: __ZNK30llama_kv_cache_unified_context17set_input_kq_maskEP11ggml_tensorPK12llama_ubatchb, symObjAddr: 0x8F70, symBinAddr: 0x50680, symSize: 0x10 }
  - { offset: 0x27B485, size: 0x8, addend: 0x0, symName: __ZNK30llama_kv_cache_unified_context20set_input_pos_bucketEP11ggml_tensorPK12llama_ubatch, symObjAddr: 0x8F80, symBinAddr: 0x50690, symSize: 0x10 }
  - { offset: 0x27B4EA, size: 0x8, addend: 0x0, symName: __ZN22llama_kv_cache_unified11get_paddingERK13llama_cparams, symObjAddr: 0x8F90, symBinAddr: 0x506A0, symSize: 0x20 }
  - { offset: 0x27B511, size: 0x8, addend: 0x0, symName: __ZN22llama_kv_cache_unifiedD1Ev, symObjAddr: 0x8FB0, symBinAddr: 0x506C0, symSize: 0x10 }
  - { offset: 0x27B547, size: 0x8, addend: 0x0, symName: __ZN22llama_kv_cache_unifiedD2Ev, symObjAddr: 0xAF40, symBinAddr: 0x519E0, symSize: 0x150 }
  - { offset: 0x27BD43, size: 0x8, addend: 0x0, symName: __ZN22llama_kv_cache_unifiedD0Ev, symObjAddr: 0x8FC0, symBinAddr: 0x506D0, symSize: 0x20 }
  - { offset: 0x27BD9F, size: 0x8, addend: 0x0, symName: __ZN23llm_graph_input_k_shiftD1Ev, symObjAddr: 0x8FE0, symBinAddr: 0x506F0, symSize: 0x10 }
  - { offset: 0x27BDC8, size: 0x8, addend: 0x0, symName: __ZN23llm_graph_input_k_shiftD0Ev, symObjAddr: 0x8FF0, symBinAddr: 0x50700, symSize: 0x10 }
  - { offset: 0x27C75D, size: 0x8, addend: 0x0, symName: __ZN22llama_kv_cells_unifiedD2Ev, symObjAddr: 0x9DF0, symBinAddr: 0x50E80, symSize: 0x520 }
  - { offset: 0x27E227, size: 0x8, addend: 0x0, symName: __ZNSt3__112__hash_tableINS_17__hash_value_typeIiiEENS_22__unordered_map_hasherIiS2_NS_4hashIiEENS_8equal_toIiEELb1EEENS_21__unordered_map_equalIiS2_S7_S5_Lb1EEENS_9allocatorIS2_EEE11__do_rehashILb1EEEvm, symObjAddr: 0xB580, symBinAddr: 0x51FE0, symSize: 0x210 }
  - { offset: 0x27EE7C, size: 0x8, addend: 0x0, symName: __ZNKSt3__16vectorIN22llama_kv_cache_unified9slot_infoENS_9allocatorIS2_EEE20__throw_length_errorB8ne180100Ev, symObjAddr: 0xBC70, symBinAddr: 0x52490, symSize: 0x10 }
  - { offset: 0x27EEA6, size: 0x8, addend: 0x0, symName: __ZNSt3__116allocator_traitsINS_9allocatorIZN22llama_kv_cache_unified7prepareERKNS_6vectorI12llama_ubatchNS1_IS4_EEEEE5stateEEE9constructB8ne180100IS9_JS9_EvEEvRSA_PT_DpOT0_, symObjAddr: 0xBC80, symBinAddr: 0x524A0, symSize: 0x180 }
  - { offset: 0x27EEB1, size: 0x8, addend: 0x0, symName: __ZNSt3__114__split_bufferIN22llama_kv_cache_unified9slot_infoERNS_9allocatorIS2_EEED1Ev, symObjAddr: 0xBC10, symBinAddr: 0x52430, symSize: 0x60 }
  - { offset: 0x2812E9, size: 0x8, addend: 0x0, symName: __ZN19llama_memory_hybridC2ERK11llama_model9ggml_typeS3_bjjj14llama_swa_typeS3_S3_jjbONSt3__18functionIFbiEEES9_, symObjAddr: 0x0, symBinAddr: 0x52D80, symSize: 0x280 }
  - { offset: 0x2A32BB, size: 0x8, addend: 0x0, symName: __ZNSt3__111make_uniqueB8ne180100I27llama_memory_hybrid_contextJP19llama_memory_hybridNS_6vectorIN22llama_kv_cache_unified9slot_infoENS_9allocatorIS6_EEEENS4_I12llama_ubatchNS7_ISA_EEEEEEENS_11__unique_ifIT_E15__unique_singleEDpOT0_, symObjAddr: 0x750, symBinAddr: 0x534D0, symSize: 0x110 }
  - { offset: 0x2AB675, size: 0x8, addend: 0x0, symName: __ZN19llama_memory_hybridC1ERK11llama_model9ggml_typeS3_bjjj14llama_swa_typeS3_S3_jjbONSt3__18functionIFbiEEES9_, symObjAddr: 0x280, symBinAddr: 0x53000, symSize: 0x10 }
  - { offset: 0x2AC88A, size: 0x8, addend: 0x0, symName: __ZN19llama_memory_hybridC2ERK11llama_model9ggml_typeS3_bjjj14llama_swa_typeS3_S3_jjbONSt3__18functionIFbiEEES9_, symObjAddr: 0x0, symBinAddr: 0x52D80, symSize: 0x280 }
  - { offset: 0x2ADB65, size: 0x8, addend: 0x0, symName: __ZN19llama_memory_hybrid10init_batchER18llama_batch_allocrjb, symObjAddr: 0x290, symBinAddr: 0x53010, symSize: 0x4C0 }
  - { offset: 0x2AEF38, size: 0x8, addend: 0x0, symName: __ZN27llama_memory_hybrid_contextC2EP19llama_memory_hybridNSt3__16vectorIN22llama_kv_cache_unified9slot_infoENS2_9allocatorIS5_EEEENS3_I12llama_ubatchNS6_IS9_EEEE, symObjAddr: 0xED0, symBinAddr: 0x53BE0, symSize: 0x390 }
  - { offset: 0x2B00D5, size: 0x8, addend: 0x0, symName: __ZN19llama_memory_hybrid9init_fullEv, symObjAddr: 0x8D0, symBinAddr: 0x535E0, symSize: 0x50 }
  - { offset: 0x2B01D0, size: 0x8, addend: 0x0, symName: __ZN27llama_memory_hybrid_contextC2EP19llama_memory_hybrid, symObjAddr: 0xCB0, symBinAddr: 0x539C0, symSize: 0x100 }
  - { offset: 0x2B05AB, size: 0x8, addend: 0x0, symName: __ZN19llama_memory_hybrid11init_updateEP13llama_contextb, symObjAddr: 0x920, symBinAddr: 0x53630, symSize: 0x60 }
  - { offset: 0x2B06D7, size: 0x8, addend: 0x0, symName: __ZN27llama_memory_hybrid_contextC2EP19llama_memory_hybridP13llama_contextb, symObjAddr: 0xDC0, symBinAddr: 0x53AD0, symSize: 0x100 }
  - { offset: 0x2B0AAB, size: 0x8, addend: 0x0, symName: __ZNK19llama_memory_hybrid13get_can_shiftEv, symObjAddr: 0x980, symBinAddr: 0x53690, symSize: 0x10 }
  - { offset: 0x2B0AFE, size: 0x8, addend: 0x0, symName: __ZN19llama_memory_hybrid5clearEb, symObjAddr: 0x990, symBinAddr: 0x536A0, symSize: 0x30 }
  - { offset: 0x2B0B92, size: 0x8, addend: 0x0, symName: __ZN19llama_memory_hybrid6seq_rmEiii, symObjAddr: 0x9C0, symBinAddr: 0x536D0, symSize: 0x50 }
  - { offset: 0x2B0C52, size: 0x8, addend: 0x0, symName: __ZN19llama_memory_hybrid6seq_cpEiiii, symObjAddr: 0xA10, symBinAddr: 0x53720, symSize: 0x50 }
  - { offset: 0x2B0D28, size: 0x8, addend: 0x0, symName: __ZN19llama_memory_hybrid8seq_keepEi, symObjAddr: 0xA60, symBinAddr: 0x53770, symSize: 0x30 }
  - { offset: 0x2B0DBC, size: 0x8, addend: 0x0, symName: __ZN19llama_memory_hybrid7seq_addEiiii, symObjAddr: 0xA90, symBinAddr: 0x537A0, symSize: 0x50 }
  - { offset: 0x2B0E92, size: 0x8, addend: 0x0, symName: __ZN19llama_memory_hybrid7seq_divEiiii, symObjAddr: 0xAE0, symBinAddr: 0x537F0, symSize: 0x50 }
  - { offset: 0x2B0F68, size: 0x8, addend: 0x0, symName: __ZNK19llama_memory_hybrid11seq_pos_minEi, symObjAddr: 0xB30, symBinAddr: 0x53840, symSize: 0x40 }
  - { offset: 0x2B1003, size: 0x8, addend: 0x0, symName: __ZNK19llama_memory_hybrid11seq_pos_maxEi, symObjAddr: 0xB70, symBinAddr: 0x53880, symSize: 0x40 }
  - { offset: 0x2B109E, size: 0x8, addend: 0x0, symName: __ZNK19llama_memory_hybrid11state_writeER16llama_io_write_ii, symObjAddr: 0xBB0, symBinAddr: 0x538C0, symSize: 0x40 }
  - { offset: 0x2B1148, size: 0x8, addend: 0x0, symName: __ZN19llama_memory_hybrid10state_readER15llama_io_read_ii, symObjAddr: 0xBF0, symBinAddr: 0x53900, symSize: 0x40 }
  - { offset: 0x2B1208, size: 0x8, addend: 0x0, symName: __ZNK19llama_memory_hybrid12get_mem_attnEv, symObjAddr: 0xC30, symBinAddr: 0x53940, symSize: 0x10 }
  - { offset: 0x2B125C, size: 0x8, addend: 0x0, symName: __ZNK19llama_memory_hybrid12get_mem_recrEv, symObjAddr: 0xC40, symBinAddr: 0x53950, symSize: 0x10 }
  - { offset: 0x2B129A, size: 0x8, addend: 0x0, symName: __ZN27llama_memory_hybrid_contextC2E19llama_memory_status, symObjAddr: 0xC50, symBinAddr: 0x53960, symSize: 0x30 }
  - { offset: 0x2B12FE, size: 0x8, addend: 0x0, symName: __ZN27llama_memory_hybrid_contextC1E19llama_memory_status, symObjAddr: 0xC80, symBinAddr: 0x53990, symSize: 0x30 }
  - { offset: 0x2B1477, size: 0x8, addend: 0x0, symName: __ZN27llama_memory_hybrid_contextC1EP19llama_memory_hybrid, symObjAddr: 0xDB0, symBinAddr: 0x53AC0, symSize: 0x10 }
  - { offset: 0x2B14BB, size: 0x8, addend: 0x0, symName: __ZN27llama_memory_hybrid_contextC1EP19llama_memory_hybridP13llama_contextb, symObjAddr: 0xEC0, symBinAddr: 0x53BD0, symSize: 0x10 }
  - { offset: 0x2B17FC, size: 0x8, addend: 0x0, symName: __ZN27llama_memory_hybrid_contextC1EP19llama_memory_hybridNSt3__16vectorIN22llama_kv_cache_unified9slot_infoENS2_9allocatorIS5_EEEENS3_I12llama_ubatchNS6_IS9_EEEE, symObjAddr: 0x1260, symBinAddr: 0x53F70, symSize: 0x10 }
  - { offset: 0x2B185E, size: 0x8, addend: 0x0, symName: __ZN27llama_memory_hybrid_context4nextEv, symObjAddr: 0x1270, symBinAddr: 0x53F80, symSize: 0x50 }
  - { offset: 0x2B18F2, size: 0x8, addend: 0x0, symName: __ZN27llama_memory_hybrid_context5applyEv, symObjAddr: 0x12C0, symBinAddr: 0x53FD0, symSize: 0x30 }
  - { offset: 0x2B197F, size: 0x8, addend: 0x0, symName: __ZNK27llama_memory_hybrid_context10get_statusEv, symObjAddr: 0x12F0, symBinAddr: 0x54000, symSize: 0x10 }
  - { offset: 0x2B19CA, size: 0x8, addend: 0x0, symName: __ZNK27llama_memory_hybrid_context10get_ubatchEv, symObjAddr: 0x1300, symBinAddr: 0x54010, symSize: 0x10 }
  - { offset: 0x2B1A25, size: 0x8, addend: 0x0, symName: __ZNK27llama_memory_hybrid_context8get_attnEv, symObjAddr: 0x1310, symBinAddr: 0x54020, symSize: 0x10 }
  - { offset: 0x2B1A6A, size: 0x8, addend: 0x0, symName: __ZNK27llama_memory_hybrid_context8get_recrEv, symObjAddr: 0x1320, symBinAddr: 0x54030, symSize: 0x10 }
  - { offset: 0x2B1B51, size: 0x8, addend: 0x0, symName: __ZN19llama_memory_hybridD1Ev, symObjAddr: 0x1330, symBinAddr: 0x54040, symSize: 0x50 }
  - { offset: 0x2B1CD7, size: 0x8, addend: 0x0, symName: __ZN19llama_memory_hybridD0Ev, symObjAddr: 0x1380, symBinAddr: 0x54090, symSize: 0x50 }
  - { offset: 0x2B1E86, size: 0x8, addend: 0x0, symName: __ZN27llama_memory_hybrid_contextD1Ev, symObjAddr: 0x13D0, symBinAddr: 0x540E0, symSize: 0x60 }
  - { offset: 0x2B212F, size: 0x8, addend: 0x0, symName: __ZN27llama_memory_hybrid_contextD0Ev, symObjAddr: 0x1430, symBinAddr: 0x54140, symSize: 0x70 }
  - { offset: 0x2B23ED, size: 0x8, addend: 0x0, symName: '__ZNSt3__110__function6__funcIZN19llama_memory_hybridC1ERK11llama_model9ggml_typeS6_bjjj14llama_swa_typeS6_S6_jjbONS_8functionIFbiEEESB_E3$_0NS_9allocatorISC_EES9_ED1Ev', symObjAddr: 0x14A0, symBinAddr: 0x541B0, symSize: 0x10 }
  - { offset: 0x2B2416, size: 0x8, addend: 0x0, symName: '__ZNSt3__110__function6__funcIZN19llama_memory_hybridC1ERK11llama_model9ggml_typeS6_bjjj14llama_swa_typeS6_S6_jjbONS_8functionIFbiEEESB_E3$_0NS_9allocatorISC_EES9_ED0Ev', symObjAddr: 0x14B0, symBinAddr: 0x541C0, symSize: 0x10 }
  - { offset: 0x2B2619, size: 0x8, addend: 0x0, symName: '__ZNKSt3__110__function6__funcIZN19llama_memory_hybridC1ERK11llama_model9ggml_typeS6_bjjj14llama_swa_typeS6_S6_jjbONS_8functionIFbiEEESB_E3$_0NS_9allocatorISC_EES9_E7__cloneEv', symObjAddr: 0x14C0, symBinAddr: 0x541D0, symSize: 0x30 }
  - { offset: 0x2B28FF, size: 0x8, addend: 0x0, symName: '__ZNKSt3__110__function6__funcIZN19llama_memory_hybridC1ERK11llama_model9ggml_typeS6_bjjj14llama_swa_typeS6_S6_jjbONS_8functionIFbiEEESB_E3$_0NS_9allocatorISC_EES9_E7__cloneEPNS0_6__baseIS9_EE', symObjAddr: 0x14F0, symBinAddr: 0x54200, symSize: 0x20 }
  - { offset: 0x2B2A06, size: 0x8, addend: 0x0, symName: '__ZNSt3__110__function6__funcIZN19llama_memory_hybridC1ERK11llama_model9ggml_typeS6_bjjj14llama_swa_typeS6_S6_jjbONS_8functionIFbiEEESB_E3$_0NS_9allocatorISC_EES9_E7destroyEv', symObjAddr: 0x1510, symBinAddr: 0x54220, symSize: 0x10 }
  - { offset: 0x2B2A57, size: 0x8, addend: 0x0, symName: '__ZNSt3__110__function6__funcIZN19llama_memory_hybridC1ERK11llama_model9ggml_typeS6_bjjj14llama_swa_typeS6_S6_jjbONS_8functionIFbiEEESB_E3$_0NS_9allocatorISC_EES9_E18destroy_deallocateEv', symObjAddr: 0x1520, symBinAddr: 0x54230, symSize: 0x10 }
  - { offset: 0x2B2BA6, size: 0x8, addend: 0x0, symName: '__ZNSt3__110__function6__funcIZN19llama_memory_hybridC1ERK11llama_model9ggml_typeS6_bjjj14llama_swa_typeS6_S6_jjbONS_8functionIFbiEEESB_E3$_0NS_9allocatorISC_EES9_EclEOi', symObjAddr: 0x1530, symBinAddr: 0x54240, symSize: 0x20 }
  - { offset: 0x2B2C85, size: 0x8, addend: 0x0, symName: '__ZNKSt3__110__function6__funcIZN19llama_memory_hybridC1ERK11llama_model9ggml_typeS6_bjjj14llama_swa_typeS6_S6_jjbONS_8functionIFbiEEESB_E3$_0NS_9allocatorISC_EES9_E6targetERKSt9type_info', symObjAddr: 0x1550, symBinAddr: 0x54260, symSize: 0x20 }
  - { offset: 0x2B2CF7, size: 0x8, addend: 0x0, symName: '__ZNKSt3__110__function6__funcIZN19llama_memory_hybridC1ERK11llama_model9ggml_typeS6_bjjj14llama_swa_typeS6_S6_jjbONS_8functionIFbiEEESB_E3$_0NS_9allocatorISC_EES9_E11target_typeEv', symObjAddr: 0x1570, symBinAddr: 0x54280, symSize: 0x10 }
  - { offset: 0x2B2D1C, size: 0x8, addend: 0x0, symName: '__ZNSt3__110__function6__funcIZN19llama_memory_hybridC1ERK11llama_model9ggml_typeS6_bjjj14llama_swa_typeS6_S6_jjbONS_8functionIFbiEEESB_E3$_1NS_9allocatorISC_EES9_ED1Ev', symObjAddr: 0x15C0, symBinAddr: 0x54290, symSize: 0x10 }
  - { offset: 0x2B2D45, size: 0x8, addend: 0x0, symName: '__ZNSt3__110__function6__funcIZN19llama_memory_hybridC1ERK11llama_model9ggml_typeS6_bjjj14llama_swa_typeS6_S6_jjbONS_8functionIFbiEEESB_E3$_1NS_9allocatorISC_EES9_ED0Ev', symObjAddr: 0x15D0, symBinAddr: 0x542A0, symSize: 0x10 }
  - { offset: 0x2B2F48, size: 0x8, addend: 0x0, symName: '__ZNKSt3__110__function6__funcIZN19llama_memory_hybridC1ERK11llama_model9ggml_typeS6_bjjj14llama_swa_typeS6_S6_jjbONS_8functionIFbiEEESB_E3$_1NS_9allocatorISC_EES9_E7__cloneEv', symObjAddr: 0x15E0, symBinAddr: 0x542B0, symSize: 0x30 }
  - { offset: 0x2B322E, size: 0x8, addend: 0x0, symName: '__ZNKSt3__110__function6__funcIZN19llama_memory_hybridC1ERK11llama_model9ggml_typeS6_bjjj14llama_swa_typeS6_S6_jjbONS_8functionIFbiEEESB_E3$_1NS_9allocatorISC_EES9_E7__cloneEPNS0_6__baseIS9_EE', symObjAddr: 0x1610, symBinAddr: 0x542E0, symSize: 0x20 }
  - { offset: 0x2B3335, size: 0x8, addend: 0x0, symName: '__ZNSt3__110__function6__funcIZN19llama_memory_hybridC1ERK11llama_model9ggml_typeS6_bjjj14llama_swa_typeS6_S6_jjbONS_8functionIFbiEEESB_E3$_1NS_9allocatorISC_EES9_E7destroyEv', symObjAddr: 0x1630, symBinAddr: 0x54300, symSize: 0x10 }
  - { offset: 0x2B3386, size: 0x8, addend: 0x0, symName: '__ZNSt3__110__function6__funcIZN19llama_memory_hybridC1ERK11llama_model9ggml_typeS6_bjjj14llama_swa_typeS6_S6_jjbONS_8functionIFbiEEESB_E3$_1NS_9allocatorISC_EES9_E18destroy_deallocateEv', symObjAddr: 0x1640, symBinAddr: 0x54310, symSize: 0x10 }
  - { offset: 0x2B34D5, size: 0x8, addend: 0x0, symName: '__ZNSt3__110__function6__funcIZN19llama_memory_hybridC1ERK11llama_model9ggml_typeS6_bjjj14llama_swa_typeS6_S6_jjbONS_8functionIFbiEEESB_E3$_1NS_9allocatorISC_EES9_EclEOi', symObjAddr: 0x1650, symBinAddr: 0x54320, symSize: 0x20 }
  - { offset: 0x2B356D, size: 0x8, addend: 0x0, symName: '__ZNKSt3__110__function6__funcIZN19llama_memory_hybridC1ERK11llama_model9ggml_typeS6_bjjj14llama_swa_typeS6_S6_jjbONS_8functionIFbiEEESB_E3$_1NS_9allocatorISC_EES9_E6targetERKSt9type_info', symObjAddr: 0x1670, symBinAddr: 0x54340, symSize: 0x20 }
  - { offset: 0x2B35DF, size: 0x8, addend: 0x0, symName: '__ZNKSt3__110__function6__funcIZN19llama_memory_hybridC1ERK11llama_model9ggml_typeS6_bjjj14llama_swa_typeS6_S6_jjbONS_8functionIFbiEEESB_E3$_1NS_9allocatorISC_EES9_E11target_typeEv', symObjAddr: 0x1690, symBinAddr: 0x54360, symSize: 0x10 }
  - { offset: 0x2D4CBD, size: 0x8, addend: 0x0, symName: __ZN22llama_memory_recurrentC2ERK11llama_modelONSt3__18functionIFbiEEE9ggml_typeS8_bjj, symObjAddr: 0x0, symBinAddr: 0x54370, symSize: 0x860 }
  - { offset: 0x2D6F00, size: 0x8, addend: 0x0, symName: __ZNSt3__16vectorIN22llama_memory_recurrent8mem_cellENS_9allocatorIS2_EEE8__appendEm, symObjAddr: 0x48B0, symBinAddr: 0x58390, symSize: 0x240 }
  - { offset: 0x2D7800, size: 0x8, addend: 0x0, symName: __ZNSt3__16vectorIP11ggml_tensorNS_9allocatorIS2_EEE8__appendEm, symObjAddr: 0x4B40, symBinAddr: 0x585E0, symSize: 0x200 }
  - { offset: 0x2D8A09, size: 0x8, addend: 0x0, symName: __ZNSt3__16vectorIN22llama_memory_recurrent8mem_cellENS_9allocatorIS2_EEED1B8ne180100Ev, symObjAddr: 0xA00, symBinAddr: 0x54C70, symSize: 0x70 }
  - { offset: 0x2D8C8A, size: 0x8, addend: 0x0, symName: __ZNK22llama_memory_recurrent12size_r_bytesEv, symObjAddr: 0x860, symBinAddr: 0x54BD0, symSize: 0x50 }
  - { offset: 0x2D8D82, size: 0x8, addend: 0x0, symName: __ZNK22llama_memory_recurrent12size_s_bytesEv, symObjAddr: 0x8B0, symBinAddr: 0x54C20, symSize: 0x50 }
  - { offset: 0x2D9462, size: 0x8, addend: 0x0, symName: __ZN22llama_memory_recurrentC1ERK11llama_modelONSt3__18functionIFbiEEE9ggml_typeS8_bjj, symObjAddr: 0xA70, symBinAddr: 0x54CE0, symSize: 0x10 }
  - { offset: 0x2D95EE, size: 0x8, addend: 0x0, symName: __ZN22llama_memory_recurrent5clearEb, symObjAddr: 0xA80, symBinAddr: 0x54CF0, symSize: 0xE0 }
  - { offset: 0x2D9AE7, size: 0x8, addend: 0x0, symName: __ZN22llama_memory_recurrent6seq_rmEiii, symObjAddr: 0xB60, symBinAddr: 0x54DD0, symSize: 0x310 }
  - { offset: 0x2DA303, size: 0x8, addend: 0x0, symName: __ZN22llama_memory_recurrent6seq_cpEiiii, symObjAddr: 0xE70, symBinAddr: 0x550E0, symSize: 0x210 }
  - { offset: 0x2DA930, size: 0x8, addend: 0x0, symName: __ZN22llama_memory_recurrent8seq_keepEi, symObjAddr: 0x1080, symBinAddr: 0x552F0, symSize: 0x210 }
  - { offset: 0x2DAE06, size: 0x8, addend: 0x0, symName: __ZN22llama_memory_recurrent7seq_addEiiii, symObjAddr: 0x1290, symBinAddr: 0x55500, symSize: 0xA0 }
  - { offset: 0x2DB01D, size: 0x8, addend: 0x0, symName: __ZN22llama_memory_recurrent7seq_divEiiii, symObjAddr: 0x1330, symBinAddr: 0x555A0, symSize: 0xB0 }
  - { offset: 0x2DB2A3, size: 0x8, addend: 0x0, symName: __ZNK22llama_memory_recurrent11seq_pos_minEi, symObjAddr: 0x13E0, symBinAddr: 0x55650, symSize: 0x90 }
  - { offset: 0x2DB4A7, size: 0x8, addend: 0x0, symName: __ZNK22llama_memory_recurrent11seq_pos_maxEi, symObjAddr: 0x1470, symBinAddr: 0x556E0, symSize: 0x90 }
  - { offset: 0x2DBD90, size: 0x8, addend: 0x0, symName: __ZN22llama_memory_recurrent10init_batchER18llama_batch_allocrjb, symObjAddr: 0x1500, symBinAddr: 0x55770, symSize: 0x390 }
  - { offset: 0x2DC8BD, size: 0x8, addend: 0x0, symName: __ZN22llama_memory_recurrent7prepareERKNSt3__16vectorI12llama_ubatchNS0_9allocatorIS2_EEEE, symObjAddr: 0x1890, symBinAddr: 0x55B00, symSize: 0x140 }
  - { offset: 0x2DCD79, size: 0x8, addend: 0x0, symName: __ZNSt3__16vectorIN22llama_memory_recurrent8mem_cellENS_9allocatorIS2_EEE16__init_with_sizeB8ne180100IPS2_S7_EEvT_T0_m, symObjAddr: 0x5340, symBinAddr: 0x587E0, symSize: 0x150 }
  - { offset: 0x2DCE87, size: 0x8, addend: 0x0, symName: __ZNSt3__16vectorIN22llama_memory_recurrent8mem_cellENS_9allocatorIS2_EEE16__init_with_sizeB8ne180100IPS2_S7_EEvT_T0_m, symObjAddr: 0x5340, symBinAddr: 0x587E0, symSize: 0x150 }
  - { offset: 0x2DD5BF, size: 0x8, addend: 0x0, symName: __ZN22llama_memory_recurrent9find_slotERK12llama_ubatch, symObjAddr: 0x1A60, symBinAddr: 0x55CD0, symSize: 0xC00 }
  - { offset: 0x2DF0E6, size: 0x8, addend: 0x0, symName: __ZN22llama_memory_recurrent9init_fullEv, symObjAddr: 0x19D0, symBinAddr: 0x55C40, symSize: 0x50 }
  - { offset: 0x2DF239, size: 0x8, addend: 0x0, symName: __ZN22llama_memory_recurrent11init_updateEP13llama_contextb, symObjAddr: 0x1A20, symBinAddr: 0x55C90, symSize: 0x40 }
  - { offset: 0x2DF741, size: 0x8, addend: 0x0, symName: __ZNK22llama_memory_recurrent13get_can_shiftEv, symObjAddr: 0x2660, symBinAddr: 0x568D0, symSize: 0x10 }
  - { offset: 0x2DF7BC, size: 0x8, addend: 0x0, symName: __ZNK22llama_memory_recurrent10total_sizeEv, symObjAddr: 0x2670, symBinAddr: 0x568E0, symSize: 0x50 }
  - { offset: 0x2E00FE, size: 0x8, addend: 0x0, symName: __ZNK22llama_memory_recurrent11state_writeER16llama_io_write_ii, symObjAddr: 0x26C0, symBinAddr: 0x56930, symSize: 0x690 }
  - { offset: 0x2E1168, size: 0x8, addend: 0x0, symName: __ZNK22llama_memory_recurrent16state_write_metaER16llama_io_write_iRKNSt3__16vectorINS2_4pairIjjEENS2_9allocatorIS5_EEEEi, symObjAddr: 0x2D50, symBinAddr: 0x56FC0, symSize: 0x140 }
  - { offset: 0x2E14C5, size: 0x8, addend: 0x0, symName: __ZNK22llama_memory_recurrent16state_write_dataER16llama_io_write_iRKNSt3__16vectorINS2_4pairIjjEENS2_9allocatorIS5_EEEE, symObjAddr: 0x2E90, symBinAddr: 0x57100, symSize: 0x230 }
  - { offset: 0x2E1ADD, size: 0x8, addend: 0x0, symName: __ZN22llama_memory_recurrent10state_readER15llama_io_read_ii, symObjAddr: 0x30C0, symBinAddr: 0x57330, symSize: 0xD0 }
  - { offset: 0x2E1BD4, size: 0x8, addend: 0x0, symName: __ZN22llama_memory_recurrent15state_read_metaER15llama_io_read_iji, symObjAddr: 0x3190, symBinAddr: 0x57400, symSize: 0x590 }
  - { offset: 0x2E248C, size: 0x8, addend: 0x0, symName: __ZN22llama_memory_recurrent15state_read_dataER15llama_io_read_ij, symObjAddr: 0x3720, symBinAddr: 0x57990, symSize: 0x520 }
  - { offset: 0x2E36F1, size: 0x8, addend: 0x0, symName: __ZN30llama_memory_recurrent_contextC2E19llama_memory_status, symObjAddr: 0x3C40, symBinAddr: 0x57EB0, symSize: 0x30 }
  - { offset: 0x2E3756, size: 0x8, addend: 0x0, symName: __ZN30llama_memory_recurrent_contextC1E19llama_memory_status, symObjAddr: 0x3C70, symBinAddr: 0x57EE0, symSize: 0x30 }
  - { offset: 0x2E37DF, size: 0x8, addend: 0x0, symName: __ZN30llama_memory_recurrent_contextC2EP22llama_memory_recurrent, symObjAddr: 0x3CA0, symBinAddr: 0x57F10, symSize: 0x30 }
  - { offset: 0x2E3844, size: 0x8, addend: 0x0, symName: __ZN30llama_memory_recurrent_contextC1EP22llama_memory_recurrent, symObjAddr: 0x3CD0, symBinAddr: 0x57F40, symSize: 0x30 }
  - { offset: 0x2E38CD, size: 0x8, addend: 0x0, symName: __ZN30llama_memory_recurrent_contextC2EP22llama_memory_recurrentNSt3__16vectorI12llama_ubatchNS2_9allocatorIS4_EEEE, symObjAddr: 0x3D00, symBinAddr: 0x57F70, symSize: 0x50 }
  - { offset: 0x2E3948, size: 0x8, addend: 0x0, symName: __ZN30llama_memory_recurrent_contextC1EP22llama_memory_recurrentNSt3__16vectorI12llama_ubatchNS2_9allocatorIS4_EEEE, symObjAddr: 0x3D50, symBinAddr: 0x57FC0, symSize: 0x50 }
  - { offset: 0x2E39EF, size: 0x8, addend: 0x0, symName: __ZN30llama_memory_recurrent_contextD2Ev, symObjAddr: 0x3DA0, symBinAddr: 0x58010, symSize: 0x30 }
  - { offset: 0x2E3B4C, size: 0x8, addend: 0x0, symName: __ZN30llama_memory_recurrent_contextD1Ev, symObjAddr: 0x3DD0, symBinAddr: 0x58040, symSize: 0x30 }
  - { offset: 0x2E3CC8, size: 0x8, addend: 0x0, symName: __ZN30llama_memory_recurrent_contextD0Ev, symObjAddr: 0x3E00, symBinAddr: 0x58070, symSize: 0x40 }
  - { offset: 0x2E3E5A, size: 0x8, addend: 0x0, symName: __ZN30llama_memory_recurrent_context4nextEv, symObjAddr: 0x3E40, symBinAddr: 0x580B0, symSize: 0x40 }
  - { offset: 0x2E3ED3, size: 0x8, addend: 0x0, symName: __ZN30llama_memory_recurrent_context5applyEv, symObjAddr: 0x3E80, symBinAddr: 0x580F0, symSize: 0x30 }
  - { offset: 0x2E3F3F, size: 0x8, addend: 0x0, symName: __ZNK30llama_memory_recurrent_context10get_statusEv, symObjAddr: 0x3EB0, symBinAddr: 0x58120, symSize: 0x10 }
  - { offset: 0x2E3F8B, size: 0x8, addend: 0x0, symName: __ZNK30llama_memory_recurrent_context10get_ubatchEv, symObjAddr: 0x3EC0, symBinAddr: 0x58130, symSize: 0x10 }
  - { offset: 0x2E3FD2, size: 0x8, addend: 0x0, symName: __ZNK30llama_memory_recurrent_context8get_n_rsEv, symObjAddr: 0x3ED0, symBinAddr: 0x58140, symSize: 0x20 }
  - { offset: 0x2E3FFA, size: 0x8, addend: 0x0, symName: __ZNK30llama_memory_recurrent_context8get_headEv, symObjAddr: 0x3EF0, symBinAddr: 0x58160, symSize: 0x20 }
  - { offset: 0x2E4022, size: 0x8, addend: 0x0, symName: __ZNK30llama_memory_recurrent_context8get_rs_zEv, symObjAddr: 0x3F10, symBinAddr: 0x58180, symSize: 0x20 }
  - { offset: 0x2E404A, size: 0x8, addend: 0x0, symName: __ZNK30llama_memory_recurrent_context8get_sizeEv, symObjAddr: 0x3F30, symBinAddr: 0x581A0, symSize: 0x10 }
  - { offset: 0x2E4072, size: 0x8, addend: 0x0, symName: __ZNK30llama_memory_recurrent_context7get_r_lEi, symObjAddr: 0x3F40, symBinAddr: 0x581B0, symSize: 0x20 }
  - { offset: 0x2E40CF, size: 0x8, addend: 0x0, symName: __ZNK30llama_memory_recurrent_context7get_s_lEi, symObjAddr: 0x3F60, symBinAddr: 0x581D0, symSize: 0x20 }
  - { offset: 0x2E412D, size: 0x8, addend: 0x0, symName: __ZNK30llama_memory_recurrent_context6s_copyEi, symObjAddr: 0x3F80, symBinAddr: 0x581F0, symSize: 0x20 }
  - { offset: 0x2E418C, size: 0x8, addend: 0x0, symName: __ZN22llama_memory_recurrentD1Ev, symObjAddr: 0x3FA0, symBinAddr: 0x58210, symSize: 0x10 }
  - { offset: 0x2E41C2, size: 0x8, addend: 0x0, symName: __ZN22llama_memory_recurrentD2Ev, symObjAddr: 0x4760, symBinAddr: 0x58240, symSize: 0x150 }
  - { offset: 0x2E4A28, size: 0x8, addend: 0x0, symName: __ZN22llama_memory_recurrentD0Ev, symObjAddr: 0x3FB0, symBinAddr: 0x58220, symSize: 0x20 }
  - { offset: 0x2E65D7, size: 0x8, addend: 0x0, symName: __ZNKSt3__16vectorIN22llama_memory_recurrent8mem_cellENS_9allocatorIS2_EEE20__throw_length_errorB8ne180100Ev, symObjAddr: 0x4AF0, symBinAddr: 0x585D0, symSize: 0x10 }
  - { offset: 0x2E7170, size: 0x8, addend: 0x0, symName: __ZNSt3__13setIiNS_4lessIiEENS_9allocatorIiEEE6insertB8ne180100INS_21__tree_const_iteratorIiPNS_11__tree_nodeIiPvEElEEEEvT_SD_, symObjAddr: 0x5510, symBinAddr: 0x589B0, symSize: 0x170 }
  - { offset: 0x2E71B8, size: 0x8, addend: 0x0, symName: __ZNSt3__13setIiNS_4lessIiEENS_9allocatorIiEEE6insertB8ne180100INS_21__tree_const_iteratorIiPNS_11__tree_nodeIiPvEElEEEEvT_SD_, symObjAddr: 0x5510, symBinAddr: 0x589B0, symSize: 0x170 }
  - { offset: 0x2E75B4, size: 0x8, addend: 0x0, symName: __ZNSt3__128__exception_guard_exceptionsINS_6vectorIN22llama_memory_recurrent8mem_cellENS_9allocatorIS3_EEE16__destroy_vectorEED1B8ne180100Ev, symObjAddr: 0x5490, symBinAddr: 0x58930, symSize: 0x80 }
  - { offset: 0x2E986D, size: 0x8, addend: 0x0, symName: __Z27llama_memory_status_combine19llama_memory_statusS_, symObjAddr: 0x0, symBinAddr: 0x58B20, symSize: 0x40 }
  - { offset: 0x2E9882, size: 0x8, addend: 0x0, symName: __Z27llama_memory_status_combine19llama_memory_statusS_, symObjAddr: 0x0, symBinAddr: 0x58B20, symSize: 0x40 }
  - { offset: 0x2E98CE, size: 0x8, addend: 0x0, symName: __Z27llama_memory_status_is_fail19llama_memory_status, symObjAddr: 0x40, symBinAddr: 0x58B60, symSize: 0xF }
  - { offset: 0x2EB11D, size: 0x8, addend: 0x0, symName: __ZN10llama_mmap9SUPPORTEDE, symObjAddr: 0x1620, symBinAddr: 0x2268D0, symSize: 0x0 }
  - { offset: 0x2F1124, size: 0x8, addend: 0x0, symName: __ZN11llama_mlock9SUPPORTEDE, symObjAddr: 0x1621, symBinAddr: 0x2268D1, symSize: 0x0 }
  - { offset: 0x2F153F, size: 0x8, addend: 0x0, symName: __ZN10llama_fileC2EPKcS1_, symObjAddr: 0x0, symBinAddr: 0x58B70, symSize: 0x50 }
  - { offset: 0x2F1661, size: 0x8, addend: 0x0, symName: __ZN10llama_file4implC2EPKcS2_, symObjAddr: 0x1070, symBinAddr: 0x59B10, symSize: 0xF0 }
  - { offset: 0x2F188E, size: 0x8, addend: 0x0, symName: __ZN10llama_fileC1EPKcS1_, symObjAddr: 0x50, symBinAddr: 0x58BC0, symSize: 0x50 }
  - { offset: 0x2F1AAC, size: 0x8, addend: 0x0, symName: __ZN10llama_fileD2Ev, symObjAddr: 0xA0, symBinAddr: 0x58C10, symSize: 0x40 }
  - { offset: 0x2F1BCB, size: 0x8, addend: 0x0, symName: __ZN10llama_fileD1Ev, symObjAddr: 0xE0, symBinAddr: 0x58C50, symSize: 0x40 }
  - { offset: 0x2F1D00, size: 0x8, addend: 0x0, symName: __ZNK10llama_file4tellEv, symObjAddr: 0x120, symBinAddr: 0x58C90, symSize: 0x10 }
  - { offset: 0x2F1D53, size: 0x8, addend: 0x0, symName: __ZNK10llama_file4impl4tellEv, symObjAddr: 0x130, symBinAddr: 0x58CA0, symSize: 0xC0 }
  - { offset: 0x2F1FF8, size: 0x8, addend: 0x0, symName: __ZNK10llama_file4sizeEv, symObjAddr: 0x1F0, symBinAddr: 0x58D60, symSize: 0x10 }
  - { offset: 0x2F2034, size: 0x8, addend: 0x0, symName: __ZNK10llama_file7file_idEv, symObjAddr: 0x200, symBinAddr: 0x58D70, symSize: 0x10 }
  - { offset: 0x2F2094, size: 0x8, addend: 0x0, symName: __ZNK10llama_file4seekEmi, symObjAddr: 0x210, symBinAddr: 0x58D80, symSize: 0x10 }
  - { offset: 0x2F2116, size: 0x8, addend: 0x0, symName: __ZNK10llama_file4impl4seekEmi, symObjAddr: 0x220, symBinAddr: 0x58D90, symSize: 0xC0 }
  - { offset: 0x2F22E8, size: 0x8, addend: 0x0, symName: __ZNK10llama_file8read_rawEPvm, symObjAddr: 0x2E0, symBinAddr: 0x58E50, symSize: 0x10 }
  - { offset: 0x2F236A, size: 0x8, addend: 0x0, symName: __ZNK10llama_file4impl8read_rawEPvm, symObjAddr: 0x2F0, symBinAddr: 0x58E60, symSize: 0x130 }
  - { offset: 0x2F2598, size: 0x8, addend: 0x0, symName: __ZNK10llama_file8read_u32Ev, symObjAddr: 0x420, symBinAddr: 0x58F90, symSize: 0x30 }
  - { offset: 0x2F2622, size: 0x8, addend: 0x0, symName: __ZNK10llama_file9write_rawEPKvm, symObjAddr: 0x450, symBinAddr: 0x58FC0, symSize: 0x10 }
  - { offset: 0x2F26A4, size: 0x8, addend: 0x0, symName: __ZNK10llama_file4impl9write_rawEPKvm, symObjAddr: 0x460, symBinAddr: 0x58FD0, symSize: 0xE0 }
  - { offset: 0x2F28B0, size: 0x8, addend: 0x0, symName: __ZNK10llama_file9write_u32Ej, symObjAddr: 0x540, symBinAddr: 0x590B0, symSize: 0x30 }
  - { offset: 0x2F2AAD, size: 0x8, addend: 0x0, symName: __ZN10llama_mmapC2EP10llama_filemb, symObjAddr: 0x570, symBinAddr: 0x590E0, symSize: 0x60 }
  - { offset: 0x2F2BDE, size: 0x8, addend: 0x0, symName: __ZN10llama_mmap4implC2EP10llama_filemb, symObjAddr: 0x1160, symBinAddr: 0x59C00, symSize: 0x2E0 }
  - { offset: 0x2F365B, size: 0x8, addend: 0x0, symName: __ZN10llama_mmapC1EP10llama_filemb, symObjAddr: 0x5D0, symBinAddr: 0x59140, symSize: 0x60 }
  - { offset: 0x2F3884, size: 0x8, addend: 0x0, symName: __ZN10llama_mmapD2Ev, symObjAddr: 0x630, symBinAddr: 0x591A0, symSize: 0x40 }
  - { offset: 0x2F3960, size: 0x8, addend: 0x0, symName: __ZN10llama_mmap4implD2Ev, symObjAddr: 0x1440, symBinAddr: 0x59EE0, symSize: 0xA0 }
  - { offset: 0x2F3BBD, size: 0x8, addend: 0x0, symName: __ZN10llama_mmapD1Ev, symObjAddr: 0x670, symBinAddr: 0x591E0, symSize: 0x40 }
  - { offset: 0x2F3CDF, size: 0x8, addend: 0x0, symName: __ZNK10llama_mmap4sizeEv, symObjAddr: 0x6B0, symBinAddr: 0x59220, symSize: 0x10 }
  - { offset: 0x2F3D24, size: 0x8, addend: 0x0, symName: __ZNK10llama_mmap4addrEv, symObjAddr: 0x6C0, symBinAddr: 0x59230, symSize: 0x10 }
  - { offset: 0x2F3D69, size: 0x8, addend: 0x0, symName: __ZN10llama_mmap14unmap_fragmentEmm, symObjAddr: 0x6D0, symBinAddr: 0x59240, symSize: 0x10 }
  - { offset: 0x2F3DEB, size: 0x8, addend: 0x0, symName: __ZN10llama_mmap4impl14unmap_fragmentEmm, symObjAddr: 0x6E0, symBinAddr: 0x59250, symSize: 0x6E0 }
  - { offset: 0x2F6554, size: 0x8, addend: 0x0, symName: __ZNKSt3__16vectorINS_4pairImmEENS_9allocatorIS2_EEE20__throw_length_errorB8ne180100Ev, symObjAddr: 0xFA0, symBinAddr: 0x59B00, symSize: 0x10 }
  - { offset: 0x2F66D5, size: 0x8, addend: 0x0, symName: __ZN11llama_mlockC2Ev, symObjAddr: 0xDC0, symBinAddr: 0x59930, symSize: 0x30 }
  - { offset: 0x2F6804, size: 0x8, addend: 0x0, symName: __ZN11llama_mlockC1Ev, symObjAddr: 0xDF0, symBinAddr: 0x59960, symSize: 0x30 }
  - { offset: 0x2F69C2, size: 0x8, addend: 0x0, symName: __ZN11llama_mlockD2Ev, symObjAddr: 0xE20, symBinAddr: 0x59990, symSize: 0x20 }
  - { offset: 0x2F6A83, size: 0x8, addend: 0x0, symName: __ZN11llama_mlockD1Ev, symObjAddr: 0xE40, symBinAddr: 0x599B0, symSize: 0x20 }
  - { offset: 0x2F6B8D, size: 0x8, addend: 0x0, symName: __ZN11llama_mlock4initEPv, symObjAddr: 0xE60, symBinAddr: 0x599D0, symSize: 0x40 }
  - { offset: 0x2F6C11, size: 0x8, addend: 0x0, symName: __ZN11llama_mlock7grow_toEm, symObjAddr: 0xEA0, symBinAddr: 0x59A10, symSize: 0x10 }
  - { offset: 0x2F6C7D, size: 0x8, addend: 0x0, symName: __ZN11llama_mlock4impl7grow_toEm, symObjAddr: 0xEB0, symBinAddr: 0x59A20, symSize: 0xD0 }
  - { offset: 0x2F6E08, size: 0x8, addend: 0x0, symName: __Z14llama_path_maxv, symObjAddr: 0xF80, symBinAddr: 0x59AF0, symSize: 0x10 }
  - { offset: 0x31DCFC, size: 0x8, addend: 0x0, symName: __ZNSt3__120__throw_future_errorB8ne180100ENS_11future_errcE, symObjAddr: 0xBC40, symBinAddr: 0x64F50, symSize: 0x60 }
  - { offset: 0x31EF06, size: 0x8, addend: 0x0, symName: '__ZNSt3__114__thread_proxyB8ne180100INS_5tupleIJNS_10unique_ptrINS_15__thread_structENS_14default_deleteIS3_EEEEMNS_19__async_assoc_stateINS_4pairIP11ggml_tensorbEENS_12__async_funcIZN18llama_model_loader13load_all_dataEP12ggml_contextRNS_13unordered_mapIjP19ggml_backend_bufferNS_4hashIjEENS_8equal_toIjEENS_9allocatorINS8_IKjSI_EEEEEEPNS_6vectorINS2_I11llama_mlockNS4_ISU_EEEENSN_ISW_EEEEPFbfPvES10_E3$_1JEEEEEFvvEPS15_EEEEES10_S10_', symObjAddr: 0xBCA0, symBinAddr: 0x64FB0, symSize: 0x90 }
  - { offset: 0x31F4D4, size: 0x8, addend: 0x0, symName: '__ZNSt3__114__thread_proxyB8ne180100INS_5tupleIJNS_10unique_ptrINS_15__thread_structENS_14default_deleteIS3_EEEEMNS_19__async_assoc_stateINS_4pairIP11ggml_tensorbEENS_12__async_funcIZN18llama_model_loader13load_all_dataEP12ggml_contextRNS_13unordered_mapIjP19ggml_backend_bufferNS_4hashIjEENS_8equal_toIjEENS_9allocatorINS8_IKjSI_EEEEEEPNS_6vectorINS2_I11llama_mlockNS4_ISU_EEEENSN_ISW_EEEEPFbfPvES10_E3$_2JEEEEEFvvEPS15_EEEEES10_S10_', symObjAddr: 0xC190, symBinAddr: 0x654A0, symSize: 0x90 }
  - { offset: 0x32477F, size: 0x8, addend: 0x0, symName: __ZN18llama_model_loader13load_all_dataEP12ggml_contextRNSt3__113unordered_mapIjP19ggml_backend_bufferNS2_4hashIjEENS2_8equal_toIjEENS2_9allocatorINS2_4pairIKjS5_EEEEEEPNS2_6vectorINS2_10unique_ptrI11llama_mlockNS2_14default_deleteISJ_EEEENSA_ISM_EEEEPFbfPvESQ_, symObjAddr: 0x5A90, symBinAddr: 0x5F850, symSize: 0x1DB0 }
  - { offset: 0x329704, size: 0x8, addend: 0x0, symName: __Z23llama_file_version_name10llama_fver, symObjAddr: 0x0, symBinAddr: 0x59F80, symSize: 0x30 }
  - { offset: 0x3297E9, size: 0x8, addend: 0x0, symName: __ZN18llama_model_loader9get_arr_nIjEENSt3__19enable_ifIXsr3std11is_integralIT_EE5valueEbE4typeE6llm_kvRS3_b, symObjAddr: 0x30, symBinAddr: 0x59FB0, symSize: 0x80 }
  - { offset: 0x329ABC, size: 0x8, addend: 0x0, symName: __ZN18llama_model_loader9get_arr_nIjEENSt3__19enable_ifIXsr3std11is_integralIT_EE5valueEbE4typeERKNS1_12basic_stringIcNS1_11char_traitsIcEENS1_9allocatorIcEEEERS3_b, symObjAddr: 0xB0, symBinAddr: 0x5A030, symSize: 0x110 }
  - { offset: 0x329E3E, size: 0x8, addend: 0x0, symName: __ZN8GGUFMeta3GKVINS_9ArrayInfoEE6get_kvEPK12gguf_contexti, symObjAddr: 0x81C0, symBinAddr: 0x61E20, symSize: 0x130 }
  - { offset: 0x32A09C, size: 0x8, addend: 0x0, symName: __ZN18llama_model_loader7get_arrINSt3__16vectorINS1_12basic_stringIcNS1_11char_traitsIcEENS1_9allocatorIcEEEENS6_IS8_EEEEEEb6llm_kvRT_b, symObjAddr: 0x1C0, symBinAddr: 0x5A140, symSize: 0x80 }
  - { offset: 0x32A36F, size: 0x8, addend: 0x0, symName: __ZN18llama_model_loader7get_arrINSt3__112basic_stringIcNS1_11char_traitsIcEENS1_9allocatorIcEEEEEEbRKS7_RNS1_6vectorIT_NS5_ISB_EEEEb, symObjAddr: 0x240, symBinAddr: 0x5A1C0, symSize: 0x3C0 }
  - { offset: 0x32B726, size: 0x8, addend: 0x0, symName: __ZNSt3__16vectorINS_12basic_stringIcNS_11char_traitsIcEENS_9allocatorIcEEEENS4_IS6_EEE24__emplace_back_slow_pathIJRKS6_EEEPS6_DpOT_, symObjAddr: 0x82F0, symBinAddr: 0x61F50, symSize: 0x1F0 }
  - { offset: 0x32C0C1, size: 0x8, addend: 0x0, symName: __ZNSt3__16vectorINS_12basic_stringIcNS_11char_traitsIcEENS_9allocatorIcEEEENS4_IS6_EEE21__push_back_slow_pathIS6_EEPS6_OT_, symObjAddr: 0x7F90, symBinAddr: 0x61C60, symSize: 0x190 }
  - { offset: 0x32C0EC, size: 0x8, addend: 0x0, symName: __ZN18llama_model_loader7get_keyIbEEb6llm_kvRT_b, symObjAddr: 0x600, symBinAddr: 0x5A580, symSize: 0x80 }
  - { offset: 0x32C3BF, size: 0x8, addend: 0x0, symName: __ZN18llama_model_loader7get_keyIbEEbRKNSt3__112basic_stringIcNS1_11char_traitsIcEENS1_9allocatorIcEEEERT_b, symObjAddr: 0x680, symBinAddr: 0x5A600, symSize: 0x140 }
  - { offset: 0x32C8EF, size: 0x8, addend: 0x0, symName: __ZNSt3__112__hash_tableINS_17__hash_value_typeINS_12basic_stringIcNS_11char_traitsIcEENS_9allocatorIcEEEE23llama_model_kv_overrideEENS_22__unordered_map_hasherIS7_S9_NS_4hashIS7_EENS_8equal_toIS7_EELb1EEENS_21__unordered_map_equalIS7_S9_SE_SC_Lb1EEENS5_IS9_EEE4findIS7_EENS_15__hash_iteratorIPNS_11__hash_nodeIS9_PvEEEERKT_, symObjAddr: 0x8570, symBinAddr: 0x62140, symSize: 0x2D0 }
  - { offset: 0x32CBEF, size: 0x8, addend: 0x0, symName: __ZN8GGUFMeta3GKVIbE17validate_overrideE28llama_model_kv_override_typePK23llama_model_kv_override, symObjAddr: 0x8DD0, symBinAddr: 0x62500, symSize: 0x210 }
  - { offset: 0x32CDFF, size: 0x8, addend: 0x0, symName: __ZN8GGUFMeta3GKVIbE6get_kvEPK12gguf_contexti, symObjAddr: 0x8CE0, symBinAddr: 0x62410, symSize: 0xF0 }
  - { offset: 0x32CFF1, size: 0x8, addend: 0x0, symName: __ZN18llama_model_loader7get_keyIfEEb6llm_kvRT_b, symObjAddr: 0x7C0, symBinAddr: 0x5A740, symSize: 0x80 }
  - { offset: 0x32D2C4, size: 0x8, addend: 0x0, symName: __ZN18llama_model_loader7get_keyIfEEbRKNSt3__112basic_stringIcNS1_11char_traitsIcEENS1_9allocatorIcEEEERT_b, symObjAddr: 0x840, symBinAddr: 0x5A7C0, symSize: 0x140 }
  - { offset: 0x32D7C3, size: 0x8, addend: 0x0, symName: __ZN8GGUFMeta3GKVIfE17validate_overrideE28llama_model_kv_override_typePK23llama_model_kv_override, symObjAddr: 0x90D0, symBinAddr: 0x62800, symSize: 0x210 }
  - { offset: 0x32D9D3, size: 0x8, addend: 0x0, symName: __ZN8GGUFMeta3GKVIfE6get_kvEPK12gguf_contexti, symObjAddr: 0x8FE0, symBinAddr: 0x62710, symSize: 0xF0 }
  - { offset: 0x32DBC5, size: 0x8, addend: 0x0, symName: __ZN18llama_model_loader7get_keyIjEEb6llm_kvRT_b, symObjAddr: 0x980, symBinAddr: 0x5A900, symSize: 0x80 }
  - { offset: 0x32DE72, size: 0x8, addend: 0x0, symName: __ZN18llama_model_loader7get_keyIjEEbRKNSt3__112basic_stringIcNS1_11char_traitsIcEENS1_9allocatorIcEEEERT_b, symObjAddr: 0xA00, symBinAddr: 0x5A980, symSize: 0x130 }
  - { offset: 0x32E371, size: 0x8, addend: 0x0, symName: __ZN8GGUFMeta3GKVIjE17validate_overrideE28llama_model_kv_override_typePK23llama_model_kv_override, symObjAddr: 0x93D0, symBinAddr: 0x62B00, symSize: 0x210 }
  - { offset: 0x32E581, size: 0x8, addend: 0x0, symName: __ZN8GGUFMeta3GKVIjE6get_kvEPK12gguf_contexti, symObjAddr: 0x92E0, symBinAddr: 0x62A10, symSize: 0xF0 }
  - { offset: 0x32E773, size: 0x8, addend: 0x0, symName: __ZN18llama_model_loader7get_keyINSt3__112basic_stringIcNS1_11char_traitsIcEENS1_9allocatorIcEEEEEEb6llm_kvRT_b, symObjAddr: 0xB30, symBinAddr: 0x5AAB0, symSize: 0x80 }
  - { offset: 0x32EA46, size: 0x8, addend: 0x0, symName: __ZN18llama_model_loader7get_keyINSt3__112basic_stringIcNS1_11char_traitsIcEENS1_9allocatorIcEEEEEEbRKS7_RT_b, symObjAddr: 0xBB0, symBinAddr: 0x5AB30, symSize: 0x160 }
  - { offset: 0x32F12B, size: 0x8, addend: 0x0, symName: __ZN8GGUFMeta3GKVINSt3__112basic_stringIcNS1_11char_traitsIcEENS1_9allocatorIcEEEEE17validate_overrideE28llama_model_kv_override_typePK23llama_model_kv_override, symObjAddr: 0x9760, symBinAddr: 0x62E90, symSize: 0x210 }
  - { offset: 0x32F33B, size: 0x8, addend: 0x0, symName: __ZN8GGUFMeta3GKVINSt3__112basic_stringIcNS1_11char_traitsIcEENS1_9allocatorIcEEEEE6get_kvEPK12gguf_contexti, symObjAddr: 0x95E0, symBinAddr: 0x62D10, symSize: 0x180 }
  - { offset: 0x32F9B4, size: 0x8, addend: 0x0, symName: __ZN18llama_model_loader7get_keyI18llama_pooling_typeEEb6llm_kvRT_b, symObjAddr: 0xD10, symBinAddr: 0x5AC90, symSize: 0x90 }
  - { offset: 0x32FCD1, size: 0x8, addend: 0x0, symName: __ZN18llama_model_loader14get_key_or_arrINSt3__15arrayIiLm4EEEEEb6llm_kvRT_jb, symObjAddr: 0xDA0, symBinAddr: 0x5AD20, symSize: 0x90 }
  - { offset: 0x32FFBB, size: 0x8, addend: 0x0, symName: __ZN18llama_model_loader14get_key_or_arrIiLm4EEEbRKNSt3__112basic_stringIcNS1_11char_traitsIcEENS1_9allocatorIcEEEERNS1_5arrayIT_XT0_EEEjb, symObjAddr: 0xE30, symBinAddr: 0x5ADB0, symSize: 0x300 }
  - { offset: 0x330662, size: 0x8, addend: 0x0, symName: __ZN18llama_model_loader7get_arrIiLm4EEEbRKNSt3__112basic_stringIcNS1_11char_traitsIcEENS1_9allocatorIcEEEERNS1_5arrayIT_XT0_EEEb, symObjAddr: 0x9970, symBinAddr: 0x630A0, symSize: 0x260 }
  - { offset: 0x330C29, size: 0x8, addend: 0x0, symName: __ZN18llama_model_loader7get_keyIiEEbRKNSt3__112basic_stringIcNS1_11char_traitsIcEENS1_9allocatorIcEEEERT_b, symObjAddr: 0x4250, symBinAddr: 0x5E090, symSize: 0x130 }
  - { offset: 0x331060, size: 0x8, addend: 0x0, symName: __ZN18llama_model_loader14get_key_or_arrINSt3__15arrayIjLm512EEEEEb6llm_kvRT_jb, symObjAddr: 0x1130, symBinAddr: 0x5B0B0, symSize: 0x90 }
  - { offset: 0x33134A, size: 0x8, addend: 0x0, symName: __ZN18llama_model_loader14get_key_or_arrIjLm512EEEbRKNSt3__112basic_stringIcNS1_11char_traitsIcEENS1_9allocatorIcEEEERNS1_5arrayIT_XT0_EEEjb, symObjAddr: 0x11C0, symBinAddr: 0x5B140, symSize: 0x2D0 }
  - { offset: 0x331A04, size: 0x8, addend: 0x0, symName: __ZN18llama_model_loader7get_arrIjLm512EEEbRKNSt3__112basic_stringIcNS1_11char_traitsIcEENS1_9allocatorIcEEEERNS1_5arrayIT_XT0_EEEb, symObjAddr: 0x9BD0, symBinAddr: 0x63300, symSize: 0x270 }
  - { offset: 0x3343A2, size: 0x8, addend: 0x0, symName: __ZN18llama_model_loaderC2ERKNSt3__112basic_stringIcNS0_11char_traitsIcEENS0_9allocatorIcEEEERNS0_6vectorIS6_NS4_IS6_EEEEbbPK23llama_model_kv_overridePK32llama_model_tensor_buft_override, symObjAddr: 0x1490, symBinAddr: 0x5B410, symSize: 0x2B50 }
  - { offset: 0x33D58E, size: 0x8, addend: 0x0, symName: __ZNSt3__112__hash_tableINS_17__hash_value_typeINS_12basic_stringIcNS_11char_traitsIcEENS_9allocatorIcEEEE23llama_model_kv_overrideEENS_22__unordered_map_hasherIS7_S9_NS_4hashIS7_EENS_8equal_toIS7_EELb1EEENS_21__unordered_map_equalIS7_S9_SE_SC_Lb1EEENS5_IS9_EEE25__emplace_unique_key_argsIS7_JNS_4pairIKS7_S8_EEEEENSL_INS_15__hash_iteratorIPNS_11__hash_nodeIS9_PvEEEEbEERKT_DpOT0_, symObjAddr: 0x9E90, symBinAddr: 0x635C0, symSize: 0x640 }
  - { offset: 0x33DFDE, size: 0x8, addend: 0x0, symName: __ZNSt3__16vectorINS_10unique_ptrI10llama_fileNS_14default_deleteIS2_EEEENS_9allocatorIS5_EEE24__emplace_back_slow_pathIJPS2_EEEPS5_DpOT_, symObjAddr: 0xA720, symBinAddr: 0x63E50, symSize: 0x220 }
  - { offset: 0x33EAEC, size: 0x8, addend: 0x0, symName: __ZNK18llama_model_loader20weight_name_comparerclERKNSt3__112basic_stringIcNS1_11char_traitsIcEENS1_9allocatorIcEEEES9_, symObjAddr: 0xAB80, symBinAddr: 0x64080, symSize: 0xE0 }
  - { offset: 0x33EDB9, size: 0x8, addend: 0x0, symName: __ZN18llama_model_loader19llama_tensor_weightC2EPK10llama_filetPK12gguf_contextP11ggml_tensor, symObjAddr: 0x7D20, symBinAddr: 0x61AD0, symSize: 0x190 }
  - { offset: 0x33EFB6, size: 0x8, addend: 0x0, symName: __ZNSt3__16__treeINS_12__value_typeINS_12basic_stringIcNS_11char_traitsIcEENS_9allocatorIcEEEEN18llama_model_loader19llama_tensor_weightEEENS_19__map_value_compareIS7_SA_NS8_20weight_name_comparerELb1EEENS5_ISA_EEE25__emplace_unique_key_argsIS7_JRS7_S9_EEENS_4pairINS_15__tree_iteratorISA_PNS_11__tree_nodeISA_PvEElEEbEERKT_DpOT0_, symObjAddr: 0xAC60, symBinAddr: 0x64160, symSize: 0x150 }
  - { offset: 0x33F4C6, size: 0x8, addend: 0x0, symName: __ZN8GGUFMeta3GKVItE17validate_overrideE28llama_model_kv_override_typePK23llama_model_kv_override, symObjAddr: 0xB000, symBinAddr: 0x643A0, symSize: 0x210 }
  - { offset: 0x33F6D6, size: 0x8, addend: 0x0, symName: __ZN8GGUFMeta3GKVItE6get_kvEPK12gguf_contexti, symObjAddr: 0xAF10, symBinAddr: 0x642B0, symSize: 0xF0 }
  - { offset: 0x33F8D6, size: 0x8, addend: 0x0, symName: __ZN18llama_model_loader7get_keyItEEbRKNSt3__112basic_stringIcNS1_11char_traitsIcEENS1_9allocatorIcEEEERT_b, symObjAddr: 0x4080, symBinAddr: 0x5DF60, symSize: 0x130 }
  - { offset: 0x33FD2D, size: 0x8, addend: 0x0, symName: __ZNSt3__16vectorINS_12basic_stringIcNS_11char_traitsIcEENS_9allocatorIcEEEENS4_IS6_EEE21__push_back_slow_pathIS6_EEPS6_OT_, symObjAddr: 0x7F90, symBinAddr: 0x61C60, symSize: 0x190 }
  - { offset: 0x34043A, size: 0x8, addend: 0x0, symName: __ZNSt3__16__treeINS_12__value_typeI9ggml_typejEENS_19__map_value_compareIS2_S3_NS_4lessIS2_EELb1EEENS_9allocatorIS3_EEE7destroyEPNS_11__tree_nodeIS3_PvEE, symObjAddr: 0xB510, symBinAddr: 0x648B0, symSize: 0x40 }
  - { offset: 0x34089B, size: 0x8, addend: 0x0, symName: __ZNSt3__113unordered_mapINS_12basic_stringIcNS_11char_traitsIcEENS_9allocatorIcEEEE23llama_model_kv_overrideNS_4hashIS6_EENS_8equal_toIS6_EENS4_INS_4pairIKS6_S7_EEEEED1B8ne180100Ev, symObjAddr: 0x4400, symBinAddr: 0x5E1C0, symSize: 0x70 }
  - { offset: 0x340CCC, size: 0x8, addend: 0x0, symName: __ZNSt3__16__treeINS_12__value_typeINS_12basic_stringIcNS_11char_traitsIcEENS_9allocatorIcEEEEN18llama_model_loader19llama_tensor_weightEEENS_19__map_value_compareIS7_SA_NS8_20weight_name_comparerELb1EEENS5_ISA_EEE7destroyEPNS_11__tree_nodeISA_PvEE, symObjAddr: 0x9E40, symBinAddr: 0x63570, symSize: 0x50 }
  - { offset: 0x340F96, size: 0x8, addend: 0x0, symName: __ZNSt3__16vectorINS_10unique_ptrI10llama_mmapNS_14default_deleteIS2_EEEENS_9allocatorIS5_EEED1B8ne180100Ev, symObjAddr: 0x4470, symBinAddr: 0x5E230, symSize: 0x80 }
  - { offset: 0x34116E, size: 0x8, addend: 0x0, symName: __ZNSt3__16vectorINS_10unique_ptrI10llama_fileNS_14default_deleteIS2_EEEENS_9allocatorIS5_EEED1B8ne180100Ev, symObjAddr: 0x44F0, symBinAddr: 0x5E2B0, symSize: 0x80 }
  - { offset: 0x3416F8, size: 0x8, addend: 0x0, symName: __ZN8GGUFMeta3GKVIiE17validate_overrideE28llama_model_kv_override_typePK23llama_model_kv_override, symObjAddr: 0xB300, symBinAddr: 0x646A0, symSize: 0x210 }
  - { offset: 0x341908, size: 0x8, addend: 0x0, symName: __ZN8GGUFMeta3GKVIiE6get_kvEPK12gguf_contexti, symObjAddr: 0xB210, symBinAddr: 0x645B0, symSize: 0xF0 }
  - { offset: 0x342200, size: 0x8, addend: 0x0, symName: __ZN18llama_model_loaderC1ERKNSt3__112basic_stringIcNS0_11char_traitsIcEENS0_9allocatorIcEEEERNS0_6vectorIS6_NS4_IS6_EEEEbbPK23llama_model_kv_overridePK32llama_model_tensor_buft_override, symObjAddr: 0x4570, symBinAddr: 0x5E330, symSize: 0x10 }
  - { offset: 0x3422D8, size: 0x8, addend: 0x0, symName: __ZNK18llama_model_loader13get_arch_nameEv, symObjAddr: 0x4580, symBinAddr: 0x5E340, symSize: 0x50 }
  - { offset: 0x34237C, size: 0x8, addend: 0x0, symName: __ZNK18llama_model_loader8get_archEv, symObjAddr: 0x45D0, symBinAddr: 0x5E390, symSize: 0x10 }
  - { offset: 0x34247F, size: 0x8, addend: 0x0, symName: __ZNK18llama_model_loader10get_weightEPKc, symObjAddr: 0x45E0, symBinAddr: 0x5E3A0, symSize: 0x150 }
  - { offset: 0x342D3D, size: 0x8, addend: 0x0, symName: __ZNK18llama_model_loader14require_weightEPKc, symObjAddr: 0x4730, symBinAddr: 0x5E4F0, symSize: 0xC0 }
  - { offset: 0x342ED4, size: 0x8, addend: 0x0, symName: __ZNK18llama_model_loader15get_tensor_metaEPKc, symObjAddr: 0x47F0, symBinAddr: 0x5E5B0, symSize: 0x20 }
  - { offset: 0x342F5A, size: 0x8, addend: 0x0, symName: __ZNK18llama_model_loader19require_tensor_metaERKNSt3__112basic_stringIcNS0_11char_traitsIcEENS0_9allocatorIcEEEE, symObjAddr: 0x4810, symBinAddr: 0x5E5D0, symSize: 0xE0 }
  - { offset: 0x3431FC, size: 0x8, addend: 0x0, symName: __ZNK18llama_model_loader17check_tensor_dimsERKNSt3__112basic_stringIcNS0_11char_traitsIcEENS0_9allocatorIcEEEERKNS0_6vectorIxNS4_IxEEEEb, symObjAddr: 0x48F0, symBinAddr: 0x5E6B0, symSize: 0x250 }
  - { offset: 0x343CAE, size: 0x8, addend: 0x0, symName: __ZN18llama_model_loader13create_tensorEP12ggml_contextRKNSt3__112basic_stringIcNS2_11char_traitsIcEENS2_9allocatorIcEEEERKSt16initializer_listIxEi, symObjAddr: 0x4B40, symBinAddr: 0x5E900, symSize: 0x140 }
  - { offset: 0x344226, size: 0x8, addend: 0x0, symName: __ZNKSt3__16vectorIxNS_9allocatorIxEEE20__throw_length_errorB8ne180100Ev, symObjAddr: 0xB5D0, symBinAddr: 0x648F0, symSize: 0x10 }
  - { offset: 0x344250, size: 0x8, addend: 0x0, symName: __ZNKSt3__16vectorINS_10unique_ptrI10llama_mmapNS_14default_deleteIS2_EEEENS_9allocatorIS5_EEE20__throw_length_errorB8ne180100Ev, symObjAddr: 0xB5E0, symBinAddr: 0x64900, symSize: 0x10 }
  - { offset: 0x34425B, size: 0x8, addend: 0x0, symName: __ZN18llama_model_loader21create_tensor_as_viewEP12ggml_contextP11ggml_tensorRKNSt3__112basic_stringIcNS4_11char_traitsIcEENS4_9allocatorIcEEEERKSt16initializer_listIxEmb, symObjAddr: 0x4C80, symBinAddr: 0x5EA40, symSize: 0x270 }
  - { offset: 0x344A57, size: 0x8, addend: 0x0, symName: __ZNK18llama_model_loader20done_getting_tensorsEv, symObjAddr: 0x4EF0, symBinAddr: 0x5ECB0, symSize: 0xC0 }
  - { offset: 0x345860, size: 0x8, addend: 0x0, symName: __ZN18llama_model_loader13init_mappingsEbPNSt3__16vectorINS0_10unique_ptrI11llama_mlockNS0_14default_deleteIS3_EEEENS0_9allocatorIS6_EEEE, symObjAddr: 0x4FB0, symBinAddr: 0x5ED70, symSize: 0x500 }
  - { offset: 0x346B33, size: 0x8, addend: 0x0, symName: __ZNSt3__16vectorINS_10unique_ptrI10llama_mmapNS_14default_deleteIS2_EEEENS_9allocatorIS5_EEE7reserveEm, symObjAddr: 0x54B0, symBinAddr: 0x5F270, symSize: 0x1F0 }
  - { offset: 0x34709A, size: 0x8, addend: 0x0, symName: __ZNSt3__16vectorINS_10unique_ptrI11llama_mlockNS_14default_deleteIS2_EEEENS_9allocatorIS5_EEE24__emplace_back_slow_pathIJS5_EEEPS5_DpOT_, symObjAddr: 0xB600, symBinAddr: 0x64910, symSize: 0x220 }
  - { offset: 0x347741, size: 0x8, addend: 0x0, symName: __ZNSt3__16vectorINS_10unique_ptrI10llama_mmapNS_14default_deleteIS2_EEEENS_9allocatorIS5_EEE24__emplace_back_slow_pathIJS5_EEEPS5_DpOT_, symObjAddr: 0xB830, symBinAddr: 0x64B40, symSize: 0x220 }
  - { offset: 0x347E00, size: 0x8, addend: 0x0, symName: __ZNSt3__16vectorINS_10unique_ptrI11llama_mlockNS_14default_deleteIS2_EEEENS_9allocatorIS5_EEE24__emplace_back_slow_pathIJS5_EEEPS5_DpOT_, symObjAddr: 0xB600, symBinAddr: 0x64910, symSize: 0x220 }
  - { offset: 0x347E0B, size: 0x8, addend: 0x0, symName: __ZNSt3__110unique_ptrI10llama_mmapNS_14default_deleteIS1_EEED1B8ne180100Ev, symObjAddr: 0x56E0, symBinAddr: 0x5F4A0, symSize: 0x40 }
  - { offset: 0x347E98, size: 0x8, addend: 0x0, symName: __ZNSt3__110unique_ptrI11llama_mlockNS_14default_deleteIS1_EEED1B8ne180100Ev, symObjAddr: 0x56A0, symBinAddr: 0x5F460, symSize: 0x40 }
  - { offset: 0x348116, size: 0x8, addend: 0x0, symName: __ZNKSt3__16vectorINS_10unique_ptrI10llama_mmapNS_14default_deleteIS2_EEEENS_9allocatorIS5_EEE20__throw_length_errorB8ne180100Ev, symObjAddr: 0xB5E0, symBinAddr: 0x64900, symSize: 0x10 }
  - { offset: 0x3481CD, size: 0x8, addend: 0x0, symName: __ZNK18llama_model_loader17get_mapping_rangeEPmS0_PPviP12ggml_context, symObjAddr: 0x5720, symBinAddr: 0x5F4E0, symSize: 0x150 }
  - { offset: 0x348461, size: 0x8, addend: 0x0, symName: __ZNKSt3__16vectorINS_10unique_ptrI10llama_mmapNS_14default_deleteIS2_EEEENS_9allocatorIS5_EEE20__throw_out_of_rangeB8ne180100Ev, symObjAddr: 0xBA50, symBinAddr: 0x64D60, symSize: 0x10 }
  - { offset: 0x34848B, size: 0x8, addend: 0x0, symName: __ZNKSt3__16vectorINS_10unique_ptrI10llama_fileNS_14default_deleteIS2_EEEENS_9allocatorIS5_EEE20__throw_out_of_rangeB8ne180100Ev, symObjAddr: 0xBA60, symBinAddr: 0x64D70, symSize: 0x10 }
  - { offset: 0x3484AC, size: 0x8, addend: 0x0, symName: __ZNK18llama_model_loader13load_data_forEP11ggml_tensor, symObjAddr: 0x5870, symBinAddr: 0x5F630, symSize: 0x220 }
  - { offset: 0x34B655, size: 0x8, addend: 0x0, symName: __ZNSt3__16vectorINS_6futureINS_4pairIP11ggml_tensorbEEEENS_9allocatorIS6_EEE24__emplace_back_slow_pathIJS6_EEEPS6_DpOT_, symObjAddr: 0xBD80, symBinAddr: 0x65090, symSize: 0x220 }
  - { offset: 0x34BC5B, size: 0x8, addend: 0x0, symName: __ZNSt3__113__assoc_stateINS_4pairIP11ggml_tensorbEEE4moveEv, symObjAddr: 0xC280, symBinAddr: 0x65590, symSize: 0xC0 }
  - { offset: 0x34BEE3, size: 0x8, addend: 0x0, symName: __ZNKSt3__16vectorINS_10unique_ptrI10llama_fileNS_14default_deleteIS2_EEEENS_9allocatorIS5_EEE20__throw_out_of_rangeB8ne180100Ev, symObjAddr: 0xBA60, symBinAddr: 0x64D70, symSize: 0x10 }
  - { offset: 0x34BF0D, size: 0x8, addend: 0x0, symName: '__ZNSt3__119__async_assoc_stateINS_4pairIP11ggml_tensorbEENS_12__async_funcIZN18llama_model_loader13load_all_dataEP12ggml_contextRNS_13unordered_mapIjP19ggml_backend_bufferNS_4hashIjEENS_8equal_toIjEENS_9allocatorINS1_IKjSB_EEEEEEPNS_6vectorINS_10unique_ptrI11llama_mlockNS_14default_deleteISO_EEEENSG_ISR_EEEEPFbfPvESV_E3$_1JEEEED1Ev', symObjAddr: 0xBA70, symBinAddr: 0x64D80, symSize: 0x40 }
  - { offset: 0x34BF18, size: 0x8, addend: 0x0, symName: __ZNKSt3__16vectorINS_4pairImmEENS_9allocatorIS2_EEE20__throw_out_of_rangeB8ne180100Ev, symObjAddr: 0xC340, symBinAddr: 0x65650, symSize: 0x10 }
  - { offset: 0x34BF4D, size: 0x8, addend: 0x0, symName: __ZNKSt3__16vectorINS_10unique_ptrI11llama_mlockNS_14default_deleteIS2_EEEENS_9allocatorIS5_EEE20__throw_out_of_rangeB8ne180100Ev, symObjAddr: 0xBFB0, symBinAddr: 0x652C0, symSize: 0x10 }
  - { offset: 0x34BF77, size: 0x8, addend: 0x0, symName: '__ZNSt3__119__async_assoc_stateINS_4pairIP11ggml_tensorbEENS_12__async_funcIZN18llama_model_loader13load_all_dataEP12ggml_contextRNS_13unordered_mapIjP19ggml_backend_bufferNS_4hashIjEENS_8equal_toIjEENS_9allocatorINS1_IKjSB_EEEEEEPNS_6vectorINS_10unique_ptrI11llama_mlockNS_14default_deleteISO_EEEENSG_ISR_EEEEPFbfPvESV_E3$_2JEEEED1Ev', symObjAddr: 0xBFC0, symBinAddr: 0x652D0, symSize: 0x40 }
  - { offset: 0x34BF82, size: 0x8, addend: 0x0, symName: __ZNKSt3__16vectorI7no_initIhENS_9allocatorIS2_EEE20__throw_length_errorB8ne180100Ev, symObjAddr: 0xC270, symBinAddr: 0x65580, symSize: 0x10 }
  - { offset: 0x34BFAC, size: 0x8, addend: 0x0, symName: __ZNSt3__113__assoc_stateINS_4pairIP11ggml_tensorbEEE4moveEv, symObjAddr: 0xC280, symBinAddr: 0x65590, symSize: 0xC0 }
  - { offset: 0x34BFB7, size: 0x8, addend: 0x0, symName: __ZNKSt3__16vectorIP19ggml_backend_bufferNS_9allocatorIS2_EEE20__throw_length_errorB8ne180100Ev, symObjAddr: 0x8190, symBinAddr: 0x61DF0, symSize: 0x10 }
  - { offset: 0x34BFE1, size: 0x8, addend: 0x0, symName: __ZNKSt3__16vectorIPvNS_9allocatorIS1_EEE20__throw_length_errorB8ne180100Ev, symObjAddr: 0x81A0, symBinAddr: 0x61E00, symSize: 0x10 }
  - { offset: 0x34BFEC, size: 0x8, addend: 0x0, symName: __ZNKSt3__16vectorIPvNS_9allocatorIS1_EEE20__throw_length_errorB8ne180100Ev, symObjAddr: 0x81A0, symBinAddr: 0x61E00, symSize: 0x10 }
  - { offset: 0x34C016, size: 0x8, addend: 0x0, symName: __ZNKSt3__16vectorIP18ggml_backend_eventNS_9allocatorIS2_EEE20__throw_length_errorB8ne180100Ev, symObjAddr: 0x81B0, symBinAddr: 0x61E10, symSize: 0x10 }
  - { offset: 0x34C021, size: 0x8, addend: 0x0, symName: __ZNKSt3__16vectorIP18ggml_backend_eventNS_9allocatorIS2_EEE20__throw_length_errorB8ne180100Ev, symObjAddr: 0x81B0, symBinAddr: 0x61E10, symSize: 0x10 }
  - { offset: 0x34C04B, size: 0x8, addend: 0x0, symName: __ZN8GGUFMeta3GKVINS_9ArrayInfoEE6get_kvEPK12gguf_contexti, symObjAddr: 0x81C0, symBinAddr: 0x61E20, symSize: 0x130 }
  - { offset: 0x34C056, size: 0x8, addend: 0x0, symName: __ZNSt3__16vectorINS_6futureINS_4pairIP11ggml_tensorbEEEENS_9allocatorIS6_EEED1B8ne180100Ev, symObjAddr: 0x7840, symBinAddr: 0x61600, symSize: 0x80 }
  - { offset: 0x34C226, size: 0x8, addend: 0x0, symName: __ZNK18llama_model_loader10ftype_nameEv, symObjAddr: 0x78C0, symBinAddr: 0x61680, symSize: 0x20 }
  - { offset: 0x34C265, size: 0x8, addend: 0x0, symName: __ZL22llama_model_ftype_name11llama_ftype, symObjAddr: 0x78E0, symBinAddr: 0x616A0, symSize: 0x2B0 }
  - { offset: 0x34C56C, size: 0x8, addend: 0x0, symName: __ZNK18llama_model_loader10print_infoEv, symObjAddr: 0x7B90, symBinAddr: 0x61950, symSize: 0x180 }
  - { offset: 0x34CBAC, size: 0x8, addend: 0x0, symName: __ZNKSt3__16vectorIP19ggml_backend_bufferNS_9allocatorIS2_EEE20__throw_length_errorB8ne180100Ev, symObjAddr: 0x8190, symBinAddr: 0x61DF0, symSize: 0x10 }
  - { offset: 0x34DE72, size: 0x8, addend: 0x0, symName: __ZNSt3__112__hash_tableINS_17__hash_value_typeINS_12basic_stringIcNS_11char_traitsIcEENS_9allocatorIcEEEE23llama_model_kv_overrideEENS_22__unordered_map_hasherIS7_S9_NS_4hashIS7_EENS_8equal_toIS7_EELb1EEENS_21__unordered_map_equalIS7_S9_SE_SC_Lb1EEENS5_IS9_EEE11__do_rehashILb1EEEvm, symObjAddr: 0xA510, symBinAddr: 0x63C40, symSize: 0x210 }
  - { offset: 0x34E2EE, size: 0x8, addend: 0x0, symName: __ZNSt3__110unique_ptrINS_11__hash_nodeINS_17__hash_value_typeINS_12basic_stringIcNS_11char_traitsIcEENS_9allocatorIcEEEE23llama_model_kv_overrideEEPvEENS_22__hash_node_destructorINS6_ISC_EEEEED1B8ne180100Ev, symObjAddr: 0xA4D0, symBinAddr: 0x63C00, symSize: 0x40 }
  - { offset: 0x34EA8B, size: 0x8, addend: 0x0, symName: __ZNKSt3__16vectorINS_10unique_ptrI10llama_fileNS_14default_deleteIS2_EEEENS_9allocatorIS5_EEE20__throw_length_errorB8ne180100Ev, symObjAddr: 0xA940, symBinAddr: 0x64070, symSize: 0x10 }
  - { offset: 0x34EEB4, size: 0x8, addend: 0x0, symName: __ZNK18llama_model_loader20weight_name_comparerclERKNSt3__112basic_stringIcNS1_11char_traitsIcEENS1_9allocatorIcEEEES9_, symObjAddr: 0xAB80, symBinAddr: 0x64080, symSize: 0xE0 }
  - { offset: 0x34F297, size: 0x8, addend: 0x0, symName: __ZNKSt3__16vectorINS_10unique_ptrI11llama_mlockNS_14default_deleteIS2_EEEENS_9allocatorIS5_EEE20__throw_length_errorB8ne180100Ev, symObjAddr: 0xB820, symBinAddr: 0x64B30, symSize: 0x10 }
  - { offset: 0x34F2C1, size: 0x8, addend: 0x0, symName: __ZNSt3__16vectorINS_10unique_ptrI10llama_mmapNS_14default_deleteIS2_EEEENS_9allocatorIS5_EEE24__emplace_back_slow_pathIJS5_EEEPS5_DpOT_, symObjAddr: 0xB830, symBinAddr: 0x64B40, symSize: 0x220 }
  - { offset: 0x34F364, size: 0x8, addend: 0x0, symName: '__ZNSt3__119__async_assoc_stateINS_4pairIP11ggml_tensorbEENS_12__async_funcIZN18llama_model_loader13load_all_dataEP12ggml_contextRNS_13unordered_mapIjP19ggml_backend_bufferNS_4hashIjEENS_8equal_toIjEENS_9allocatorINS1_IKjSB_EEEEEEPNS_6vectorINS_10unique_ptrI11llama_mlockNS_14default_deleteISO_EEEENSG_ISR_EEEEPFbfPvESV_E3$_1JEEEED1Ev', symObjAddr: 0xBA70, symBinAddr: 0x64D80, symSize: 0x40 }
  - { offset: 0x34F400, size: 0x8, addend: 0x0, symName: '__ZNSt3__119__async_assoc_stateINS_4pairIP11ggml_tensorbEENS_12__async_funcIZN18llama_model_loader13load_all_dataEP12ggml_contextRNS_13unordered_mapIjP19ggml_backend_bufferNS_4hashIjEENS_8equal_toIjEENS_9allocatorINS1_IKjSB_EEEEEEPNS_6vectorINS_10unique_ptrI11llama_mlockNS_14default_deleteISO_EEEENSG_ISR_EEEEPFbfPvESV_E3$_1JEEEED0Ev', symObjAddr: 0xBAB0, symBinAddr: 0x64DC0, symSize: 0x50 }
  - { offset: 0x34F4BA, size: 0x8, addend: 0x0, symName: '__ZNSt3__119__async_assoc_stateINS_4pairIP11ggml_tensorbEENS_12__async_funcIZN18llama_model_loader13load_all_dataEP12ggml_contextRNS_13unordered_mapIjP19ggml_backend_bufferNS_4hashIjEENS_8equal_toIjEENS_9allocatorINS1_IKjSB_EEEEEEPNS_6vectorINS_10unique_ptrI11llama_mlockNS_14default_deleteISO_EEEENSG_ISR_EEEEPFbfPvESV_E3$_1JEEEE16__on_zero_sharedEv', symObjAddr: 0xBB00, symBinAddr: 0x64E10, symSize: 0x30 }
  - { offset: 0x34F725, size: 0x8, addend: 0x0, symName: '__ZNSt3__119__async_assoc_stateINS_4pairIP11ggml_tensorbEENS_12__async_funcIZN18llama_model_loader13load_all_dataEP12ggml_contextRNS_13unordered_mapIjP19ggml_backend_bufferNS_4hashIjEENS_8equal_toIjEENS_9allocatorINS1_IKjSB_EEEEEEPNS_6vectorINS_10unique_ptrI11llama_mlockNS_14default_deleteISO_EEEENSG_ISR_EEEEPFbfPvESV_E3$_1JEEEE9__executeEv', symObjAddr: 0xBB30, symBinAddr: 0x64E40, symSize: 0x110 }
  - { offset: 0x34FB2C, size: 0x8, addend: 0x0, symName: '__ZNSt3__110unique_ptrINS_5tupleIJNS0_INS_15__thread_structENS_14default_deleteIS2_EEEEMNS_19__async_assoc_stateINS_4pairIP11ggml_tensorbEENS_12__async_funcIZN18llama_model_loader13load_all_dataEP12ggml_contextRNS_13unordered_mapIjP19ggml_backend_bufferNS_4hashIjEENS_8equal_toIjEENS_9allocatorINS7_IKjSH_EEEEEEPNS_6vectorINS0_I11llama_mlockNS3_IST_EEEENSM_ISV_EEEEPFbfPvESZ_E3$_1JEEEEEFvvEPS14_EEENS3_IS18_EEED1B8ne180100Ev', symObjAddr: 0xBD30, symBinAddr: 0x65040, symSize: 0x50 }
  - { offset: 0x34FF04, size: 0x8, addend: 0x0, symName: __ZNKSt3__16vectorINS_6futureINS_4pairIP11ggml_tensorbEEEENS_9allocatorIS6_EEE20__throw_length_errorB8ne180100Ev, symObjAddr: 0xBFA0, symBinAddr: 0x652B0, symSize: 0x10 }
  - { offset: 0x34FF2E, size: 0x8, addend: 0x0, symName: __ZNKSt3__16vectorINS_10unique_ptrI11llama_mlockNS_14default_deleteIS2_EEEENS_9allocatorIS5_EEE20__throw_out_of_rangeB8ne180100Ev, symObjAddr: 0xBFB0, symBinAddr: 0x652C0, symSize: 0x10 }
  - { offset: 0x34FF56, size: 0x8, addend: 0x0, symName: '__ZNSt3__119__async_assoc_stateINS_4pairIP11ggml_tensorbEENS_12__async_funcIZN18llama_model_loader13load_all_dataEP12ggml_contextRNS_13unordered_mapIjP19ggml_backend_bufferNS_4hashIjEENS_8equal_toIjEENS_9allocatorINS1_IKjSB_EEEEEEPNS_6vectorINS_10unique_ptrI11llama_mlockNS_14default_deleteISO_EEEENSG_ISR_EEEEPFbfPvESV_E3$_2JEEEED1Ev', symObjAddr: 0xBFC0, symBinAddr: 0x652D0, symSize: 0x40 }
  - { offset: 0x34FFF2, size: 0x8, addend: 0x0, symName: '__ZNSt3__119__async_assoc_stateINS_4pairIP11ggml_tensorbEENS_12__async_funcIZN18llama_model_loader13load_all_dataEP12ggml_contextRNS_13unordered_mapIjP19ggml_backend_bufferNS_4hashIjEENS_8equal_toIjEENS_9allocatorINS1_IKjSB_EEEEEEPNS_6vectorINS_10unique_ptrI11llama_mlockNS_14default_deleteISO_EEEENSG_ISR_EEEEPFbfPvESV_E3$_2JEEEED0Ev', symObjAddr: 0xC000, symBinAddr: 0x65310, symSize: 0x50 }
  - { offset: 0x350094, size: 0x8, addend: 0x0, symName: '__ZNSt3__119__async_assoc_stateINS_4pairIP11ggml_tensorbEENS_12__async_funcIZN18llama_model_loader13load_all_dataEP12ggml_contextRNS_13unordered_mapIjP19ggml_backend_bufferNS_4hashIjEENS_8equal_toIjEENS_9allocatorINS1_IKjSB_EEEEEEPNS_6vectorINS_10unique_ptrI11llama_mlockNS_14default_deleteISO_EEEENSG_ISR_EEEEPFbfPvESV_E3$_2JEEEE16__on_zero_sharedEv', symObjAddr: 0xC050, symBinAddr: 0x65360, symSize: 0x30 }
  - { offset: 0x350145, size: 0x8, addend: 0x0, symName: '__ZNSt3__119__async_assoc_stateINS_4pairIP11ggml_tensorbEENS_12__async_funcIZN18llama_model_loader13load_all_dataEP12ggml_contextRNS_13unordered_mapIjP19ggml_backend_bufferNS_4hashIjEENS_8equal_toIjEENS_9allocatorINS1_IKjSB_EEEEEEPNS_6vectorINS_10unique_ptrI11llama_mlockNS_14default_deleteISO_EEEENSG_ISR_EEEEPFbfPvESV_E3$_2JEEEE9__executeEv', symObjAddr: 0xC080, symBinAddr: 0x65390, symSize: 0x110 }
  - { offset: 0x3504BC, size: 0x8, addend: 0x0, symName: '__ZNSt3__110unique_ptrINS_5tupleIJNS0_INS_15__thread_structENS_14default_deleteIS2_EEEEMNS_19__async_assoc_stateINS_4pairIP11ggml_tensorbEENS_12__async_funcIZN18llama_model_loader13load_all_dataEP12ggml_contextRNS_13unordered_mapIjP19ggml_backend_bufferNS_4hashIjEENS_8equal_toIjEENS_9allocatorINS7_IKjSH_EEEEEEPNS_6vectorINS0_I11llama_mlockNS3_IST_EEEENSM_ISV_EEEEPFbfPvESZ_E3$_2JEEEEEFvvEPS14_EEENS3_IS18_EEED1B8ne180100Ev', symObjAddr: 0xC220, symBinAddr: 0x65530, symSize: 0x50 }
  - { offset: 0x3630DD, size: 0x8, addend: 0x0, symName: __ZN17llama_model_saverC2ERK11llama_model, symObjAddr: 0x0, symBinAddr: 0x65660, symSize: 0x40 }
  - { offset: 0x36314E, size: 0x8, addend: 0x0, symName: __ZN17llama_model_saverC1ERK11llama_model, symObjAddr: 0x40, symBinAddr: 0x656A0, symSize: 0x40 }
  - { offset: 0x3631BD, size: 0x8, addend: 0x0, symName: __ZN17llama_model_saverD2Ev, symObjAddr: 0x80, symBinAddr: 0x656E0, symSize: 0x20 }
  - { offset: 0x363216, size: 0x8, addend: 0x0, symName: __ZN17llama_model_saverD1Ev, symObjAddr: 0xB0, symBinAddr: 0x65700, symSize: 0x20 }
  - { offset: 0x36336C, size: 0x8, addend: 0x0, symName: __ZN17llama_model_saver6add_kvE6llm_kvj, symObjAddr: 0xD0, symBinAddr: 0x65720, symSize: 0x70 }
  - { offset: 0x363694, size: 0x8, addend: 0x0, symName: __ZN17llama_model_saver6add_kvE6llm_kvi, symObjAddr: 0x140, symBinAddr: 0x65790, symSize: 0x70 }
  - { offset: 0x3639BC, size: 0x8, addend: 0x0, symName: __ZN17llama_model_saver6add_kvE6llm_kvf, symObjAddr: 0x1B0, symBinAddr: 0x65800, symSize: 0x70 }
  - { offset: 0x363CE6, size: 0x8, addend: 0x0, symName: __ZN17llama_model_saver6add_kvE6llm_kvb, symObjAddr: 0x220, symBinAddr: 0x65870, symSize: 0x70 }
  - { offset: 0x36400E, size: 0x8, addend: 0x0, symName: __ZN17llama_model_saver6add_kvE6llm_kvPKc, symObjAddr: 0x290, symBinAddr: 0x658E0, symSize: 0x70 }
  - { offset: 0x364349, size: 0x8, addend: 0x0, symName: __ZN17llama_model_saver6add_kvE6llm_kvc, symObjAddr: 0x300, symBinAddr: 0x65950, symSize: 0x20 }
  - { offset: 0x3646D5, size: 0x8, addend: 0x0, symName: __ZN17llama_model_saver6add_kvE6llm_kvRKNSt3__16vectorINS1_12basic_stringIcNS1_11char_traitsIcEENS1_9allocatorIcEEEENS6_IS8_EEEE, symObjAddr: 0x320, symBinAddr: 0x65970, symSize: 0x1F0 }
  - { offset: 0x364F6E, size: 0x8, addend: 0x0, symName: __ZNKSt3__16vectorIPKcNS_9allocatorIS2_EEE20__throw_length_errorB8ne180100Ev, symObjAddr: 0x2D40, symBinAddr: 0x68320, symSize: 0x10 }
  - { offset: 0x3652B9, size: 0x8, addend: 0x0, symName: __ZN17llama_model_saver10add_tensorEPK11ggml_tensor, symObjAddr: 0x510, symBinAddr: 0x65B60, symSize: 0x1A0 }
  - { offset: 0x366217, size: 0x8, addend: 0x0, symName: __ZN17llama_model_saver17add_kv_from_modelEv, symObjAddr: 0x6B0, symBinAddr: 0x65D00, symSize: 0x1F20 }
  - { offset: 0x3712F9, size: 0x8, addend: 0x0, symName: __ZNSt3__16vectorINS_12basic_stringIcNS_11char_traitsIcEENS_9allocatorIcEEEENS4_IS6_EEEC1Em, symObjAddr: 0x25D0, symBinAddr: 0x67C20, symSize: 0xD0 }
  - { offset: 0x37159D, size: 0x8, addend: 0x0, symName: __ZN17llama_model_saver6add_kvINSt3__112basic_stringIcNS1_11char_traitsIcEENS1_9allocatorIcEEEEEEv6llm_kvRKT_b, symObjAddr: 0x26A0, symBinAddr: 0x67CF0, symSize: 0x140 }
  - { offset: 0x371A2C, size: 0x8, addend: 0x0, symName: __ZN17llama_model_saver6add_kvINSt3__15arrayIjLm512EEEEEv6llm_kvRKT_b, symObjAddr: 0x27E0, symBinAddr: 0x67E30, symSize: 0x120 }
  - { offset: 0x371C89, size: 0x8, addend: 0x0, symName: __ZNSt3__16vectorINS_12basic_stringIcNS_11char_traitsIcEENS_9allocatorIcEEEENS4_IS6_EEEC1Em.cold.1, symObjAddr: 0x2E00, symBinAddr: 0x224760, symSize: 0x4D }
  - { offset: 0x3720C2, size: 0x8, addend: 0x0, symName: __ZNSt3__16vectorINS_12basic_stringIcNS_11char_traitsIcEENS_9allocatorIcEEEENS4_IS6_EEEC1Em.cold.1, symObjAddr: 0x2E00, symBinAddr: 0x224760, symSize: 0x4D }
  - { offset: 0x372371, size: 0x8, addend: 0x0, symName: __ZN17llama_model_saver22add_tensors_from_modelEv, symObjAddr: 0x2970, symBinAddr: 0x67F50, symSize: 0x3A0 }
  - { offset: 0x3732A2, size: 0x8, addend: 0x0, symName: __ZN17llama_model_saver4saveERKNSt3__112basic_stringIcNS0_11char_traitsIcEENS0_9allocatorIcEEEE, symObjAddr: 0x2D10, symBinAddr: 0x682F0, symSize: 0x30 }
  - { offset: 0x3752E2, size: 0x8, addend: 0x0, symName: __ZL24LLAMA_ROPE_SCALING_TYPES, symObjAddr: 0x584690, symBinAddr: 0x2F3C90, symSize: 0x0 }
  - { offset: 0x3D133E, size: 0x8, addend: 0x0, symName: __ZNSt3__111make_uniqueB8ne180100I14llm_build_phi3ILb1EEJRK11llama_modelRK16llm_graph_paramsRP11ggml_cgraphEEENS_11__unique_ifIT_E15__unique_singleEDpOT0_, symObjAddr: 0x33170, symBinAddr: 0x9B050, symSize: 0x60 }
  - { offset: 0x3D1496, size: 0x8, addend: 0x0, symName: __ZNSt3__111make_uniqueB8ne180100I16llm_build_bitnetJRK11llama_modelRK16llm_graph_paramsRP11ggml_cgraphEEENS_11__unique_ifIT_E15__unique_singleEDpOT0_, symObjAddr: 0x33BF0, symBinAddr: 0x9BAD0, symSize: 0x60 }
  - { offset: 0x3D15EE, size: 0x8, addend: 0x0, symName: __ZNSt3__111make_uniqueB8ne180100I16llm_build_t5_encJRK11llama_modelRK16llm_graph_paramsRP11ggml_cgraphEEENS_11__unique_ifIT_E15__unique_singleEDpOT0_, symObjAddr: 0x33C50, symBinAddr: 0x9BB30, symSize: 0x60 }
  - { offset: 0x3D1746, size: 0x8, addend: 0x0, symName: __ZNSt3__111make_uniqueB8ne180100I14llm_build_jaisJRK11llama_modelRK16llm_graph_paramsRP11ggml_cgraphEEENS_11__unique_ifIT_E15__unique_singleEDpOT0_, symObjAddr: 0x33D10, symBinAddr: 0x9BBF0, symSize: 0x60 }
  - { offset: 0x3D189E, size: 0x8, addend: 0x0, symName: __ZNSt3__111make_uniqueB8ne180100I18llm_build_nemotronJRK11llama_modelRK16llm_graph_paramsRP11ggml_cgraphEEENS_11__unique_ifIT_E15__unique_singleEDpOT0_, symObjAddr: 0x33D70, symBinAddr: 0x9BC50, symSize: 0x60 }
  - { offset: 0x3D19F6, size: 0x8, addend: 0x0, symName: __ZNSt3__111make_uniqueB8ne180100I16llm_build_exaoneJRK11llama_modelRK16llm_graph_paramsRP11ggml_cgraphEEENS_11__unique_ifIT_E15__unique_singleEDpOT0_, symObjAddr: 0x33DD0, symBinAddr: 0x9BCB0, symSize: 0x60 }
  - { offset: 0x3D1B4E, size: 0x8, addend: 0x0, symName: __ZNSt3__111make_uniqueB8ne180100I15llm_build_rwkv6JRK11llama_modelRK16llm_graph_paramsRP11ggml_cgraphEEENS_11__unique_ifIT_E15__unique_singleEDpOT0_, symObjAddr: 0x33E30, symBinAddr: 0x9BD10, symSize: 0x60 }
  - { offset: 0x3D1CA6, size: 0x8, addend: 0x0, symName: __ZNSt3__111make_uniqueB8ne180100I20llm_build_rwkv6qwen2JRK11llama_modelRK16llm_graph_paramsRP11ggml_cgraphEEENS_11__unique_ifIT_E15__unique_singleEDpOT0_, symObjAddr: 0x33E90, symBinAddr: 0x9BD70, symSize: 0x60 }
  - { offset: 0x3D1DFE, size: 0x8, addend: 0x0, symName: __ZNSt3__111make_uniqueB8ne180100I15llm_build_rwkv7JRK11llama_modelRK16llm_graph_paramsRP11ggml_cgraphEEENS_11__unique_ifIT_E15__unique_singleEDpOT0_, symObjAddr: 0x33EF0, symBinAddr: 0x9BDD0, symSize: 0x60 }
  - { offset: 0x3D1F56, size: 0x8, addend: 0x0, symName: __ZNSt3__111make_uniqueB8ne180100I24llm_build_granite_hybridJRK11llama_modelRK16llm_graph_paramsRP11ggml_cgraphEEENS_11__unique_ifIT_E15__unique_singleEDpOT0_, symObjAddr: 0x33FB0, symBinAddr: 0x9BE90, symSize: 0x60 }
  - { offset: 0x3D20AE, size: 0x8, addend: 0x0, symName: __ZNSt3__111make_uniqueB8ne180100I17llm_build_smollm3JRK11llama_modelRK16llm_graph_paramsRP11ggml_cgraphEEENS_11__unique_ifIT_E15__unique_singleEDpOT0_, symObjAddr: 0x34310, symBinAddr: 0x9C1F0, symSize: 0x60 }
  - { offset: 0x3D2206, size: 0x8, addend: 0x0, symName: __ZNSt3__111make_uniqueB8ne180100I15llm_build_llamaJRK11llama_modelRK16llm_graph_paramsRP11ggml_cgraphEEENS_11__unique_ifIT_E15__unique_singleEDpOT0_, symObjAddr: 0x32A50, symBinAddr: 0x9A930, symSize: 0x60 }
  - { offset: 0x3D235E, size: 0x8, addend: 0x0, symName: __ZNSt3__111make_uniqueB8ne180100I20llm_build_llama_iswaJRK11llama_modelRK16llm_graph_paramsRP11ggml_cgraphEEENS_11__unique_ifIT_E15__unique_singleEDpOT0_, symObjAddr: 0x32AB0, symBinAddr: 0x9A990, symSize: 0x60 }
  - { offset: 0x3D24B6, size: 0x8, addend: 0x0, symName: __ZNSt3__111make_uniqueB8ne180100I14llm_build_deciJRK11llama_modelRK16llm_graph_paramsRP11ggml_cgraphEEENS_11__unique_ifIT_E15__unique_singleEDpOT0_, symObjAddr: 0x32B10, symBinAddr: 0x9A9F0, symSize: 0x60 }
  - { offset: 0x3D260E, size: 0x8, addend: 0x0, symName: __ZNSt3__111make_uniqueB8ne180100I16llm_build_falconJRK11llama_modelRK16llm_graph_paramsRP11ggml_cgraphEEENS_11__unique_ifIT_E15__unique_singleEDpOT0_, symObjAddr: 0x32BD0, symBinAddr: 0x9AAB0, symSize: 0x60 }
  - { offset: 0x3D2766, size: 0x8, addend: 0x0, symName: __ZNSt3__111make_uniqueB8ne180100I18llm_build_baichuanJRK11llama_modelRK16llm_graph_paramsRP11ggml_cgraphEEENS_11__unique_ifIT_E15__unique_singleEDpOT0_, symObjAddr: 0x32B70, symBinAddr: 0x9AA50, symSize: 0x60 }
  - { offset: 0x3D28BE, size: 0x8, addend: 0x0, symName: __ZNSt3__111make_uniqueB8ne180100I14llm_build_grokJRK11llama_modelRK16llm_graph_paramsRP11ggml_cgraphEEENS_11__unique_ifIT_E15__unique_singleEDpOT0_, symObjAddr: 0x32C30, symBinAddr: 0x9AB10, symSize: 0x60 }
  - { offset: 0x3D2A16, size: 0x8, addend: 0x0, symName: __ZNSt3__111make_uniqueB8ne180100I14llm_build_gpt2JRK11llama_modelRK16llm_graph_paramsRP11ggml_cgraphEEENS_11__unique_ifIT_E15__unique_singleEDpOT0_, symObjAddr: 0x33290, symBinAddr: 0x9B170, symSize: 0x60 }
  - { offset: 0x3D2B6E, size: 0x8, addend: 0x0, symName: __ZNSt3__111make_uniqueB8ne180100I17llm_build_gptneoxJRK11llama_modelRK16llm_graph_paramsRP11ggml_cgraphEEENS_11__unique_ifIT_E15__unique_singleEDpOT0_, symObjAddr: 0x339B0, symBinAddr: 0x9B890, symSize: 0x60 }
  - { offset: 0x3D2CC6, size: 0x8, addend: 0x0, symName: __ZNSt3__111make_uniqueB8ne180100I13llm_build_mptJRK11llama_modelRK16llm_graph_paramsRP11ggml_cgraphEEENS_11__unique_ifIT_E15__unique_singleEDpOT0_, symObjAddr: 0x32E10, symBinAddr: 0x9ACF0, symSize: 0x60 }
  - { offset: 0x3D2E1E, size: 0x8, addend: 0x0, symName: __ZNSt3__111make_uniqueB8ne180100I19llm_build_starcoderJRK11llama_modelRK16llm_graph_paramsRP11ggml_cgraphEEENS_11__unique_ifIT_E15__unique_singleEDpOT0_, symObjAddr: 0x32C90, symBinAddr: 0x9AB70, symSize: 0x60 }
  - { offset: 0x3D2F76, size: 0x8, addend: 0x0, symName: __ZNSt3__111make_uniqueB8ne180100I16llm_build_refactJRK11llama_modelRK16llm_graph_paramsRP11ggml_cgraphEEENS_11__unique_ifIT_E15__unique_singleEDpOT0_, symObjAddr: 0x32CF0, symBinAddr: 0x9ABD0, symSize: 0x60 }
  - { offset: 0x3D30CE, size: 0x8, addend: 0x0, symName: __ZNSt3__111make_uniqueB8ne180100I18llm_build_neo_bertJRK11llama_modelRK16llm_graph_paramsRP11ggml_cgraphEEENS_11__unique_ifIT_E15__unique_singleEDpOT0_, symObjAddr: 0x32D50, symBinAddr: 0x9AC30, symSize: 0x60 }
  - { offset: 0x3D3226, size: 0x8, addend: 0x0, symName: __ZNSt3__111make_uniqueB8ne180100I15llm_build_bloomJRK11llama_modelRK16llm_graph_paramsRP11ggml_cgraphEEENS_11__unique_ifIT_E15__unique_singleEDpOT0_, symObjAddr: 0x32DB0, symBinAddr: 0x9AC90, symSize: 0x60 }
  - { offset: 0x3D337E, size: 0x8, addend: 0x0, symName: __ZNSt3__111make_uniqueB8ne180100I18llm_build_stablelmJRK11llama_modelRK16llm_graph_paramsRP11ggml_cgraphEEENS_11__unique_ifIT_E15__unique_singleEDpOT0_, symObjAddr: 0x32E70, symBinAddr: 0x9AD50, symSize: 0x60 }
  - { offset: 0x3D34D6, size: 0x8, addend: 0x0, symName: __ZNSt3__111make_uniqueB8ne180100I14llm_build_qwenJRK11llama_modelRK16llm_graph_paramsRP11ggml_cgraphEEENS_11__unique_ifIT_E15__unique_singleEDpOT0_, symObjAddr: 0x32ED0, symBinAddr: 0x9ADB0, symSize: 0x60 }
  - { offset: 0x3D362E, size: 0x8, addend: 0x0, symName: __ZNSt3__111make_uniqueB8ne180100I15llm_build_qwen2JRK11llama_modelRK16llm_graph_paramsRP11ggml_cgraphEEENS_11__unique_ifIT_E15__unique_singleEDpOT0_, symObjAddr: 0x32F30, symBinAddr: 0x9AE10, symSize: 0x60 }
  - { offset: 0x3D3786, size: 0x8, addend: 0x0, symName: __ZNSt3__111make_uniqueB8ne180100I18llm_build_qwen2moeJRK11llama_modelRK16llm_graph_paramsRP11ggml_cgraphEEENS_11__unique_ifIT_E15__unique_singleEDpOT0_, symObjAddr: 0x32FF0, symBinAddr: 0x9AED0, symSize: 0x60 }
  - { offset: 0x3D38DE, size: 0x8, addend: 0x0, symName: __ZNSt3__111make_uniqueB8ne180100I17llm_build_qwen2vlJRK11llama_modelRK16llm_graph_paramsRP11ggml_cgraphEEENS_11__unique_ifIT_E15__unique_singleEDpOT0_, symObjAddr: 0x32F90, symBinAddr: 0x9AE70, symSize: 0x60 }
  - { offset: 0x3D3A36, size: 0x8, addend: 0x0, symName: __ZNSt3__111make_uniqueB8ne180100I15llm_build_qwen3JRK11llama_modelRK16llm_graph_paramsRP11ggml_cgraphEEENS_11__unique_ifIT_E15__unique_singleEDpOT0_, symObjAddr: 0x33050, symBinAddr: 0x9AF30, symSize: 0x60 }
  - { offset: 0x3D3B8E, size: 0x8, addend: 0x0, symName: __ZNSt3__111make_uniqueB8ne180100I18llm_build_qwen3moeJRK11llama_modelRK16llm_graph_paramsRP11ggml_cgraphEEENS_11__unique_ifIT_E15__unique_singleEDpOT0_, symObjAddr: 0x330B0, symBinAddr: 0x9AF90, symSize: 0x60 }
  - { offset: 0x3D3CE6, size: 0x8, addend: 0x0, symName: __ZNSt3__111make_uniqueB8ne180100I14llm_build_phi2JRK11llama_modelRK16llm_graph_paramsRP11ggml_cgraphEEENS_11__unique_ifIT_E15__unique_singleEDpOT0_, symObjAddr: 0x33110, symBinAddr: 0x9AFF0, symSize: 0x60 }
  - { offset: 0x3D3E3E, size: 0x8, addend: 0x0, symName: __ZNSt3__111make_uniqueB8ne180100I15llm_build_plamoJRK11llama_modelRK16llm_graph_paramsRP11ggml_cgraphEEENS_11__unique_ifIT_E15__unique_singleEDpOT0_, symObjAddr: 0x33230, symBinAddr: 0x9B110, symSize: 0x60 }
  - { offset: 0x3D3F96, size: 0x8, addend: 0x0, symName: __ZNSt3__111make_uniqueB8ne180100I19llm_build_codeshellJRK11llama_modelRK16llm_graph_paramsRP11ggml_cgraphEEENS_11__unique_ifIT_E15__unique_singleEDpOT0_, symObjAddr: 0x332F0, symBinAddr: 0x9B1D0, symSize: 0x60 }
  - { offset: 0x3D40EE, size: 0x8, addend: 0x0, symName: __ZNSt3__111make_uniqueB8ne180100I15llm_build_orionJRK11llama_modelRK16llm_graph_paramsRP11ggml_cgraphEEENS_11__unique_ifIT_E15__unique_singleEDpOT0_, symObjAddr: 0x33350, symBinAddr: 0x9B230, symSize: 0x60 }
  - { offset: 0x3D4246, size: 0x8, addend: 0x0, symName: __ZNSt3__111make_uniqueB8ne180100I19llm_build_internlm2JRK11llama_modelRK16llm_graph_paramsRP11ggml_cgraphEEENS_11__unique_ifIT_E15__unique_singleEDpOT0_, symObjAddr: 0x333B0, symBinAddr: 0x9B290, symSize: 0x60 }
  - { offset: 0x3D439E, size: 0x8, addend: 0x0, symName: __ZNSt3__111make_uniqueB8ne180100I18llm_build_minicpm3JRK11llama_modelRK16llm_graph_paramsRP11ggml_cgraphEEENS_11__unique_ifIT_E15__unique_singleEDpOT0_, symObjAddr: 0x33410, symBinAddr: 0x9B2F0, symSize: 0x60 }
  - { offset: 0x3D44F6, size: 0x8, addend: 0x0, symName: __ZNSt3__111make_uniqueB8ne180100I15llm_build_gemmaJRK11llama_modelRK16llm_graph_paramsRP11ggml_cgraphEEENS_11__unique_ifIT_E15__unique_singleEDpOT0_, symObjAddr: 0x33470, symBinAddr: 0x9B350, symSize: 0x60 }
  - { offset: 0x3D464E, size: 0x8, addend: 0x0, symName: __ZNSt3__111make_uniqueB8ne180100I21llm_build_gemma2_iswaJRK11llama_modelRK16llm_graph_paramsRP11ggml_cgraphEEENS_11__unique_ifIT_E15__unique_singleEDpOT0_, symObjAddr: 0x334D0, symBinAddr: 0x9B3B0, symSize: 0x60 }
  - { offset: 0x3D47A6, size: 0x8, addend: 0x0, symName: __ZNSt3__111make_uniqueB8ne180100I21llm_build_gemma3_iswaJRK11llama_modelRK16llm_graph_paramsRP11ggml_cgraphEEENS_11__unique_ifIT_E15__unique_singleEDpOT0_, symObjAddr: 0x33530, symBinAddr: 0x9B410, symSize: 0x60 }
  - { offset: 0x3D48FE, size: 0x8, addend: 0x0, symName: __ZNSt3__111make_uniqueB8ne180100I22llm_build_gemma3n_iswaJRK11llama_modelRK16llm_graph_paramsRP11ggml_cgraphEEENS_11__unique_ifIT_E15__unique_singleEDpOT0_, symObjAddr: 0x33590, symBinAddr: 0x9B470, symSize: 0x60 }
  - { offset: 0x3D4A56, size: 0x8, addend: 0x0, symName: __ZNSt3__111make_uniqueB8ne180100I20llm_build_starcoder2JRK11llama_modelRK16llm_graph_paramsRP11ggml_cgraphEEENS_11__unique_ifIT_E15__unique_singleEDpOT0_, symObjAddr: 0x335F0, symBinAddr: 0x9B4D0, symSize: 0x60 }
  - { offset: 0x3D4BAE, size: 0x8, addend: 0x0, symName: __ZNSt3__111make_uniqueB8ne180100I15llm_build_jambaJRK11llama_modelRK16llm_graph_paramsRP11ggml_cgraphEEENS_11__unique_ifIT_E15__unique_singleEDpOT0_, symObjAddr: 0x33650, symBinAddr: 0x9B530, symSize: 0x60 }
  - { offset: 0x3D4D06, size: 0x8, addend: 0x0, symName: __ZNSt3__111make_uniqueB8ne180100I19llm_build_falcon_h1JRK11llama_modelRK16llm_graph_paramsRP11ggml_cgraphEEENS_11__unique_ifIT_E15__unique_singleEDpOT0_, symObjAddr: 0x34370, symBinAddr: 0x9C250, symSize: 0x60 }
  - { offset: 0x3D4E5E, size: 0x8, addend: 0x0, symName: __ZNSt3__111make_uniqueB8ne180100I16llm_build_xverseJRK11llama_modelRK16llm_graph_paramsRP11ggml_cgraphEEENS_11__unique_ifIT_E15__unique_singleEDpOT0_, symObjAddr: 0x336B0, symBinAddr: 0x9B590, symSize: 0x60 }
  - { offset: 0x3D4FB6, size: 0x8, addend: 0x0, symName: __ZNSt3__111make_uniqueB8ne180100I19llm_build_command_rJRK11llama_modelRK16llm_graph_paramsRP11ggml_cgraphEEENS_11__unique_ifIT_E15__unique_singleEDpOT0_, symObjAddr: 0x33710, symBinAddr: 0x9B5F0, symSize: 0x60 }
  - { offset: 0x3D510E, size: 0x8, addend: 0x0, symName: __ZNSt3__111make_uniqueB8ne180100I22llm_build_cohere2_iswaJRK11llama_modelRK16llm_graph_paramsRP11ggml_cgraphEEENS_11__unique_ifIT_E15__unique_singleEDpOT0_, symObjAddr: 0x33770, symBinAddr: 0x9B650, symSize: 0x60 }
  - { offset: 0x3D5266, size: 0x8, addend: 0x0, symName: __ZNSt3__111make_uniqueB8ne180100I14llm_build_dbrxJRK11llama_modelRK16llm_graph_paramsRP11ggml_cgraphEEENS_11__unique_ifIT_E15__unique_singleEDpOT0_, symObjAddr: 0x337D0, symBinAddr: 0x9B6B0, symSize: 0x60 }
  - { offset: 0x3D53BE, size: 0x8, addend: 0x0, symName: __ZNSt3__111make_uniqueB8ne180100I14llm_build_olmoJRK11llama_modelRK16llm_graph_paramsRP11ggml_cgraphEEENS_11__unique_ifIT_E15__unique_singleEDpOT0_, symObjAddr: 0x33830, symBinAddr: 0x9B710, symSize: 0x60 }
  - { offset: 0x3D5516, size: 0x8, addend: 0x0, symName: __ZNSt3__111make_uniqueB8ne180100I15llm_build_olmo2JRK11llama_modelRK16llm_graph_paramsRP11ggml_cgraphEEENS_11__unique_ifIT_E15__unique_singleEDpOT0_, symObjAddr: 0x33890, symBinAddr: 0x9B770, symSize: 0x60 }
  - { offset: 0x3D566E, size: 0x8, addend: 0x0, symName: __ZNSt3__111make_uniqueB8ne180100I15llm_build_olmoeJRK11llama_modelRK16llm_graph_paramsRP11ggml_cgraphEEENS_11__unique_ifIT_E15__unique_singleEDpOT0_, symObjAddr: 0x338F0, symBinAddr: 0x9B7D0, symSize: 0x60 }
  - { offset: 0x3D57C6, size: 0x8, addend: 0x0, symName: __ZNSt3__111make_uniqueB8ne180100I17llm_build_openelmJRK11llama_modelRK16llm_graph_paramsRP11ggml_cgraphEEENS_11__unique_ifIT_E15__unique_singleEDpOT0_, symObjAddr: 0x33950, symBinAddr: 0x9B830, symSize: 0x60 }
  - { offset: 0x3D591E, size: 0x8, addend: 0x0, symName: __ZNSt3__111make_uniqueB8ne180100I16llm_build_arcticJRK11llama_modelRK16llm_graph_paramsRP11ggml_cgraphEEENS_11__unique_ifIT_E15__unique_singleEDpOT0_, symObjAddr: 0x33A10, symBinAddr: 0x9B8F0, symSize: 0x60 }
  - { offset: 0x3D5A76, size: 0x8, addend: 0x0, symName: __ZNSt3__111make_uniqueB8ne180100I18llm_build_deepseekJRK11llama_modelRK16llm_graph_paramsRP11ggml_cgraphEEENS_11__unique_ifIT_E15__unique_singleEDpOT0_, symObjAddr: 0x33A70, symBinAddr: 0x9B950, symSize: 0x60 }
  - { offset: 0x3D5BCE, size: 0x8, addend: 0x0, symName: __ZNSt3__111make_uniqueB8ne180100I19llm_build_deepseek2JRK11llama_modelRK16llm_graph_paramsRP11ggml_cgraphEEENS_11__unique_ifIT_E15__unique_singleEDpOT0_, symObjAddr: 0x33AD0, symBinAddr: 0x9B9B0, symSize: 0x60 }
  - { offset: 0x3D5D26, size: 0x8, addend: 0x0, symName: __ZNSt3__111make_uniqueB8ne180100I17llm_build_chatglmJRK11llama_modelRK16llm_graph_paramsRP11ggml_cgraphEEENS_11__unique_ifIT_E15__unique_singleEDpOT0_, symObjAddr: 0x33B30, symBinAddr: 0x9BA10, symSize: 0x60 }
  - { offset: 0x3D5E7E, size: 0x8, addend: 0x0, symName: __ZNSt3__111make_uniqueB8ne180100I14llm_build_glm4JRK11llama_modelRK16llm_graph_paramsRP11ggml_cgraphEEENS_11__unique_ifIT_E15__unique_singleEDpOT0_, symObjAddr: 0x33B90, symBinAddr: 0x9BA70, symSize: 0x60 }
  - { offset: 0x3D5FD6, size: 0x8, addend: 0x0, symName: __ZNSt3__111make_uniqueB8ne180100I16llm_build_arwkv7JRK11llama_modelRK16llm_graph_paramsRP11ggml_cgraphEEENS_11__unique_ifIT_E15__unique_singleEDpOT0_, symObjAddr: 0x33F50, symBinAddr: 0x9BE30, symSize: 0x60 }
  - { offset: 0x3D612E, size: 0x8, addend: 0x0, symName: __ZNSt3__111make_uniqueB8ne180100I19llm_build_chameleonJRK11llama_modelRK16llm_graph_paramsRP11ggml_cgraphEEENS_11__unique_ifIT_E15__unique_singleEDpOT0_, symObjAddr: 0x34010, symBinAddr: 0x9BEF0, symSize: 0x60 }
  - { offset: 0x3D6286, size: 0x8, addend: 0x0, symName: __ZNSt3__111make_uniqueB8ne180100I26llm_build_wavtokenizer_decJRK11llama_modelRK16llm_graph_paramsRP11ggml_cgraphEEENS_11__unique_ifIT_E15__unique_singleEDpOT0_, symObjAddr: 0x34070, symBinAddr: 0x9BF50, symSize: 0x60 }
  - { offset: 0x3D63DE, size: 0x8, addend: 0x0, symName: __ZNSt3__111make_uniqueB8ne180100I13llm_build_plmJRK11llama_modelRK16llm_graph_paramsRP11ggml_cgraphEEENS_11__unique_ifIT_E15__unique_singleEDpOT0_, symObjAddr: 0x340D0, symBinAddr: 0x9BFB0, symSize: 0x60 }
  - { offset: 0x3D6536, size: 0x8, addend: 0x0, symName: __ZNSt3__111make_uniqueB8ne180100I20llm_build_bailingmoeJRK11llama_modelRK16llm_graph_paramsRP11ggml_cgraphEEENS_11__unique_ifIT_E15__unique_singleEDpOT0_, symObjAddr: 0x34130, symBinAddr: 0x9C010, symSize: 0x60 }
  - { offset: 0x3D668E, size: 0x8, addend: 0x0, symName: __ZNSt3__111make_uniqueB8ne180100I15llm_build_dots1JRK11llama_modelRK16llm_graph_paramsRP11ggml_cgraphEEENS_11__unique_ifIT_E15__unique_singleEDpOT0_, symObjAddr: 0x34190, symBinAddr: 0x9C070, symSize: 0x60 }
  - { offset: 0x3D67E6, size: 0x8, addend: 0x0, symName: __ZNSt3__111make_uniqueB8ne180100I15llm_build_arceeJRK11llama_modelRK16llm_graph_paramsRP11ggml_cgraphEEENS_11__unique_ifIT_E15__unique_singleEDpOT0_, symObjAddr: 0x341F0, symBinAddr: 0x9C0D0, symSize: 0x60 }
  - { offset: 0x3D693E, size: 0x8, addend: 0x0, symName: __ZNSt3__111make_uniqueB8ne180100I18llm_build_ernie4_5JRK11llama_modelRK16llm_graph_paramsRP11ggml_cgraphEEENS_11__unique_ifIT_E15__unique_singleEDpOT0_, symObjAddr: 0x34250, symBinAddr: 0x9C130, symSize: 0x60 }
  - { offset: 0x3D6A96, size: 0x8, addend: 0x0, symName: __ZNSt3__111make_uniqueB8ne180100I21llm_build_hunyuan_moeJRK11llama_modelRK16llm_graph_paramsRP11ggml_cgraphEEENS_11__unique_ifIT_E15__unique_singleEDpOT0_, symObjAddr: 0x342B0, symBinAddr: 0x9C190, symSize: 0x60 }
  - { offset: 0x3D6BEE, size: 0x8, addend: 0x0, symName: __ZNSt3__111make_uniqueB8ne180100I14llm_build_lfm2JRK11llama_modelRK16llm_graph_paramsRP11ggml_cgraphEEENS_11__unique_ifIT_E15__unique_singleEDpOT0_, symObjAddr: 0x343D0, symBinAddr: 0x9C2B0, symSize: 0x60 }
  - { offset: 0x3D6D46, size: 0x8, addend: 0x0, symName: __ZNSt3__111make_uniqueB8ne180100I14llm_build_phi3ILb0EEJRK11llama_modelRK16llm_graph_paramsRP11ggml_cgraphEEENS_11__unique_ifIT_E15__unique_singleEDpOT0_, symObjAddr: 0x331D0, symBinAddr: 0x9B0B0, symSize: 0x60 }
  - { offset: 0x3D6E9E, size: 0x8, addend: 0x0, symName: __ZNSt3__111make_uniqueB8ne180100I16llm_build_t5_decJRK11llama_modelRK16llm_graph_paramsRP11ggml_cgraphEEENS_11__unique_ifIT_E15__unique_singleEDpOT0_, symObjAddr: 0x33CB0, symBinAddr: 0x9BB90, symSize: 0x60 }
  - { offset: 0x3E8607, size: 0x8, addend: 0x0, symName: __ZNK11llama_model10print_infoEv, symObjAddr: 0x30310, symBinAddr: 0x981F0, symSize: 0x1040 }
  - { offset: 0x3EC3A0, size: 0x8, addend: 0x0, symName: __ZNK11llama_model13create_memoryERK19llama_memory_paramsR13llama_cparams, symObjAddr: 0x31CC0, symBinAddr: 0x99BA0, symSize: 0x450 }
  - { offset: 0x3F02A7, size: 0x8, addend: 0x0, symName: __ZNK23llm_graph_context_mamba18build_mamba2_layerEP18llm_graph_input_rsP11ggml_cgraphP11ggml_tensorRK11llama_modelRK12llama_ubatchi, symObjAddr: 0x570D0, symBinAddr: 0xB4D00, symSize: 0xAF0 }
  - { offset: 0x3F1334, size: 0x8, addend: 0x0, symName: __ZN23llm_graph_context_mamba17build_mamba_layerEP18llm_graph_input_rsP11ggml_cgraphP11ggml_tensorRK11llama_modelRK12llama_ubatchi, symObjAddr: 0x57BC0, symBinAddr: 0xB57F0, symSize: 0xA80 }
  - { offset: 0x3F4855, size: 0x8, addend: 0x0, symName: __Z13llm_type_name8llm_type, symObjAddr: 0x0, symBinAddr: 0x68330, symSize: 0x30 }
  - { offset: 0x3F48F5, size: 0x8, addend: 0x0, symName: __ZNSt3__13mapI23llama_rope_scaling_typePKcNS_4lessIS1_EENS_9allocatorINS_4pairIKS1_S3_EEEEED1B8ne180100Ev, symObjAddr: 0x30, symBinAddr: 0x68360, symSize: 0x10 }
  - { offset: 0x3F49A8, size: 0x8, addend: 0x0, symName: __ZNSt3__16__treeINS_12__value_typeI23llama_rope_scaling_typePKcEENS_19__map_value_compareIS2_S5_NS_4lessIS2_EELb1EEENS_9allocatorIS5_EEE7destroyEPNS_11__tree_nodeIS5_PvEE, symObjAddr: 0x41DE0, symBinAddr: 0xA06C0, symSize: 0x40 }
  - { offset: 0x3F4E8D, size: 0x8, addend: 0x0, symName: __Z28llama_rope_scaling_type_name23llama_rope_scaling_type, symObjAddr: 0x40, symBinAddr: 0x68370, symSize: 0xE0 }
  - { offset: 0x3F5B08, size: 0x8, addend: 0x0, symName: __ZN11llama_modelC2ERK18llama_model_params, symObjAddr: 0x120, symBinAddr: 0x68450, symSize: 0x300 }
  - { offset: 0x3F642C, size: 0x8, addend: 0x0, symName: __ZNSt3__16vectorINS_4pairINS_12basic_stringIcNS_11char_traitsIcEENS_9allocatorIcEEEEP11ggml_tensorEENS5_ISA_EEED1B8ne180100Ev, symObjAddr: 0x420, symBinAddr: 0x68750, symSize: 0x70 }
  - { offset: 0x3F66BE, size: 0x8, addend: 0x0, symName: __ZNSt3__113unordered_mapINS_12basic_stringIcNS_11char_traitsIcEENS_9allocatorIcEEEES6_NS_4hashIS6_EENS_8equal_toIS6_EENS4_INS_4pairIKS6_S6_EEEEED1B8ne180100Ev, symObjAddr: 0x490, symBinAddr: 0x687C0, symSize: 0x80 }
  - { offset: 0x3F722D, size: 0x8, addend: 0x0, symName: __ZN11llama_modelC1ERK18llama_model_params, symObjAddr: 0x580, symBinAddr: 0x68840, symSize: 0x10 }
  - { offset: 0x3F7375, size: 0x8, addend: 0x0, symName: __ZN11llama_modelD2Ev, symObjAddr: 0x590, symBinAddr: 0x68850, symSize: 0x1B0 }
  - { offset: 0x3F8231, size: 0x8, addend: 0x0, symName: __ZN11llama_model4implD2Ev, symObjAddr: 0x41E20, symBinAddr: 0xA0700, symSize: 0x240 }
  - { offset: 0x3F8F4D, size: 0x8, addend: 0x0, symName: __ZN11llama_modelD1Ev, symObjAddr: 0x740, symBinAddr: 0x68A00, symSize: 0x10 }
  - { offset: 0x3F8F9E, size: 0x8, addend: 0x0, symName: __ZN11llama_model10load_statsER18llama_model_loader, symObjAddr: 0x750, symBinAddr: 0x68A10, symSize: 0x20 }
  - { offset: 0x3F9046, size: 0x8, addend: 0x0, symName: __ZN11llama_model9load_archER18llama_model_loader, symObjAddr: 0x770, symBinAddr: 0x68A30, symSize: 0x160 }
  - { offset: 0x3F9795, size: 0x8, addend: 0x0, symName: __ZN11llama_model12load_hparamsER18llama_model_loader, symObjAddr: 0x8D0, symBinAddr: 0x68B90, symSize: 0x38B0 }
  - { offset: 0x3FBFB4, size: 0x8, addend: 0x0, symName: __ZNSt3__112__hash_tableINS_17__hash_value_typeINS_12basic_stringIcNS_11char_traitsIcEENS_9allocatorIcEEEES7_EENS_22__unordered_map_hasherIS7_S8_NS_4hashIS7_EENS_8equal_toIS7_EELb1EEENS_21__unordered_map_equalIS7_S8_SD_SB_Lb1EEENS5_IS8_EEE21__emplace_unique_implIJRPKcRKS7_EEENS_4pairINS_15__hash_iteratorIPNS_11__hash_nodeIS8_PvEEEEbEEDpOT_, symObjAddr: 0x420B0, symBinAddr: 0xA0990, symSize: 0x110 }
  - { offset: 0x3FC87E, size: 0x8, addend: 0x0, symName: _llama_model_rope_type, symObjAddr: 0x42E0, symBinAddr: 0x6C5A0, symSize: 0x190 }
  - { offset: 0x3FC8FF, size: 0x8, addend: 0x0, symName: __ZNK11llama_model9arch_nameEv, symObjAddr: 0x4180, symBinAddr: 0x6C440, symSize: 0xB0 }
  - { offset: 0x3FCD56, size: 0x8, addend: 0x0, symName: __ZNK11llama_model9type_nameEv, symObjAddr: 0x4230, symBinAddr: 0x6C4F0, symSize: 0xB0 }
  - { offset: 0x3FD1AD, size: 0x8, addend: 0x0, symName: __ZN11llama_model10load_vocabER18llama_model_loader, symObjAddr: 0x4470, symBinAddr: 0x6C730, symSize: 0x50 }
  - { offset: 0x3FDBB2, size: 0x8, addend: 0x0, symName: __ZN11llama_model12load_tensorsER18llama_model_loader, symObjAddr: 0x44C0, symBinAddr: 0x6C780, symSize: 0x2A040 }
  - { offset: 0x426CB7, size: 0x8, addend: 0x0, symName: __ZNSt3__16vectorINS_4pairIP19ggml_backend_deviceP24ggml_backend_buffer_typeEENS_9allocatorIS6_EEE18__insert_with_sizeB8ne180100INS_11__wrap_iterIPS6_EESD_EESD_NSB_IPKS6_EET_T0_l, symObjAddr: 0x430B0, symBinAddr: 0xA1460, symSize: 0x2A0 }
  - { offset: 0x427826, size: 0x8, addend: 0x0, symName: __ZNKSt3__16vectorINS_4pairIP19ggml_backend_deviceP24ggml_backend_buffer_typeEENS_9allocatorIS6_EEE20__throw_length_errorB8ne180100Ev, symObjAddr: 0x34B50, symBinAddr: 0x9C9A0, symSize: 0x10 }
  - { offset: 0x427873, size: 0x8, addend: 0x0, symName: __ZNSt3__16vectorIN11llama_model4impl9layer_devENS_9allocatorIS3_EEE8__appendEm, symObjAddr: 0x43360, symBinAddr: 0xA1700, symSize: 0x150 }
  - { offset: 0x42787E, size: 0x8, addend: 0x0, symName: __ZNSt3__16vectorIN11llama_model4impl9layer_devENS_9allocatorIS3_EEE8__appendEm, symObjAddr: 0x43360, symBinAddr: 0xA1700, symSize: 0x150 }
  - { offset: 0x427E1B, size: 0x8, addend: 0x0, symName: '__ZZN11llama_model12load_tensorsER18llama_model_loaderENK3$_1clEi', symObjAddr: 0x2E520, symBinAddr: 0x967E0, symSize: 0x1A0 }
  - { offset: 0x4280ED, size: 0x8, addend: 0x0, symName: __ZNSt3__16vectorI11llama_layerNS_9allocatorIS1_EEE8__appendEm, symObjAddr: 0x43510, symBinAddr: 0xA1870, symSize: 0x1D0 }
  - { offset: 0x4286F7, size: 0x8, addend: 0x0, symName: '__ZZN11llama_model12load_tensorsER18llama_model_loaderENK3$_3clERK11LLM_TN_IMPLRKSt16initializer_listIxEi', symObjAddr: 0x2E6C0, symBinAddr: 0x96980, symSize: 0x14E0 }
  - { offset: 0x42B573, size: 0x8, addend: 0x0, symName: __ZNSt3__16vectorINS_4pairIP12ggml_contextNS_13unordered_mapIjP19ggml_backend_bufferNS_4hashIjEENS_8equal_toIjEENS_9allocatorINS1_IKjS6_EEEEEEEENSB_ISG_EEE7reserveEm, symObjAddr: 0x2FDA0, symBinAddr: 0x97E60, symSize: 0x200 }
  - { offset: 0x42C127, size: 0x8, addend: 0x0, symName: __ZNSt3__112__hash_tableINS_17__hash_value_typeIjP19ggml_backend_bufferEENS_22__unordered_map_hasherIjS4_NS_4hashIjEENS_8equal_toIjEELb1EEENS_21__unordered_map_equalIjS4_S9_S7_Lb1EEENS_9allocatorIS4_EEE11__do_rehashILb1EEEvm, symObjAddr: 0x43800, symBinAddr: 0xA1B40, symSize: 0x210 }
  - { offset: 0x42C600, size: 0x8, addend: 0x0, symName: __ZNSt3__112__hash_tableINS_17__hash_value_typeIjP19ggml_backend_bufferEENS_22__unordered_map_hasherIjS4_NS_4hashIjEENS_8equal_toIjEELb1EEENS_21__unordered_map_equalIjS4_S9_S7_Lb1EEENS_9allocatorIS4_EEE25__emplace_unique_key_argsIjJRjRS3_EEENS_4pairINS_15__hash_iteratorIPNS_11__hash_nodeIS4_PvEEEEbEERKT_DpOT0_, symObjAddr: 0x43C30, symBinAddr: 0xA1D50, symSize: 0x440 }
  - { offset: 0x42D1CC, size: 0x8, addend: 0x0, symName: __ZNSt3__16vectorINS_10unique_ptrI11llama_mlockNS_14default_deleteIS2_EEEENS_9allocatorIS5_EEE24__emplace_back_slow_pathIJPS2_EEEPS5_DpOT_, symObjAddr: 0x44070, symBinAddr: 0xA2190, symSize: 0x220 }
  - { offset: 0x42D880, size: 0x8, addend: 0x0, symName: __ZNSt3__113unordered_mapIjP19ggml_backend_bufferNS_4hashIjEENS_8equal_toIjEENS_9allocatorINS_4pairIKjS2_EEEEEC2ERKSC_, symObjAddr: 0x44520, symBinAddr: 0xA2630, symSize: 0x1C0 }
  - { offset: 0x42DC9A, size: 0x8, addend: 0x0, symName: __ZNSt3__16vectorINS_4pairIP12ggml_contextNS_13unordered_mapIjP19ggml_backend_bufferNS_4hashIjEENS_8equal_toIjEENS_9allocatorINS1_IKjS6_EEEEEEEENSB_ISG_EEE24__emplace_back_slow_pathIJRS3_RSF_EEEPSG_DpOT_, symObjAddr: 0x442A0, symBinAddr: 0xA23B0, symSize: 0x280 }
  - { offset: 0x42E7F3, size: 0x8, addend: 0x0, symName: __ZNSt3__16vectorINS_4pairINS_12basic_stringIcNS_11char_traitsIcEENS_9allocatorIcEEEEP11ggml_tensorEENS5_ISA_EEE24__emplace_back_slow_pathIJPKcRS9_EEEPSA_DpOT_, symObjAddr: 0x44B10, symBinAddr: 0xA2C20, symSize: 0x240 }
  - { offset: 0x42F889, size: 0x8, addend: 0x0, symName: __ZNSt3__112__hash_tableINS_17__hash_value_typeIjP19ggml_backend_bufferEENS_22__unordered_map_hasherIjS4_NS_4hashIjEENS_8equal_toIjEELb1EEENS_21__unordered_map_equalIjS4_S9_S7_Lb1EEENS_9allocatorIS4_EEED1Ev, symObjAddr: 0x437B0, symBinAddr: 0xA1AF0, symSize: 0x50 }
  - { offset: 0x42F894, size: 0x8, addend: 0x0, symName: __ZNSt3__113unordered_mapIjP19ggml_backend_bufferNS_4hashIjEENS_8equal_toIjEENS_9allocatorINS_4pairIKjS2_EEEEED1B8ne180100Ev, symObjAddr: 0x30180, symBinAddr: 0x98060, symSize: 0x50 }
  - { offset: 0x42FB5A, size: 0x8, addend: 0x0, symName: __ZNSt3__16vectorINS_4pairIP12ggml_contextNS_13unordered_mapIjP19ggml_backend_bufferNS_4hashIjEENS_8equal_toIjEENS_9allocatorINS1_IKjS6_EEEEEEEENSB_ISG_EEED1B8ne180100Ev, symObjAddr: 0x301D0, symBinAddr: 0x980B0, symSize: 0xA0 }
  - { offset: 0x42FFD7, size: 0x8, addend: 0x0, symName: __ZNK11llama_model9n_devicesEv, symObjAddr: 0x2E500, symBinAddr: 0x967C0, symSize: 0x20 }
  - { offset: 0x4300E6, size: 0x8, addend: 0x0, symName: __ZNKSt3__16vectorIP19ggml_backend_deviceNS_9allocatorIS2_EEE20__throw_out_of_rangeB8ne180100Ev, symObjAddr: 0x34C20, symBinAddr: 0x9C9B0, symSize: 0x10 }
  - { offset: 0x43111B, size: 0x8, addend: 0x0, symName: __ZNSt3__111basic_regexIcNS_12regex_traitsIcEEE7__parseIPKcEET_S7_S7_, symObjAddr: 0x34CC0, symBinAddr: 0x9C9C0, symSize: 0x340 }
  - { offset: 0x43259B, size: 0x8, addend: 0x0, symName: __ZNKSt3__16vectorIN11llama_model4impl9layer_devENS_9allocatorIS3_EEE20__throw_out_of_rangeB8ne180100Ev, symObjAddr: 0x43500, symBinAddr: 0xA1860, symSize: 0x10 }
  - { offset: 0x4325C5, size: 0x8, addend: 0x0, symName: __ZNSt3__16vectorI11llama_layerNS_9allocatorIS1_EEE8__appendEm, symObjAddr: 0x43510, symBinAddr: 0xA1870, symSize: 0x1D0 }
  - { offset: 0x432A53, size: 0x8, addend: 0x0, symName: __ZNKSt3__16vectorINS_4pairIP12ggml_contextNS_13unordered_mapIjP19ggml_backend_bufferNS_4hashIjEENS_8equal_toIjEENS_9allocatorINS1_IKjS6_EEEEEEEENSB_ISG_EEE20__throw_length_errorB8ne180100Ev, symObjAddr: 0x43700, symBinAddr: 0xA1A50, symSize: 0x10 }
  - { offset: 0x432F21, size: 0x8, addend: 0x0, symName: __ZNKSt3__16vectorINS_4pairIP12ggml_contextNS_13unordered_mapIjP19ggml_backend_bufferNS_4hashIjEENS_8equal_toIjEENS_9allocatorINS1_IKjS6_EEEEEEEENSB_ISG_EEE20__throw_length_errorB8ne180100Ev, symObjAddr: 0x43700, symBinAddr: 0xA1A50, symSize: 0x10 }
  - { offset: 0x432F4B, size: 0x8, addend: 0x0, symName: __ZNSt3__114__split_bufferINS_4pairIP12ggml_contextNS_13unordered_mapIjP19ggml_backend_bufferNS_4hashIjEENS_8equal_toIjEENS_9allocatorINS1_IKjS6_EEEEEEEERNSB_ISG_EEED1Ev, symObjAddr: 0x43710, symBinAddr: 0xA1A60, symSize: 0x90 }
  - { offset: 0x432FCE, size: 0x8, addend: 0x0, symName: __ZNK11llama_model4descEv, symObjAddr: 0x30270, symBinAddr: 0x98150, symSize: 0x50 }
  - { offset: 0x4332E9, size: 0x8, addend: 0x0, symName: __ZNK11llama_model4sizeEv, symObjAddr: 0x302C0, symBinAddr: 0x981A0, symSize: 0x20 }
  - { offset: 0x433344, size: 0x8, addend: 0x0, symName: __ZNK11llama_model9n_tensorsEv, symObjAddr: 0x302E0, symBinAddr: 0x981C0, symSize: 0x20 }
  - { offset: 0x43338C, size: 0x8, addend: 0x0, symName: __ZNK11llama_model10n_elementsEv, symObjAddr: 0x30300, symBinAddr: 0x981E0, symSize: 0x10 }
  - { offset: 0x43484E, size: 0x8, addend: 0x0, symName: '__ZZNK11llama_model10print_infoEvENK3$_0clERKNSt3__18functionIFjjEEEj', symObjAddr: 0x31350, symBinAddr: 0x99230, symSize: 0x440 }
  - { offset: 0x435B08, size: 0x8, addend: 0x0, symName: __ZNK11llama_model9dev_layerEi, symObjAddr: 0x31790, symBinAddr: 0x99670, symSize: 0x40 }
  - { offset: 0x435BA6, size: 0x8, addend: 0x0, symName: __ZNK11llama_model10dev_outputEv, symObjAddr: 0x317D0, symBinAddr: 0x996B0, symSize: 0x20 }
  - { offset: 0x435C6A, size: 0x8, addend: 0x0, symName: __ZNK11llama_model11select_buftEi, symObjAddr: 0x317F0, symBinAddr: 0x996D0, symSize: 0x300 }
  - { offset: 0x436294, size: 0x8, addend: 0x0, symName: __ZNK11llama_model20has_tensor_overridesEv, symObjAddr: 0x31AF0, symBinAddr: 0x999D0, symSize: 0x20 }
  - { offset: 0x436311, size: 0x8, addend: 0x0, symName: __ZNK11llama_model10get_tensorEPKc, symObjAddr: 0x31B10, symBinAddr: 0x999F0, symSize: 0xD0 }
  - { offset: 0x4365F6, size: 0x8, addend: 0x0, symName: __ZNK11llama_model18get_rope_freq_baseERK13llama_cparamsi, symObjAddr: 0x31BE0, symBinAddr: 0x99AC0, symSize: 0x40 }
  - { offset: 0x43662A, size: 0x8, addend: 0x0, symName: __ZNK11llama_model19get_rope_freq_scaleERK13llama_cparamsi, symObjAddr: 0x31C20, symBinAddr: 0x99B00, symSize: 0x40 }
  - { offset: 0x436682, size: 0x8, addend: 0x0, symName: __ZNK11llama_model16get_rope_factorsERK13llama_cparamsi, symObjAddr: 0x31C60, symBinAddr: 0x99B40, symSize: 0x60 }
  - { offset: 0x436EF4, size: 0x8, addend: 0x0, symName: __ZNK11llama_model11build_graphERK16llm_graph_paramsP11ggml_cgraph14llm_graph_type, symObjAddr: 0x32110, symBinAddr: 0x99FF0, symSize: 0x940 }
  - { offset: 0x437D24, size: 0x8, addend: 0x0, symName: __ZN14llm_build_bertC2ERK11llama_modelRK16llm_graph_paramsP11ggml_cgraph, symObjAddr: 0x49570, symBinAddr: 0xA73D0, symSize: 0xA70 }
  - { offset: 0x4384EB, size: 0x8, addend: 0x0, symName: __ZN17llm_build_graniteC2ERK11llama_modelRK16llm_graph_paramsP11ggml_cgraph, symObjAddr: 0x66360, symBinAddr: 0xC3EB0, symSize: 0x370 }
  - { offset: 0x438826, size: 0x8, addend: 0x0, symName: __ZN15llm_build_mambaC2ERK11llama_modelRK16llm_graph_paramsP11ggml_cgraph, symObjAddr: 0x56E50, symBinAddr: 0xB4A80, symSize: 0x280 }
  - { offset: 0x438C48, size: 0x8, addend: 0x0, symName: __ZN15llm_build_llamaC2ERK11llama_modelRK16llm_graph_paramsP11ggml_cgraph, symObjAddr: 0x45680, symBinAddr: 0xA3570, symSize: 0x870 }
  - { offset: 0x43932E, size: 0x8, addend: 0x0, symName: __ZN20llm_build_llama_iswaC2ERK11llama_modelRK16llm_graph_paramsP11ggml_cgraph, symObjAddr: 0x46010, symBinAddr: 0xA3E70, symSize: 0x9C0 }
  - { offset: 0x439AF6, size: 0x8, addend: 0x0, symName: __ZN14llm_build_deciC2ERK11llama_modelRK16llm_graph_paramsP11ggml_cgraph, symObjAddr: 0x46A60, symBinAddr: 0xA48C0, symSize: 0x860 }
  - { offset: 0x43A1AF, size: 0x8, addend: 0x0, symName: __ZN18llm_build_baichuanC2ERK11llama_modelRK16llm_graph_paramsP11ggml_cgraph, symObjAddr: 0x47350, symBinAddr: 0xA51B0, symSize: 0x630 }
  - { offset: 0x43A782, size: 0x8, addend: 0x0, symName: __ZN16llm_build_falconC2ERK11llama_modelRK16llm_graph_paramsP11ggml_cgraph, symObjAddr: 0x47A10, symBinAddr: 0xA5870, symSize: 0x660 }
  - { offset: 0x43AD44, size: 0x8, addend: 0x0, symName: __ZN14llm_build_grokC2ERK11llama_modelRK16llm_graph_paramsP11ggml_cgraph, symObjAddr: 0x48100, symBinAddr: 0xA5F60, symSize: 0x790 }
  - { offset: 0x43B3F9, size: 0x8, addend: 0x0, symName: __ZN19llm_build_starcoderC2ERK11llama_modelRK16llm_graph_paramsP11ggml_cgraph, symObjAddr: 0x48920, symBinAddr: 0xA6780, symSize: 0x620 }
  - { offset: 0x43BA44, size: 0x8, addend: 0x0, symName: __ZN16llm_build_refactC2ERK11llama_modelRK16llm_graph_paramsP11ggml_cgraph, symObjAddr: 0x48FD0, symBinAddr: 0xA6E30, symSize: 0x510 }
  - { offset: 0x43BFBB, size: 0x8, addend: 0x0, symName: __ZN18llm_build_neo_bertC2ERK11llama_modelRK16llm_graph_paramsP11ggml_cgraph, symObjAddr: 0x4A070, symBinAddr: 0xA7ED0, symSize: 0x590 }
  - { offset: 0x43C571, size: 0x8, addend: 0x0, symName: __ZN15llm_build_bloomC2ERK11llama_modelRK16llm_graph_paramsP11ggml_cgraph, symObjAddr: 0x4A690, symBinAddr: 0xA84F0, symSize: 0x5F0 }
  - { offset: 0x43CB6C, size: 0x8, addend: 0x0, symName: __ZN13llm_build_mptC2ERK11llama_modelRK16llm_graph_paramsP11ggml_cgraph, symObjAddr: 0x4AD10, symBinAddr: 0xA8B70, symSize: 0x790 }
  - { offset: 0x43D217, size: 0x8, addend: 0x0, symName: __ZN18llm_build_stablelmC2ERK11llama_modelRK16llm_graph_paramsP11ggml_cgraph, symObjAddr: 0x4B530, symBinAddr: 0xA9390, symSize: 0x760 }
  - { offset: 0x43D8D1, size: 0x8, addend: 0x0, symName: __ZN14llm_build_qwenC2ERK11llama_modelRK16llm_graph_paramsP11ggml_cgraph, symObjAddr: 0x4BD20, symBinAddr: 0xA9B80, symSize: 0x630 }
  - { offset: 0x43DEB8, size: 0x8, addend: 0x0, symName: __ZN15llm_build_qwen2C2ERK11llama_modelRK16llm_graph_paramsP11ggml_cgraph, symObjAddr: 0x4C3E0, symBinAddr: 0xAA240, symSize: 0x660 }
  - { offset: 0x43E51C, size: 0x8, addend: 0x0, symName: __ZN17llm_build_qwen2vlC2ERK11llama_modelRK16llm_graph_paramsP11ggml_cgraph, symObjAddr: 0x4CAD0, symBinAddr: 0xAA930, symSize: 0x6B0 }
  - { offset: 0x43ED24, size: 0x8, addend: 0x0, symName: __ZN18llm_build_qwen2moeC2ERK11llama_modelRK16llm_graph_paramsP11ggml_cgraph, symObjAddr: 0x4D210, symBinAddr: 0xAB070, symSize: 0x830 }
  - { offset: 0x43F489, size: 0x8, addend: 0x0, symName: __ZN15llm_build_qwen3C2ERK11llama_modelRK16llm_graph_paramsP11ggml_cgraph, symObjAddr: 0x4DAD0, symBinAddr: 0xAB930, symSize: 0x690 }
  - { offset: 0x43FA97, size: 0x8, addend: 0x0, symName: __ZN18llm_build_qwen3moeC2ERK11llama_modelRK16llm_graph_paramsP11ggml_cgraph, symObjAddr: 0x4E1F0, symBinAddr: 0xAC050, symSize: 0x690 }
  - { offset: 0x4400B6, size: 0x8, addend: 0x0, symName: __ZN14llm_build_phi2C2ERK11llama_modelRK16llm_graph_paramsP11ggml_cgraph, symObjAddr: 0x4E910, symBinAddr: 0xAC770, symSize: 0x7D0 }
  - { offset: 0x44080E, size: 0x8, addend: 0x0, symName: __ZN14llm_build_phi3ILb1EEC2ERK11llama_modelRK16llm_graph_paramsP11ggml_cgraph, symObjAddr: 0x4F170, symBinAddr: 0xACFD0, symSize: 0x8C0 }
  - { offset: 0x440FA2, size: 0x8, addend: 0x0, symName: __ZN14llm_build_phi3ILb0EEC2ERK11llama_modelRK16llm_graph_paramsP11ggml_cgraph, symObjAddr: 0x4FAC0, symBinAddr: 0xAD920, symSize: 0x8C0 }
  - { offset: 0x441736, size: 0x8, addend: 0x0, symName: __ZN15llm_build_plamoC2ERK11llama_modelRK16llm_graph_paramsP11ggml_cgraph, symObjAddr: 0x50410, symBinAddr: 0xAE270, symSize: 0x5B0 }
  - { offset: 0x441CEE, size: 0x8, addend: 0x0, symName: __ZN14llm_build_gpt2C2ERK11llama_modelRK16llm_graph_paramsP11ggml_cgraph, symObjAddr: 0x50A50, symBinAddr: 0xAE8B0, symSize: 0x600 }
  - { offset: 0x44233B, size: 0x8, addend: 0x0, symName: __ZN19llm_build_codeshellC2ERK11llama_modelRK16llm_graph_paramsP11ggml_cgraph, symObjAddr: 0x510E0, symBinAddr: 0xAEF40, symSize: 0x660 }
  - { offset: 0x442921, size: 0x8, addend: 0x0, symName: __ZN15llm_build_orionC2ERK11llama_modelRK16llm_graph_paramsP11ggml_cgraph, symObjAddr: 0x517D0, symBinAddr: 0xAF630, symSize: 0x600 }
  - { offset: 0x442EE8, size: 0x8, addend: 0x0, symName: __ZN19llm_build_internlm2C2ERK11llama_modelRK16llm_graph_paramsP11ggml_cgraph, symObjAddr: 0x51E60, symBinAddr: 0xAFCC0, symSize: 0x6B0 }
  - { offset: 0x44354B, size: 0x8, addend: 0x0, symName: __ZN18llm_build_minicpm3C2ERK11llama_modelRK16llm_graph_paramsP11ggml_cgraph, symObjAddr: 0x525A0, symBinAddr: 0xB0400, symSize: 0xB50 }
  - { offset: 0x443FA6, size: 0x8, addend: 0x0, symName: __ZN15llm_build_gemmaC2ERK11llama_modelRK16llm_graph_paramsP11ggml_cgraph, symObjAddr: 0x53180, symBinAddr: 0xB0FE0, symSize: 0x610 }
  - { offset: 0x444578, size: 0x8, addend: 0x0, symName: __ZN21llm_build_gemma2_iswaC2ERK11llama_modelRK16llm_graph_paramsP11ggml_cgraph, symObjAddr: 0x53820, symBinAddr: 0xB1680, symSize: 0x6B0 }
  - { offset: 0x444BBA, size: 0x8, addend: 0x0, symName: __ZN21llm_build_gemma3_iswaC2ERK11llama_modelRK16llm_graph_paramsP11ggml_cgraph, symObjAddr: 0x53F60, symBinAddr: 0xB1DC0, symSize: 0x780 }
  - { offset: 0x4452C2, size: 0x8, addend: 0x0, symName: __ZN22llm_build_gemma3n_iswaC2ERK11llama_modelRK16llm_graph_paramsP11ggml_cgraph, symObjAddr: 0x54770, symBinAddr: 0xB25D0, symSize: 0x1450 }
  - { offset: 0x4466F2, size: 0x8, addend: 0x0, symName: __ZN20llm_build_starcoder2C2ERK11llama_modelRK16llm_graph_paramsP11ggml_cgraph, symObjAddr: 0x56700, symBinAddr: 0xB4330, symSize: 0x6C0 }
  - { offset: 0x446D55, size: 0x8, addend: 0x0, symName: __ZN15llm_build_jambaC2ERK11llama_modelRK16llm_graph_paramsP11ggml_cgraph, symObjAddr: 0x58AF0, symBinAddr: 0xB6640, symSize: 0x5F0 }
  - { offset: 0x4473C5, size: 0x8, addend: 0x0, symName: __ZN16llm_build_xverseC2ERK11llama_modelRK16llm_graph_paramsP11ggml_cgraph, symObjAddr: 0x59170, symBinAddr: 0xB6CC0, symSize: 0x5F0 }
  - { offset: 0x44798C, size: 0x8, addend: 0x0, symName: __ZN19llm_build_command_rC2ERK11llama_modelRK16llm_graph_paramsP11ggml_cgraph, symObjAddr: 0x597F0, symBinAddr: 0xB7340, symSize: 0x710 }
  - { offset: 0x44805B, size: 0x8, addend: 0x0, symName: __ZN22llm_build_cohere2_iswaC2ERK11llama_modelRK16llm_graph_paramsP11ggml_cgraph, symObjAddr: 0x59F90, symBinAddr: 0xB7AE0, symSize: 0x700 }
  - { offset: 0x44873A, size: 0x8, addend: 0x0, symName: __ZN14llm_build_dbrxC2ERK11llama_modelRK16llm_graph_paramsP11ggml_cgraph, symObjAddr: 0x5A720, symBinAddr: 0xB8270, symSize: 0x660 }
  - { offset: 0x448D15, size: 0x8, addend: 0x0, symName: __ZN14llm_build_olmoC2ERK11llama_modelRK16llm_graph_paramsP11ggml_cgraph, symObjAddr: 0x5AE10, symBinAddr: 0xB8960, symSize: 0x6B0 }
  - { offset: 0x4492C5, size: 0x8, addend: 0x0, symName: __ZN15llm_build_olmo2C2ERK11llama_modelRK16llm_graph_paramsP11ggml_cgraph, symObjAddr: 0x5B550, symBinAddr: 0xB90A0, symSize: 0x6A0 }
  - { offset: 0x4498D5, size: 0x8, addend: 0x0, symName: __ZN15llm_build_olmoeC2ERK11llama_modelRK16llm_graph_paramsP11ggml_cgraph, symObjAddr: 0x5BC80, symBinAddr: 0xB97D0, symSize: 0x680 }
  - { offset: 0x449EE5, size: 0x8, addend: 0x0, symName: __ZN17llm_build_openelmC2ERK11llama_modelRK16llm_graph_paramsP11ggml_cgraph, symObjAddr: 0x5C390, symBinAddr: 0xB9EE0, symSize: 0x6F0 }
  - { offset: 0x44A518, size: 0x8, addend: 0x0, symName: __ZN17llm_build_gptneoxC2ERK11llama_modelRK16llm_graph_paramsP11ggml_cgraph, symObjAddr: 0x5CB10, symBinAddr: 0xBA660, symSize: 0x7A0 }
  - { offset: 0x44AB9D, size: 0x8, addend: 0x0, symName: __ZN16llm_build_arcticC2ERK11llama_modelRK16llm_graph_paramsP11ggml_cgraph, symObjAddr: 0x5D340, symBinAddr: 0xBAE90, symSize: 0x6F0 }
  - { offset: 0x44B1DC, size: 0x8, addend: 0x0, symName: __ZN18llm_build_deepseekC2ERK11llama_modelRK16llm_graph_paramsP11ggml_cgraph, symObjAddr: 0x5DAC0, symBinAddr: 0xBB610, symSize: 0x890 }
  - { offset: 0x44B900, size: 0x8, addend: 0x0, symName: __ZN19llm_build_deepseek2C2ERK11llama_modelRK16llm_graph_paramsP11ggml_cgraph, symObjAddr: 0x5E3E0, symBinAddr: 0xBBF30, symSize: 0xEF0 }
  - { offset: 0x44C533, size: 0x8, addend: 0x0, symName: __ZN17llm_build_chatglmC2ERK11llama_modelRK16llm_graph_paramsP11ggml_cgraph, symObjAddr: 0x5F360, symBinAddr: 0xBCEB0, symSize: 0x770 }
  - { offset: 0x44CC51, size: 0x8, addend: 0x0, symName: __ZN14llm_build_glm4C2ERK11llama_modelRK16llm_graph_paramsP11ggml_cgraph, symObjAddr: 0x5FB60, symBinAddr: 0xBD6B0, symSize: 0x800 }
  - { offset: 0x44D3BC, size: 0x8, addend: 0x0, symName: __ZN16llm_build_bitnetC2ERK11llama_modelRK16llm_graph_paramsP11ggml_cgraph, symObjAddr: 0x603F0, symBinAddr: 0xBDF40, symSize: 0x860 }
  - { offset: 0x44DBCC, size: 0x8, addend: 0x0, symName: __ZN16llm_build_t5_encC2ERK11llama_modelRK16llm_graph_paramsP11ggml_cgraph, symObjAddr: 0x60CE0, symBinAddr: 0xBE830, symSize: 0x520 }
  - { offset: 0x44E17F, size: 0x8, addend: 0x0, symName: __ZN16llm_build_t5_decC2ERK11llama_modelRK16llm_graph_paramsP11ggml_cgraph, symObjAddr: 0x61290, symBinAddr: 0xBEDE0, symSize: 0x750 }
  - { offset: 0x44E919, size: 0x8, addend: 0x0, symName: __ZN14llm_build_jaisC2ERK11llama_modelRK16llm_graph_paramsP11ggml_cgraph, symObjAddr: 0x61A70, symBinAddr: 0xBF5C0, symSize: 0x5B0 }
  - { offset: 0x44EF16, size: 0x8, addend: 0x0, symName: __ZN18llm_build_nemotronC2ERK11llama_modelRK16llm_graph_paramsP11ggml_cgraph, symObjAddr: 0x620B0, symBinAddr: 0xBFC00, symSize: 0x6A0 }
  - { offset: 0x44F579, size: 0x8, addend: 0x0, symName: __ZN16llm_build_exaoneC2ERK11llama_modelRK16llm_graph_paramsP11ggml_cgraph, symObjAddr: 0x627E0, symBinAddr: 0xC0330, symSize: 0x740 }
  - { offset: 0x44FC2E, size: 0x8, addend: 0x0, symName: __ZN15llm_build_rwkv6C2ERK11llama_modelRK16llm_graph_paramsP11ggml_cgraph, symObjAddr: 0x62FB0, symBinAddr: 0xC0B00, symSize: 0x6B0 }
  - { offset: 0x450417, size: 0x8, addend: 0x0, symName: __ZN20llm_build_rwkv6qwen2C2ERK11llama_modelRK16llm_graph_paramsP11ggml_cgraph, symObjAddr: 0x645B0, symBinAddr: 0xC2100, symSize: 0x520 }
  - { offset: 0x450A3C, size: 0x8, addend: 0x0, symName: __ZN15llm_build_rwkv7C2ERK11llama_modelRK16llm_graph_paramsP11ggml_cgraph, symObjAddr: 0x64B60, symBinAddr: 0xC26B0, symSize: 0x6D0 }
  - { offset: 0x45129E, size: 0x8, addend: 0x0, symName: __ZN16llm_build_arwkv7C2ERK11llama_modelRK16llm_graph_paramsP11ggml_cgraph, symObjAddr: 0x65DA0, symBinAddr: 0xC38F0, symSize: 0x530 }
  - { offset: 0x4518DB, size: 0x8, addend: 0x0, symName: __ZN24llm_build_granite_hybridC2ERK11llama_modelRK16llm_graph_paramsP11ggml_cgraph, symObjAddr: 0x66ED0, symBinAddr: 0xC4A20, symSize: 0x310 }
  - { offset: 0x451DF8, size: 0x8, addend: 0x0, symName: __ZN19llm_build_chameleonC2ERK11llama_modelRK16llm_graph_paramsP11ggml_cgraph, symObjAddr: 0x679E0, symBinAddr: 0xC5530, symSize: 0x920 }
  - { offset: 0x452612, size: 0x8, addend: 0x0, symName: __ZN26llm_build_wavtokenizer_decC2ERK11llama_modelRK16llm_graph_paramsP11ggml_cgraph, symObjAddr: 0x68390, symBinAddr: 0xC5EE0, symSize: 0x6D0 }
  - { offset: 0x452D80, size: 0x8, addend: 0x0, symName: __ZN13llm_build_plmC2ERK11llama_modelRK16llm_graph_paramsP11ggml_cgraph, symObjAddr: 0x68AF0, symBinAddr: 0xC6640, symSize: 0x9E0 }
  - { offset: 0x4536BA, size: 0x8, addend: 0x0, symName: __ZN20llm_build_bailingmoeC2ERK11llama_modelRK16llm_graph_paramsP11ggml_cgraph, symObjAddr: 0x69560, symBinAddr: 0xC70B0, symSize: 0x790 }
  - { offset: 0x453D96, size: 0x8, addend: 0x0, symName: __ZN15llm_build_dots1C2ERK11llama_modelRK16llm_graph_paramsP11ggml_cgraph, symObjAddr: 0x69D80, symBinAddr: 0xC78D0, symSize: 0x7D0 }
  - { offset: 0x4543FE, size: 0x8, addend: 0x0, symName: __ZN15llm_build_arceeC2ERK11llama_modelRK16llm_graph_paramsP11ggml_cgraph, symObjAddr: 0x6A5E0, symBinAddr: 0xC8130, symSize: 0x760 }
  - { offset: 0x454AB1, size: 0x8, addend: 0x0, symName: __ZN18llm_build_ernie4_5C2ERK11llama_modelRK16llm_graph_paramsP11ggml_cgraph, symObjAddr: 0x6ADD0, symBinAddr: 0xC8920, symSize: 0x6A0 }
  - { offset: 0x455117, size: 0x8, addend: 0x0, symName: __ZN21llm_build_hunyuan_moeC2ERK11llama_modelRK16llm_graph_paramsP11ggml_cgraph, symObjAddr: 0x6B500, symBinAddr: 0xC9050, symSize: 0x870 }
  - { offset: 0x455887, size: 0x8, addend: 0x0, symName: __ZN17llm_build_smollm3C2ERK11llama_modelRK16llm_graph_paramsP11ggml_cgraph, symObjAddr: 0x6BE00, symBinAddr: 0xC9950, symSize: 0x730 }
  - { offset: 0x455F0A, size: 0x8, addend: 0x0, symName: __ZN19llm_build_falcon_h1C2ERK11llama_modelRK16llm_graph_paramsP11ggml_cgraph, symObjAddr: 0x6C5C0, symBinAddr: 0xCA110, symSize: 0x6A0 }
  - { offset: 0x456607, size: 0x8, addend: 0x0, symName: __ZN14llm_build_lfm2C2ERK11llama_modelRK16llm_graph_paramsP11ggml_cgraph, symObjAddr: 0x6CCF0, symBinAddr: 0xCA840, symSize: 0x2A0 }
  - { offset: 0x456958, size: 0x8, addend: 0x0, symName: _llama_model_default_params, symObjAddr: 0x34430, symBinAddr: 0x9C310, symSize: 0x40 }
  - { offset: 0x456985, size: 0x8, addend: 0x0, symName: _llama_model_get_vocab, symObjAddr: 0x34470, symBinAddr: 0x9C350, symSize: 0x10 }
  - { offset: 0x4569E4, size: 0x8, addend: 0x0, symName: _llama_free_model, symObjAddr: 0x34480, symBinAddr: 0x9C360, symSize: 0x30 }
  - { offset: 0x456A0F, size: 0x8, addend: 0x0, symName: _llama_free_model, symObjAddr: 0x34480, symBinAddr: 0x9C360, symSize: 0x30 }
  - { offset: 0x456A56, size: 0x8, addend: 0x0, symName: _llama_model_free, symObjAddr: 0x344B0, symBinAddr: 0x9C390, symSize: 0x30 }
  - { offset: 0x456A9E, size: 0x8, addend: 0x0, symName: _llama_model_n_ctx_train, symObjAddr: 0x344E0, symBinAddr: 0x9C3C0, symSize: 0x10 }
  - { offset: 0x456AB9, size: 0x8, addend: 0x0, symName: _llama_model_n_embd, symObjAddr: 0x344F0, symBinAddr: 0x9C3D0, symSize: 0x10 }
  - { offset: 0x456AD4, size: 0x8, addend: 0x0, symName: _llama_model_n_layer, symObjAddr: 0x34500, symBinAddr: 0x9C3E0, symSize: 0x10 }
  - { offset: 0x456AEF, size: 0x8, addend: 0x0, symName: _llama_model_n_head, symObjAddr: 0x34510, symBinAddr: 0x9C3F0, symSize: 0x10 }
  - { offset: 0x456B0D, size: 0x8, addend: 0x0, symName: _llama_model_n_head_kv, symObjAddr: 0x34520, symBinAddr: 0x9C400, symSize: 0x10 }
  - { offset: 0x456B3A, size: 0x8, addend: 0x0, symName: _llama_model_n_swa, symObjAddr: 0x34530, symBinAddr: 0x9C410, symSize: 0x10 }
  - { offset: 0x456B65, size: 0x8, addend: 0x0, symName: _llama_model_n_cls_out, symObjAddr: 0x34540, symBinAddr: 0x9C420, symSize: 0x10 }
  - { offset: 0x456BB4, size: 0x8, addend: 0x0, symName: _llama_model_cls_label, symObjAddr: 0x34550, symBinAddr: 0x9C430, symSize: 0x50 }
  - { offset: 0x456CE3, size: 0x8, addend: 0x0, symName: _llama_n_ctx_train, symObjAddr: 0x345A0, symBinAddr: 0x9C480, symSize: 0x10 }
  - { offset: 0x456D46, size: 0x8, addend: 0x0, symName: _llama_n_embd, symObjAddr: 0x345B0, symBinAddr: 0x9C490, symSize: 0x10 }
  - { offset: 0x456DA9, size: 0x8, addend: 0x0, symName: _llama_n_layer, symObjAddr: 0x345C0, symBinAddr: 0x9C4A0, symSize: 0x10 }
  - { offset: 0x456E0C, size: 0x8, addend: 0x0, symName: _llama_n_head, symObjAddr: 0x345D0, symBinAddr: 0x9C4B0, symSize: 0x10 }
  - { offset: 0x456E58, size: 0x8, addend: 0x0, symName: _llama_model_rope_freq_scale_train, symObjAddr: 0x345E0, symBinAddr: 0x9C4C0, symSize: 0x10 }
  - { offset: 0x456EB4, size: 0x8, addend: 0x0, symName: _llama_model_meta_val_str, symObjAddr: 0x345F0, symBinAddr: 0x9C4D0, symSize: 0x140 }
  - { offset: 0x4576D0, size: 0x8, addend: 0x0, symName: __ZNKSt3__112__hash_tableINS_17__hash_value_typeINS_12basic_stringIcNS_11char_traitsIcEENS_9allocatorIcEEEES7_EENS_22__unordered_map_hasherIS7_S8_NS_4hashIS7_EENS_8equal_toIS7_EELb1EEENS_21__unordered_map_equalIS7_S8_SD_SB_Lb1EEENS5_IS8_EEE4findIS7_EENS_21__hash_const_iteratorIPNS_11__hash_nodeIS8_PvEEEERKT_, symObjAddr: 0x6D9E0, symBinAddr: 0xCB530, symSize: 0x2CF }
  - { offset: 0x457A20, size: 0x8, addend: 0x0, symName: _llama_model_meta_count, symObjAddr: 0x34730, symBinAddr: 0x9C610, symSize: 0x10 }
  - { offset: 0x457AEF, size: 0x8, addend: 0x0, symName: _llama_model_meta_key_by_index, symObjAddr: 0x34740, symBinAddr: 0x9C620, symSize: 0xB0 }
  - { offset: 0x457CA6, size: 0x8, addend: 0x0, symName: _llama_model_meta_val_str_by_index, symObjAddr: 0x347F0, symBinAddr: 0x9C6D0, symSize: 0xB0 }
  - { offset: 0x457E76, size: 0x8, addend: 0x0, symName: _llama_model_desc, symObjAddr: 0x348A0, symBinAddr: 0x9C780, symSize: 0x90 }
  - { offset: 0x45812E, size: 0x8, addend: 0x0, symName: _llama_model_size, symObjAddr: 0x34930, symBinAddr: 0x9C810, symSize: 0x20 }
  - { offset: 0x458196, size: 0x8, addend: 0x0, symName: _llama_model_chat_template, symObjAddr: 0x34950, symBinAddr: 0x9C830, symSize: 0x100 }
  - { offset: 0x45856C, size: 0x8, addend: 0x0, symName: _llama_model_n_params, symObjAddr: 0x34A50, symBinAddr: 0x9C930, symSize: 0x10 }
  - { offset: 0x4585D4, size: 0x8, addend: 0x0, symName: _llama_model_has_encoder, symObjAddr: 0x34A60, symBinAddr: 0x9C940, symSize: 0x20 }
  - { offset: 0x4585FF, size: 0x8, addend: 0x0, symName: _llama_model_has_decoder, symObjAddr: 0x34A80, symBinAddr: 0x9C960, symSize: 0x10 }
  - { offset: 0x45862A, size: 0x8, addend: 0x0, symName: _llama_model_decoder_start_token, symObjAddr: 0x34A90, symBinAddr: 0x9C970, symSize: 0x10 }
  - { offset: 0x458655, size: 0x8, addend: 0x0, symName: _llama_model_is_recurrent, symObjAddr: 0x34AA0, symBinAddr: 0x9C980, symSize: 0x10 }
  - { offset: 0x458690, size: 0x8, addend: 0x0, symName: __Z29llama_internal_get_tensor_mapPK11llama_model, symObjAddr: 0x34AB0, symBinAddr: 0x9C990, symSize: 0x10 }
  - { offset: 0x458E50, size: 0x8, addend: 0x0, symName: __ZNSt3__111basic_regexIcNS_12regex_traitsIcEEE13__parse_egrepIPKcEET_S7_S7_, symObjAddr: 0x356E0, symBinAddr: 0x9D390, symSize: 0x1E0 }
  - { offset: 0x4593EC, size: 0x8, addend: 0x0, symName: __ZNSt3__111basic_regexIcNS_12regex_traitsIcEEE24__parse_extended_reg_expIPKcEET_S7_S7_, symObjAddr: 0x35370, symBinAddr: 0x9D020, symSize: 0x190 }
  - { offset: 0x459771, size: 0x8, addend: 0x0, symName: __ZNSt3__111basic_regexIcNS_12regex_traitsIcEEE19__parse_alternativeIPKcEET_S7_S7_, symObjAddr: 0x35AE0, symBinAddr: 0x9D570, symSize: 0x90 }
  - { offset: 0x459867, size: 0x8, addend: 0x0, symName: __ZNSt3__111basic_regexIcNS_12regex_traitsIcEEE21__parse_basic_reg_expIPKcEET_S7_S7_, symObjAddr: 0x35220, symBinAddr: 0x9CED0, symSize: 0x150 }
  - { offset: 0x459B8E, size: 0x8, addend: 0x0, symName: __ZNSt3__111basic_regexIcNS_12regex_traitsIcEEE12__parse_grepIPKcEET_S7_S7_, symObjAddr: 0x35500, symBinAddr: 0x9D1B0, symSize: 0x1E0 }
  - { offset: 0x45A171, size: 0x8, addend: 0x0, symName: __ZNSt3__111basic_regexIcNS_12regex_traitsIcEEE16__parse_ecma_expIPKcEET_S7_S7_, symObjAddr: 0x35050, symBinAddr: 0x9CD00, symSize: 0x1D0 }
  - { offset: 0x45A5DD, size: 0x8, addend: 0x0, symName: __ZNSt3__111basic_regexIcNS_12regex_traitsIcEEE12__parse_termIPKcEET_S7_S7_, symObjAddr: 0x35B70, symBinAddr: 0x9D600, symSize: 0x80 }
  - { offset: 0x45A877, size: 0x8, addend: 0x0, symName: __ZNSt3__111basic_regexIcNS_12regex_traitsIcEEE18__parse_nondupl_REIPKcEET_S7_S7_, symObjAddr: 0x3DD60, symBinAddr: 0x9FA60, symSize: 0x1C0 }
  - { offset: 0x45ADA4, size: 0x8, addend: 0x0, symName: __ZNSt3__111basic_regexIcNS_12regex_traitsIcEEE22__parse_RE_dupl_symbolIPKcEET_S7_S7_PNS_16__owns_one_stateIcEEjj, symObjAddr: 0x3DF20, symBinAddr: 0x9FC20, symSize: 0x240 }
  - { offset: 0x45B3EB, size: 0x8, addend: 0x0, symName: __ZNSt3__111basic_regexIcNS_12regex_traitsIcEEE22__parse_ERE_expressionIPKcEET_S7_S7_, symObjAddr: 0x3E340, symBinAddr: 0x9FF50, symSize: 0x260 }
  - { offset: 0x45B946, size: 0x8, addend: 0x0, symName: __ZNSt3__111basic_regexIcNS_12regex_traitsIcEEE23__parse_ERE_dupl_symbolIPKcEET_S7_S7_PNS_16__owns_one_stateIcEEjj, symObjAddr: 0x36170, symBinAddr: 0x9DC00, symSize: 0x3B0 }
  - { offset: 0x45BEAD, size: 0x8, addend: 0x0, symName: __ZNSt3__111basic_regexIcNS_12regex_traitsIcEEE17__parse_assertionIPKcEET_S7_S7_, symObjAddr: 0x35BF0, symBinAddr: 0x9D680, symSize: 0x290 }
  - { offset: 0x45C480, size: 0x8, addend: 0x0, symName: __ZNSt3__111basic_regexIcNS_12regex_traitsIcEEE12__parse_atomIPKcEET_S7_S7_, symObjAddr: 0x35E80, symBinAddr: 0x9D910, symSize: 0x2F0 }
  - { offset: 0x45CCAA, size: 0x8, addend: 0x0, symName: __ZNSt3__111basic_regexIcNS_12regex_traitsIcEEE26__parse_bracket_expressionIPKcEET_S7_S7_, symObjAddr: 0x37D50, symBinAddr: 0x9E0C0, symSize: 0x140 }
  - { offset: 0x45CEA6, size: 0x8, addend: 0x0, symName: __ZNSt3__111basic_regexIcNS_12regex_traitsIcEEE19__parse_atom_escapeIPKcEET_S7_S7_, symObjAddr: 0x37C40, symBinAddr: 0x9DFB0, symSize: 0x110 }
  - { offset: 0x45D04D, size: 0x8, addend: 0x0, symName: __ZNSt3__111basic_regexIcNS_12regex_traitsIcEEE25__parse_pattern_characterIPKcEET_S7_S7_, symObjAddr: 0x37EE0, symBinAddr: 0x9E200, symSize: 0x1B0 }
  - { offset: 0x46135F, size: 0x8, addend: 0x0, symName: __ZNSt3__111basic_regexIcNS_12regex_traitsIcEEE30__parse_character_class_escapeIPKcEET_S7_S7_, symObjAddr: 0x38150, symBinAddr: 0x9E3B0, symSize: 0x2E0 }
  - { offset: 0x46187C, size: 0x8, addend: 0x0, symName: __ZNSt3__111basic_regexIcNS_12regex_traitsIcEEE24__parse_character_escapeIPKcEET_S7_S7_PNS_12basic_stringIcNS_11char_traitsIcEENS_9allocatorIcEEEE, symObjAddr: 0x38430, symBinAddr: 0x9E690, symSize: 0x400 }
  - { offset: 0x4629B9, size: 0x8, addend: 0x0, symName: __ZNSt3__111basic_regexIcNS_12regex_traitsIcEEE23__parse_expression_termIPKcEET_S7_S7_PNS_20__bracket_expressionIcS2_EE, symObjAddr: 0x3AC80, symBinAddr: 0x9EA90, symSize: 0x480 }
  - { offset: 0x464D41, size: 0x8, addend: 0x0, symName: __ZNSt3__111basic_regexIcNS_12regex_traitsIcEEE25__parse_equivalence_classIPKcEET_S7_S7_PNS_20__bracket_expressionIcS2_EE, symObjAddr: 0x3B100, symBinAddr: 0x9EF10, symSize: 0x260 }
  - { offset: 0x4658A2, size: 0x8, addend: 0x0, symName: __ZNSt3__111basic_regexIcNS_12regex_traitsIcEEE18__parse_awk_escapeIPKcEET_S7_S7_PNS_12basic_stringIcNS_11char_traitsIcEENS_9allocatorIcEEEE, symObjAddr: 0x3B5D0, symBinAddr: 0x9F3E0, symSize: 0x320 }
  - { offset: 0x4659CD, size: 0x8, addend: 0x0, symName: __ZNKSt3__112regex_traitsIcE18__lookup_classnameIPKcEEjT_S5_bc, symObjAddr: 0x3C970, symBinAddr: 0x9F930, symSize: 0x130 }
  - { offset: 0x4660CE, size: 0x8, addend: 0x0, symName: __ZNSt3__111basic_regexIcNS_12regex_traitsIcEEE24__parse_collating_symbolIPKcEET_S7_S7_RNS_12basic_stringIcNS_11char_traitsIcEENS_9allocatorIcEEEE, symObjAddr: 0x3B360, symBinAddr: 0x9F170, symSize: 0xE0 }
  - { offset: 0x4664BF, size: 0x8, addend: 0x0, symName: __ZNSt3__111basic_regexIcNS_12regex_traitsIcEEE20__parse_class_escapeIPKcEET_S7_S7_RNS_12basic_stringIcNS_11char_traitsIcEENS_9allocatorIcEEEEPNS_20__bracket_expressionIcS2_EE, symObjAddr: 0x3B440, symBinAddr: 0x9F250, symSize: 0x190 }
  - { offset: 0x467F20, size: 0x8, addend: 0x0, symName: __ZNKSt3__112regex_traitsIcE20__lookup_collatenameIPKcEENS_12basic_stringIcNS_11char_traitsIcEENS_9allocatorIcEEEET_SB_c, symObjAddr: 0x3C310, symBinAddr: 0x9F700, symSize: 0x230 }
  - { offset: 0x46B87A, size: 0x8, addend: 0x0, symName: __ZNSt3__111basic_regexIcNS_12regex_traitsIcEEE32__parse_one_char_or_coll_elem_REIPKcEET_S7_S7_, symObjAddr: 0x3E160, symBinAddr: 0x9FE60, symSize: 0xF0 }
  - { offset: 0x46BD16, size: 0x8, addend: 0x0, symName: __ZNSt3__111basic_regexIcNS_12regex_traitsIcEEE20__parse_ORD_CHAR_EREIPKcEET_S7_S7_, symObjAddr: 0x3E5A0, symBinAddr: 0xA01B0, symSize: 0x1B0 }
  - { offset: 0x46BD78, size: 0x8, addend: 0x0, symName: __ZNSt3__111basic_regexIcNS_12regex_traitsIcEEE23__parse_QUOTED_CHAR_EREIPKcEET_S7_S7_, symObjAddr: 0x3E750, symBinAddr: 0xA0360, symSize: 0x1F0 }
  - { offset: 0x472962, size: 0x8, addend: 0x0, symName: __ZNSt3__13mapI23llama_rope_scaling_typePKcNS_4lessIS1_EENS_9allocatorINS_4pairIKS1_S3_EEEEEC2B8ne180100ESt16initializer_listIS9_ERKS5_, symObjAddr: 0x41C70, symBinAddr: 0xA0550, symSize: 0x170 }
  - { offset: 0x4733B0, size: 0x8, addend: 0x0, symName: __ZNSt3__16__treeINS_12__value_typeIP19ggml_backend_deviceNS_6vectorINS_4pairIS3_P24ggml_backend_buffer_typeEENS_9allocatorIS8_EEEEEENS_19__map_value_compareIS3_SC_NS_4lessIS3_EELb1EEENS9_ISC_EEE7destroyEPNS_11__tree_nodeISC_PvEE, symObjAddr: 0x42060, symBinAddr: 0xA0940, symSize: 0x50 }
  - { offset: 0x473BA7, size: 0x8, addend: 0x0, symName: __ZNSt3__14pairIKNS_12basic_stringIcNS_11char_traitsIcEENS_9allocatorIcEEEES6_EC2B8ne180100IRPKcRS7_Li0EEEOT_OT0_, symObjAddr: 0x423A0, symBinAddr: 0xA0C80, symSize: 0x100 }
  - { offset: 0x4747FD, size: 0x8, addend: 0x0, symName: __ZNSt3__112__hash_tableINS_17__hash_value_typeINS_12basic_stringIcNS_11char_traitsIcEENS_9allocatorIcEEEES7_EENS_22__unordered_map_hasherIS7_S8_NS_4hashIS7_EENS_8equal_toIS7_EELb1EEENS_21__unordered_map_equalIS7_S8_SD_SB_Lb1EEENS5_IS8_EEE20__node_insert_uniqueEPNS_11__hash_nodeIS8_PvEE, symObjAddr: 0x421C0, symBinAddr: 0xA0AA0, symSize: 0x190 }
  - { offset: 0x474A6E, size: 0x8, addend: 0x0, symName: __ZNSt3__110unique_ptrINS_11__hash_nodeINS_17__hash_value_typeINS_12basic_stringIcNS_11char_traitsIcEENS_9allocatorIcEEEES8_EEPvEENS_22__hash_node_destructorINS6_ISB_EEEEED1B8ne180100Ev, symObjAddr: 0x42350, symBinAddr: 0xA0C30, symSize: 0x50 }
  - { offset: 0x474F34, size: 0x8, addend: 0x0, symName: __ZNSt3__112__hash_tableINS_17__hash_value_typeINS_12basic_stringIcNS_11char_traitsIcEENS_9allocatorIcEEEES7_EENS_22__unordered_map_hasherIS7_S8_NS_4hashIS7_EENS_8equal_toIS7_EELb1EEENS_21__unordered_map_equalIS7_S8_SD_SB_Lb1EEENS5_IS8_EEE28__node_insert_unique_prepareB8ne180100EmRS8_, symObjAddr: 0x42940, symBinAddr: 0xA0D80, symSize: 0x4D0 }
  - { offset: 0x4755FD, size: 0x8, addend: 0x0, symName: __ZNSt3__112__hash_tableINS_17__hash_value_typeINS_12basic_stringIcNS_11char_traitsIcEENS_9allocatorIcEEEES7_EENS_22__unordered_map_hasherIS7_S8_NS_4hashIS7_EENS_8equal_toIS7_EELb1EEENS_21__unordered_map_equalIS7_S8_SD_SB_Lb1EEENS5_IS8_EEE11__do_rehashILb1EEEvm, symObjAddr: 0x42E10, symBinAddr: 0xA1250, symSize: 0x210 }
  - { offset: 0x476229, size: 0x8, addend: 0x0, symName: __ZNKSt3__16vectorIN11llama_model4impl9layer_devENS_9allocatorIS3_EEE20__throw_length_errorB8ne180100Ev, symObjAddr: 0x434B0, symBinAddr: 0xA1850, symSize: 0x10 }
  - { offset: 0x476642, size: 0x8, addend: 0x0, symName: __ZNKSt3__16vectorI11llama_layerNS_9allocatorIS1_EEE20__throw_length_errorB8ne180100Ev, symObjAddr: 0x436E0, symBinAddr: 0xA1A40, symSize: 0x10 }
  - { offset: 0x476677, size: 0x8, addend: 0x0, symName: __ZNSt3__114__split_bufferINS_4pairIP12ggml_contextNS_13unordered_mapIjP19ggml_backend_bufferNS_4hashIjEENS_8equal_toIjEENS_9allocatorINS1_IKjS6_EEEEEEEERNSB_ISG_EEED1Ev, symObjAddr: 0x43710, symBinAddr: 0xA1A60, symSize: 0x90 }
  - { offset: 0x476ADE, size: 0x8, addend: 0x0, symName: __ZNSt3__112__hash_tableINS_17__hash_value_typeIjP19ggml_backend_bufferEENS_22__unordered_map_hasherIjS4_NS_4hashIjEENS_8equal_toIjEELb1EEENS_21__unordered_map_equalIjS4_S9_S7_Lb1EEENS_9allocatorIS4_EEED1Ev, symObjAddr: 0x437B0, symBinAddr: 0xA1AF0, symSize: 0x50 }
  - { offset: 0x477575, size: 0x8, addend: 0x0, symName: __ZNSt3__16vectorINS_4pairIP12ggml_contextNS_13unordered_mapIjP19ggml_backend_bufferNS_4hashIjEENS_8equal_toIjEENS_9allocatorINS1_IKjS6_EEEEEEEENSB_ISG_EEE24__emplace_back_slow_pathIJRS3_RSF_EEEPSG_DpOT_, symObjAddr: 0x442A0, symBinAddr: 0xA23B0, symSize: 0x280 }
  - { offset: 0x4778EA, size: 0x8, addend: 0x0, symName: __ZNSt3__112__hash_tableINS_17__hash_value_typeIjP19ggml_backend_bufferEENS_22__unordered_map_hasherIjS4_NS_4hashIjEENS_8equal_toIjEELb1EEENS_21__unordered_map_equalIjS4_S9_S7_Lb1EEENS_9allocatorIS4_EEE25__emplace_unique_key_argsIjJRKNS_4pairIKjS3_EEEEENSH_INS_15__hash_iteratorIPNS_11__hash_nodeIS4_PvEEEEbEERKT_DpOT0_, symObjAddr: 0x446E0, symBinAddr: 0xA27F0, symSize: 0x430 }
  - { offset: 0x478456, size: 0x8, addend: 0x0, symName: __ZNKSt3__16vectorINS_4pairINS_12basic_stringIcNS_11char_traitsIcEENS_9allocatorIcEEEEP11ggml_tensorEENS5_ISA_EEE20__throw_length_errorB8ne180100Ev, symObjAddr: 0x44DB0, symBinAddr: 0xA2EC0, symSize: 0x10 }
  - { offset: 0x47848B, size: 0x8, addend: 0x0, symName: __ZNSt3__114__split_bufferINS_4pairINS_12basic_stringIcNS_11char_traitsIcEENS_9allocatorIcEEEEP11ggml_tensorEERNS5_ISA_EEED1Ev, symObjAddr: 0x44D50, symBinAddr: 0xA2E60, symSize: 0x60 }
  - { offset: 0x47876F, size: 0x8, addend: 0x0, symName: '__ZNSt3__110__function6__funcIZNK11llama_model10print_infoEvE3$_1NS_9allocatorIS3_EEFjjEED1Ev', symObjAddr: 0x44FE0, symBinAddr: 0xA2ED0, symSize: 0x10 }
  - { offset: 0x478798, size: 0x8, addend: 0x0, symName: '__ZNSt3__110__function6__funcIZNK11llama_model10print_infoEvE3$_1NS_9allocatorIS3_EEFjjEED0Ev', symObjAddr: 0x44FF0, symBinAddr: 0xA2EE0, symSize: 0x10 }
  - { offset: 0x47899B, size: 0x8, addend: 0x0, symName: '__ZNKSt3__110__function6__funcIZNK11llama_model10print_infoEvE3$_1NS_9allocatorIS3_EEFjjEE7__cloneEv', symObjAddr: 0x45000, symBinAddr: 0xA2EF0, symSize: 0x30 }
  - { offset: 0x478C81, size: 0x8, addend: 0x0, symName: '__ZNKSt3__110__function6__funcIZNK11llama_model10print_infoEvE3$_1NS_9allocatorIS3_EEFjjEE7__cloneEPNS0_6__baseIS6_EE', symObjAddr: 0x45030, symBinAddr: 0xA2F20, symSize: 0x20 }
  - { offset: 0x478D88, size: 0x8, addend: 0x0, symName: '__ZNSt3__110__function6__funcIZNK11llama_model10print_infoEvE3$_1NS_9allocatorIS3_EEFjjEE7destroyEv', symObjAddr: 0x45050, symBinAddr: 0xA2F40, symSize: 0x10 }
  - { offset: 0x478DD9, size: 0x8, addend: 0x0, symName: '__ZNSt3__110__function6__funcIZNK11llama_model10print_infoEvE3$_1NS_9allocatorIS3_EEFjjEE18destroy_deallocateEv', symObjAddr: 0x45060, symBinAddr: 0xA2F50, symSize: 0x10 }
  - { offset: 0x478F29, size: 0x8, addend: 0x0, symName: '__ZNSt3__110__function6__funcIZNK11llama_model10print_infoEvE3$_1NS_9allocatorIS3_EEFjjEEclEOj', symObjAddr: 0x45070, symBinAddr: 0xA2F60, symSize: 0x20 }
  - { offset: 0x478FC1, size: 0x8, addend: 0x0, symName: '__ZNKSt3__110__function6__funcIZNK11llama_model10print_infoEvE3$_1NS_9allocatorIS3_EEFjjEE6targetERKSt9type_info', symObjAddr: 0x45090, symBinAddr: 0xA2F80, symSize: 0x20 }
  - { offset: 0x479033, size: 0x8, addend: 0x0, symName: '__ZNKSt3__110__function6__funcIZNK11llama_model10print_infoEvE3$_1NS_9allocatorIS3_EEFjjEE11target_typeEv', symObjAddr: 0x450B0, symBinAddr: 0xA2FA0, symSize: 0x10 }
  - { offset: 0x479058, size: 0x8, addend: 0x0, symName: '__ZNSt3__110__function6__funcIZNK11llama_model10print_infoEvE3$_2NS_9allocatorIS3_EEFjjEED1Ev', symObjAddr: 0x450C0, symBinAddr: 0xA2FB0, symSize: 0x10 }
  - { offset: 0x479081, size: 0x8, addend: 0x0, symName: '__ZNSt3__110__function6__funcIZNK11llama_model10print_infoEvE3$_2NS_9allocatorIS3_EEFjjEED0Ev', symObjAddr: 0x450D0, symBinAddr: 0xA2FC0, symSize: 0x10 }
  - { offset: 0x479284, size: 0x8, addend: 0x0, symName: '__ZNKSt3__110__function6__funcIZNK11llama_model10print_infoEvE3$_2NS_9allocatorIS3_EEFjjEE7__cloneEv', symObjAddr: 0x450E0, symBinAddr: 0xA2FD0, symSize: 0x30 }
  - { offset: 0x47956A, size: 0x8, addend: 0x0, symName: '__ZNKSt3__110__function6__funcIZNK11llama_model10print_infoEvE3$_2NS_9allocatorIS3_EEFjjEE7__cloneEPNS0_6__baseIS6_EE', symObjAddr: 0x45110, symBinAddr: 0xA3000, symSize: 0x20 }
  - { offset: 0x479671, size: 0x8, addend: 0x0, symName: '__ZNSt3__110__function6__funcIZNK11llama_model10print_infoEvE3$_2NS_9allocatorIS3_EEFjjEE7destroyEv', symObjAddr: 0x45130, symBinAddr: 0xA3020, symSize: 0x10 }
  - { offset: 0x4796C2, size: 0x8, addend: 0x0, symName: '__ZNSt3__110__function6__funcIZNK11llama_model10print_infoEvE3$_2NS_9allocatorIS3_EEFjjEE18destroy_deallocateEv', symObjAddr: 0x45140, symBinAddr: 0xA3030, symSize: 0x10 }
  - { offset: 0x479812, size: 0x8, addend: 0x0, symName: '__ZNSt3__110__function6__funcIZNK11llama_model10print_infoEvE3$_2NS_9allocatorIS3_EEFjjEEclEOj', symObjAddr: 0x45150, symBinAddr: 0xA3040, symSize: 0x20 }
  - { offset: 0x4798AA, size: 0x8, addend: 0x0, symName: '__ZNKSt3__110__function6__funcIZNK11llama_model10print_infoEvE3$_2NS_9allocatorIS3_EEFjjEE6targetERKSt9type_info', symObjAddr: 0x45170, symBinAddr: 0xA3060, symSize: 0x20 }
  - { offset: 0x47991C, size: 0x8, addend: 0x0, symName: '__ZNKSt3__110__function6__funcIZNK11llama_model10print_infoEvE3$_2NS_9allocatorIS3_EEFjjEE11target_typeEv', symObjAddr: 0x45190, symBinAddr: 0xA3080, symSize: 0x10 }
  - { offset: 0x479941, size: 0x8, addend: 0x0, symName: '__ZNSt3__110__function6__funcIZNK11llama_model10print_infoEvE3$_3NS_9allocatorIS3_EEFjjEED1Ev', symObjAddr: 0x451A0, symBinAddr: 0xA3090, symSize: 0x10 }
  - { offset: 0x47996A, size: 0x8, addend: 0x0, symName: '__ZNSt3__110__function6__funcIZNK11llama_model10print_infoEvE3$_3NS_9allocatorIS3_EEFjjEED0Ev', symObjAddr: 0x451B0, symBinAddr: 0xA30A0, symSize: 0x10 }
  - { offset: 0x479B6D, size: 0x8, addend: 0x0, symName: '__ZNKSt3__110__function6__funcIZNK11llama_model10print_infoEvE3$_3NS_9allocatorIS3_EEFjjEE7__cloneEv', symObjAddr: 0x451C0, symBinAddr: 0xA30B0, symSize: 0x30 }
  - { offset: 0x479E53, size: 0x8, addend: 0x0, symName: '__ZNKSt3__110__function6__funcIZNK11llama_model10print_infoEvE3$_3NS_9allocatorIS3_EEFjjEE7__cloneEPNS0_6__baseIS6_EE', symObjAddr: 0x451F0, symBinAddr: 0xA30E0, symSize: 0x20 }
  - { offset: 0x479F5A, size: 0x8, addend: 0x0, symName: '__ZNSt3__110__function6__funcIZNK11llama_model10print_infoEvE3$_3NS_9allocatorIS3_EEFjjEE7destroyEv', symObjAddr: 0x45210, symBinAddr: 0xA3100, symSize: 0x10 }
  - { offset: 0x479FAB, size: 0x8, addend: 0x0, symName: '__ZNSt3__110__function6__funcIZNK11llama_model10print_infoEvE3$_3NS_9allocatorIS3_EEFjjEE18destroy_deallocateEv', symObjAddr: 0x45220, symBinAddr: 0xA3110, symSize: 0x10 }
  - { offset: 0x47A0FB, size: 0x8, addend: 0x0, symName: '__ZNSt3__110__function6__funcIZNK11llama_model10print_infoEvE3$_3NS_9allocatorIS3_EEFjjEEclEOj', symObjAddr: 0x45230, symBinAddr: 0xA3120, symSize: 0x20 }
  - { offset: 0x47A193, size: 0x8, addend: 0x0, symName: '__ZNKSt3__110__function6__funcIZNK11llama_model10print_infoEvE3$_3NS_9allocatorIS3_EEFjjEE6targetERKSt9type_info', symObjAddr: 0x45250, symBinAddr: 0xA3140, symSize: 0x20 }
  - { offset: 0x47A205, size: 0x8, addend: 0x0, symName: '__ZNKSt3__110__function6__funcIZNK11llama_model10print_infoEvE3$_3NS_9allocatorIS3_EEFjjEE11target_typeEv', symObjAddr: 0x45270, symBinAddr: 0xA3160, symSize: 0x10 }
  - { offset: 0x47A22A, size: 0x8, addend: 0x0, symName: '__ZNSt3__110__function6__funcIZNK11llama_model10print_infoEvE3$_4NS_9allocatorIS3_EEFjjEED1Ev', symObjAddr: 0x45280, symBinAddr: 0xA3170, symSize: 0x10 }
  - { offset: 0x47A253, size: 0x8, addend: 0x0, symName: '__ZNSt3__110__function6__funcIZNK11llama_model10print_infoEvE3$_4NS_9allocatorIS3_EEFjjEED0Ev', symObjAddr: 0x45290, symBinAddr: 0xA3180, symSize: 0x10 }
  - { offset: 0x47A456, size: 0x8, addend: 0x0, symName: '__ZNKSt3__110__function6__funcIZNK11llama_model10print_infoEvE3$_4NS_9allocatorIS3_EEFjjEE7__cloneEv', symObjAddr: 0x452A0, symBinAddr: 0xA3190, symSize: 0x30 }
  - { offset: 0x47A73C, size: 0x8, addend: 0x0, symName: '__ZNKSt3__110__function6__funcIZNK11llama_model10print_infoEvE3$_4NS_9allocatorIS3_EEFjjEE7__cloneEPNS0_6__baseIS6_EE', symObjAddr: 0x452D0, symBinAddr: 0xA31C0, symSize: 0x20 }
  - { offset: 0x47A843, size: 0x8, addend: 0x0, symName: '__ZNSt3__110__function6__funcIZNK11llama_model10print_infoEvE3$_4NS_9allocatorIS3_EEFjjEE7destroyEv', symObjAddr: 0x452F0, symBinAddr: 0xA31E0, symSize: 0x10 }
  - { offset: 0x47A894, size: 0x8, addend: 0x0, symName: '__ZNSt3__110__function6__funcIZNK11llama_model10print_infoEvE3$_4NS_9allocatorIS3_EEFjjEE18destroy_deallocateEv', symObjAddr: 0x45300, symBinAddr: 0xA31F0, symSize: 0x10 }
  - { offset: 0x47A9E4, size: 0x8, addend: 0x0, symName: '__ZNSt3__110__function6__funcIZNK11llama_model10print_infoEvE3$_4NS_9allocatorIS3_EEFjjEEclEOj', symObjAddr: 0x45310, symBinAddr: 0xA3200, symSize: 0x20 }
  - { offset: 0x47AA7C, size: 0x8, addend: 0x0, symName: '__ZNKSt3__110__function6__funcIZNK11llama_model10print_infoEvE3$_4NS_9allocatorIS3_EEFjjEE6targetERKSt9type_info', symObjAddr: 0x45330, symBinAddr: 0xA3220, symSize: 0x20 }
  - { offset: 0x47AAEE, size: 0x8, addend: 0x0, symName: '__ZNKSt3__110__function6__funcIZNK11llama_model10print_infoEvE3$_4NS_9allocatorIS3_EEFjjEE11target_typeEv', symObjAddr: 0x45350, symBinAddr: 0xA3240, symSize: 0x10 }
  - { offset: 0x47AB13, size: 0x8, addend: 0x0, symName: '__ZNSt3__110__function6__funcIZNK11llama_model10print_infoEvE3$_5NS_9allocatorIS3_EEFjjEED1Ev', symObjAddr: 0x45360, symBinAddr: 0xA3250, symSize: 0x10 }
  - { offset: 0x47AB3C, size: 0x8, addend: 0x0, symName: '__ZNSt3__110__function6__funcIZNK11llama_model10print_infoEvE3$_5NS_9allocatorIS3_EEFjjEED0Ev', symObjAddr: 0x45370, symBinAddr: 0xA3260, symSize: 0x10 }
  - { offset: 0x47AD3F, size: 0x8, addend: 0x0, symName: '__ZNKSt3__110__function6__funcIZNK11llama_model10print_infoEvE3$_5NS_9allocatorIS3_EEFjjEE7__cloneEv', symObjAddr: 0x45380, symBinAddr: 0xA3270, symSize: 0x30 }
  - { offset: 0x47B025, size: 0x8, addend: 0x0, symName: '__ZNKSt3__110__function6__funcIZNK11llama_model10print_infoEvE3$_5NS_9allocatorIS3_EEFjjEE7__cloneEPNS0_6__baseIS6_EE', symObjAddr: 0x453B0, symBinAddr: 0xA32A0, symSize: 0x20 }
  - { offset: 0x47B12C, size: 0x8, addend: 0x0, symName: '__ZNSt3__110__function6__funcIZNK11llama_model10print_infoEvE3$_5NS_9allocatorIS3_EEFjjEE7destroyEv', symObjAddr: 0x453D0, symBinAddr: 0xA32C0, symSize: 0x10 }
  - { offset: 0x47B17D, size: 0x8, addend: 0x0, symName: '__ZNSt3__110__function6__funcIZNK11llama_model10print_infoEvE3$_5NS_9allocatorIS3_EEFjjEE18destroy_deallocateEv', symObjAddr: 0x453E0, symBinAddr: 0xA32D0, symSize: 0x10 }
  - { offset: 0x47B2CD, size: 0x8, addend: 0x0, symName: '__ZNSt3__110__function6__funcIZNK11llama_model10print_infoEvE3$_5NS_9allocatorIS3_EEFjjEEclEOj', symObjAddr: 0x453F0, symBinAddr: 0xA32E0, symSize: 0x20 }
  - { offset: 0x47B365, size: 0x8, addend: 0x0, symName: '__ZNKSt3__110__function6__funcIZNK11llama_model10print_infoEvE3$_5NS_9allocatorIS3_EEFjjEE6targetERKSt9type_info', symObjAddr: 0x45410, symBinAddr: 0xA3300, symSize: 0x20 }
  - { offset: 0x47B3D7, size: 0x8, addend: 0x0, symName: '__ZNKSt3__110__function6__funcIZNK11llama_model10print_infoEvE3$_5NS_9allocatorIS3_EEFjjEE11target_typeEv', symObjAddr: 0x45430, symBinAddr: 0xA3320, symSize: 0x10 }
  - { offset: 0x47B3FC, size: 0x8, addend: 0x0, symName: '__ZNSt3__110__function6__funcIZNK11llama_model10print_infoEvE3$_6NS_9allocatorIS3_EEFjjEED1Ev', symObjAddr: 0x45440, symBinAddr: 0xA3330, symSize: 0x10 }
  - { offset: 0x47B425, size: 0x8, addend: 0x0, symName: '__ZNSt3__110__function6__funcIZNK11llama_model10print_infoEvE3$_6NS_9allocatorIS3_EEFjjEED0Ev', symObjAddr: 0x45450, symBinAddr: 0xA3340, symSize: 0x10 }
  - { offset: 0x47B628, size: 0x8, addend: 0x0, symName: '__ZNKSt3__110__function6__funcIZNK11llama_model10print_infoEvE3$_6NS_9allocatorIS3_EEFjjEE7__cloneEv', symObjAddr: 0x45460, symBinAddr: 0xA3350, symSize: 0x30 }
  - { offset: 0x47B90E, size: 0x8, addend: 0x0, symName: '__ZNKSt3__110__function6__funcIZNK11llama_model10print_infoEvE3$_6NS_9allocatorIS3_EEFjjEE7__cloneEPNS0_6__baseIS6_EE', symObjAddr: 0x45490, symBinAddr: 0xA3380, symSize: 0x20 }
  - { offset: 0x47BA15, size: 0x8, addend: 0x0, symName: '__ZNSt3__110__function6__funcIZNK11llama_model10print_infoEvE3$_6NS_9allocatorIS3_EEFjjEE7destroyEv', symObjAddr: 0x454B0, symBinAddr: 0xA33A0, symSize: 0x10 }
  - { offset: 0x47BA66, size: 0x8, addend: 0x0, symName: '__ZNSt3__110__function6__funcIZNK11llama_model10print_infoEvE3$_6NS_9allocatorIS3_EEFjjEE18destroy_deallocateEv', symObjAddr: 0x454C0, symBinAddr: 0xA33B0, symSize: 0x10 }
  - { offset: 0x47BBB6, size: 0x8, addend: 0x0, symName: '__ZNSt3__110__function6__funcIZNK11llama_model10print_infoEvE3$_6NS_9allocatorIS3_EEFjjEEclEOj', symObjAddr: 0x454D0, symBinAddr: 0xA33C0, symSize: 0x20 }
  - { offset: 0x47BC4E, size: 0x8, addend: 0x0, symName: '__ZNKSt3__110__function6__funcIZNK11llama_model10print_infoEvE3$_6NS_9allocatorIS3_EEFjjEE6targetERKSt9type_info', symObjAddr: 0x454F0, symBinAddr: 0xA33E0, symSize: 0x20 }
  - { offset: 0x47BCC0, size: 0x8, addend: 0x0, symName: '__ZNKSt3__110__function6__funcIZNK11llama_model10print_infoEvE3$_6NS_9allocatorIS3_EEFjjEE11target_typeEv', symObjAddr: 0x45510, symBinAddr: 0xA3400, symSize: 0x10 }
  - { offset: 0x47BCE5, size: 0x8, addend: 0x0, symName: '__ZNSt3__110__function6__funcIZNK11llama_model13create_memoryERK19llama_memory_paramsR13llama_cparamsE3$_0NS_9allocatorIS8_EEFbiEED1Ev', symObjAddr: 0x45520, symBinAddr: 0xA3410, symSize: 0x10 }
  - { offset: 0x47BD0E, size: 0x8, addend: 0x0, symName: '__ZNSt3__110__function6__funcIZNK11llama_model13create_memoryERK19llama_memory_paramsR13llama_cparamsE3$_0NS_9allocatorIS8_EEFbiEED0Ev', symObjAddr: 0x45530, symBinAddr: 0xA3420, symSize: 0x10 }
  - { offset: 0x47BDC3, size: 0x8, addend: 0x0, symName: '__ZNKSt3__110__function6__funcIZNK11llama_model13create_memoryERK19llama_memory_paramsR13llama_cparamsE3$_0NS_9allocatorIS8_EEFbiEE7__cloneEv', symObjAddr: 0x45540, symBinAddr: 0xA3430, symSize: 0x20 }
  - { offset: 0x47BF0C, size: 0x8, addend: 0x0, symName: '__ZNKSt3__110__function6__funcIZNK11llama_model13create_memoryERK19llama_memory_paramsR13llama_cparamsE3$_0NS_9allocatorIS8_EEFbiEE7__cloneEPNS0_6__baseISB_EE', symObjAddr: 0x45560, symBinAddr: 0xA3450, symSize: 0x10 }
  - { offset: 0x47BF7A, size: 0x8, addend: 0x0, symName: '__ZNSt3__110__function6__funcIZNK11llama_model13create_memoryERK19llama_memory_paramsR13llama_cparamsE3$_0NS_9allocatorIS8_EEFbiEE7destroyEv', symObjAddr: 0x45570, symBinAddr: 0xA3460, symSize: 0x10 }
  - { offset: 0x47BFCB, size: 0x8, addend: 0x0, symName: '__ZNSt3__110__function6__funcIZNK11llama_model13create_memoryERK19llama_memory_paramsR13llama_cparamsE3$_0NS_9allocatorIS8_EEFbiEE18destroy_deallocateEv', symObjAddr: 0x45580, symBinAddr: 0xA3470, symSize: 0x10 }
  - { offset: 0x47C09F, size: 0x8, addend: 0x0, symName: '__ZNSt3__110__function6__funcIZNK11llama_model13create_memoryERK19llama_memory_paramsR13llama_cparamsE3$_0NS_9allocatorIS8_EEFbiEEclEOi', symObjAddr: 0x45590, symBinAddr: 0xA3480, symSize: 0x10 }
  - { offset: 0x47C0D0, size: 0x8, addend: 0x0, symName: '__ZNKSt3__110__function6__funcIZNK11llama_model13create_memoryERK19llama_memory_paramsR13llama_cparamsE3$_0NS_9allocatorIS8_EEFbiEE6targetERKSt9type_info', symObjAddr: 0x455A0, symBinAddr: 0xA3490, symSize: 0x20 }
  - { offset: 0x47C142, size: 0x8, addend: 0x0, symName: '__ZNKSt3__110__function6__funcIZNK11llama_model13create_memoryERK19llama_memory_paramsR13llama_cparamsE3$_0NS_9allocatorIS8_EEFbiEE11target_typeEv', symObjAddr: 0x455C0, symBinAddr: 0xA34B0, symSize: 0x10 }
  - { offset: 0x47C167, size: 0x8, addend: 0x0, symName: '__ZNSt3__110__function6__funcIZNK11llama_model13create_memoryERK19llama_memory_paramsR13llama_cparamsE3$_1NS_9allocatorIS8_EEFbiEED1Ev', symObjAddr: 0x455D0, symBinAddr: 0xA34C0, symSize: 0x10 }
  - { offset: 0x47C190, size: 0x8, addend: 0x0, symName: '__ZNSt3__110__function6__funcIZNK11llama_model13create_memoryERK19llama_memory_paramsR13llama_cparamsE3$_1NS_9allocatorIS8_EEFbiEED0Ev', symObjAddr: 0x455E0, symBinAddr: 0xA34D0, symSize: 0x10 }
  - { offset: 0x47C245, size: 0x8, addend: 0x0, symName: '__ZNKSt3__110__function6__funcIZNK11llama_model13create_memoryERK19llama_memory_paramsR13llama_cparamsE3$_1NS_9allocatorIS8_EEFbiEE7__cloneEv', symObjAddr: 0x455F0, symBinAddr: 0xA34E0, symSize: 0x20 }
  - { offset: 0x47C38E, size: 0x8, addend: 0x0, symName: '__ZNKSt3__110__function6__funcIZNK11llama_model13create_memoryERK19llama_memory_paramsR13llama_cparamsE3$_1NS_9allocatorIS8_EEFbiEE7__cloneEPNS0_6__baseISB_EE', symObjAddr: 0x45610, symBinAddr: 0xA3500, symSize: 0x10 }
  - { offset: 0x47C3FC, size: 0x8, addend: 0x0, symName: '__ZNSt3__110__function6__funcIZNK11llama_model13create_memoryERK19llama_memory_paramsR13llama_cparamsE3$_1NS_9allocatorIS8_EEFbiEE7destroyEv', symObjAddr: 0x45620, symBinAddr: 0xA3510, symSize: 0x10 }
  - { offset: 0x47C44D, size: 0x8, addend: 0x0, symName: '__ZNSt3__110__function6__funcIZNK11llama_model13create_memoryERK19llama_memory_paramsR13llama_cparamsE3$_1NS_9allocatorIS8_EEFbiEE18destroy_deallocateEv', symObjAddr: 0x45630, symBinAddr: 0xA3520, symSize: 0x10 }
  - { offset: 0x47C521, size: 0x8, addend: 0x0, symName: '__ZNSt3__110__function6__funcIZNK11llama_model13create_memoryERK19llama_memory_paramsR13llama_cparamsE3$_1NS_9allocatorIS8_EEFbiEEclEOi', symObjAddr: 0x45640, symBinAddr: 0xA3530, symSize: 0x10 }
  - { offset: 0x47C552, size: 0x8, addend: 0x0, symName: '__ZNKSt3__110__function6__funcIZNK11llama_model13create_memoryERK19llama_memory_paramsR13llama_cparamsE3$_1NS_9allocatorIS8_EEFbiEE6targetERKSt9type_info', symObjAddr: 0x45650, symBinAddr: 0xA3540, symSize: 0x20 }
  - { offset: 0x47C5C4, size: 0x8, addend: 0x0, symName: '__ZNKSt3__110__function6__funcIZNK11llama_model13create_memoryERK19llama_memory_paramsR13llama_cparamsE3$_1NS_9allocatorIS8_EEFbiEE11target_typeEv', symObjAddr: 0x45670, symBinAddr: 0xA3560, symSize: 0x10 }
  - { offset: 0x47C73A, size: 0x8, addend: 0x0, symName: __ZN15llm_build_llamaD1Ev, symObjAddr: 0x45EF0, symBinAddr: 0xA3DE0, symSize: 0x40 }
  - { offset: 0x47C84B, size: 0x8, addend: 0x0, symName: __ZN15llm_build_llamaD0Ev, symObjAddr: 0x45F30, symBinAddr: 0xA3E20, symSize: 0x50 }
  - { offset: 0x47C9A7, size: 0x8, addend: 0x0, symName: __ZN20llm_build_llama_iswaD1Ev, symObjAddr: 0x469D0, symBinAddr: 0xA4830, symSize: 0x40 }
  - { offset: 0x47CAB8, size: 0x8, addend: 0x0, symName: __ZN20llm_build_llama_iswaD0Ev, symObjAddr: 0x46A10, symBinAddr: 0xA4870, symSize: 0x50 }
  - { offset: 0x47CBF7, size: 0x8, addend: 0x0, symName: __ZN14llm_build_deciD1Ev, symObjAddr: 0x472C0, symBinAddr: 0xA5120, symSize: 0x40 }
  - { offset: 0x47CD08, size: 0x8, addend: 0x0, symName: __ZN14llm_build_deciD0Ev, symObjAddr: 0x47300, symBinAddr: 0xA5160, symSize: 0x50 }
  - { offset: 0x47CE47, size: 0x8, addend: 0x0, symName: __ZN18llm_build_baichuanD1Ev, symObjAddr: 0x47980, symBinAddr: 0xA57E0, symSize: 0x40 }
  - { offset: 0x47CF58, size: 0x8, addend: 0x0, symName: __ZN18llm_build_baichuanD0Ev, symObjAddr: 0x479C0, symBinAddr: 0xA5820, symSize: 0x50 }
  - { offset: 0x47D111, size: 0x8, addend: 0x0, symName: __ZN16llm_build_falconD1Ev, symObjAddr: 0x48070, symBinAddr: 0xA5ED0, symSize: 0x40 }
  - { offset: 0x47D222, size: 0x8, addend: 0x0, symName: __ZN16llm_build_falconD0Ev, symObjAddr: 0x480B0, symBinAddr: 0xA5F10, symSize: 0x50 }
  - { offset: 0x47D37E, size: 0x8, addend: 0x0, symName: __ZN14llm_build_grokD1Ev, symObjAddr: 0x48890, symBinAddr: 0xA66F0, symSize: 0x40 }
  - { offset: 0x47D48F, size: 0x8, addend: 0x0, symName: __ZN14llm_build_grokD0Ev, symObjAddr: 0x488D0, symBinAddr: 0xA6730, symSize: 0x50 }
  - { offset: 0x47D5CE, size: 0x8, addend: 0x0, symName: __ZN19llm_build_starcoderD1Ev, symObjAddr: 0x48F40, symBinAddr: 0xA6DA0, symSize: 0x40 }
  - { offset: 0x47D6DF, size: 0x8, addend: 0x0, symName: __ZN19llm_build_starcoderD0Ev, symObjAddr: 0x48F80, symBinAddr: 0xA6DE0, symSize: 0x50 }
  - { offset: 0x47D81E, size: 0x8, addend: 0x0, symName: __ZN16llm_build_refactD1Ev, symObjAddr: 0x494E0, symBinAddr: 0xA7340, symSize: 0x40 }
  - { offset: 0x47D92F, size: 0x8, addend: 0x0, symName: __ZN16llm_build_refactD0Ev, symObjAddr: 0x49520, symBinAddr: 0xA7380, symSize: 0x50 }
  - { offset: 0x47DA90, size: 0x8, addend: 0x0, symName: __ZN14llm_build_bertD1Ev, symObjAddr: 0x49FE0, symBinAddr: 0xA7E40, symSize: 0x40 }
  - { offset: 0x47DBA1, size: 0x8, addend: 0x0, symName: __ZN14llm_build_bertD0Ev, symObjAddr: 0x4A020, symBinAddr: 0xA7E80, symSize: 0x50 }
  - { offset: 0x47DCE0, size: 0x8, addend: 0x0, symName: __ZN18llm_build_neo_bertD1Ev, symObjAddr: 0x4A600, symBinAddr: 0xA8460, symSize: 0x40 }
  - { offset: 0x47DDF1, size: 0x8, addend: 0x0, symName: __ZN18llm_build_neo_bertD0Ev, symObjAddr: 0x4A640, symBinAddr: 0xA84A0, symSize: 0x50 }
  - { offset: 0x47DF30, size: 0x8, addend: 0x0, symName: __ZN15llm_build_bloomD1Ev, symObjAddr: 0x4AC80, symBinAddr: 0xA8AE0, symSize: 0x40 }
  - { offset: 0x47E041, size: 0x8, addend: 0x0, symName: __ZN15llm_build_bloomD0Ev, symObjAddr: 0x4ACC0, symBinAddr: 0xA8B20, symSize: 0x50 }
  - { offset: 0x47E1A2, size: 0x8, addend: 0x0, symName: __ZN13llm_build_mptD1Ev, symObjAddr: 0x4B4A0, symBinAddr: 0xA9300, symSize: 0x40 }
  - { offset: 0x47E2B3, size: 0x8, addend: 0x0, symName: __ZN13llm_build_mptD0Ev, symObjAddr: 0x4B4E0, symBinAddr: 0xA9340, symSize: 0x50 }
  - { offset: 0x47E3F2, size: 0x8, addend: 0x0, symName: __ZN18llm_build_stablelmD1Ev, symObjAddr: 0x4BC90, symBinAddr: 0xA9AF0, symSize: 0x40 }
  - { offset: 0x47E503, size: 0x8, addend: 0x0, symName: __ZN18llm_build_stablelmD0Ev, symObjAddr: 0x4BCD0, symBinAddr: 0xA9B30, symSize: 0x50 }
  - { offset: 0x47E642, size: 0x8, addend: 0x0, symName: __ZN14llm_build_qwenD1Ev, symObjAddr: 0x4C350, symBinAddr: 0xAA1B0, symSize: 0x40 }
  - { offset: 0x47E753, size: 0x8, addend: 0x0, symName: __ZN14llm_build_qwenD0Ev, symObjAddr: 0x4C390, symBinAddr: 0xAA1F0, symSize: 0x50 }
  - { offset: 0x47E892, size: 0x8, addend: 0x0, symName: __ZN15llm_build_qwen2D1Ev, symObjAddr: 0x4CA40, symBinAddr: 0xAA8A0, symSize: 0x40 }
  - { offset: 0x47E9A3, size: 0x8, addend: 0x0, symName: __ZN15llm_build_qwen2D0Ev, symObjAddr: 0x4CA80, symBinAddr: 0xAA8E0, symSize: 0x50 }
  - { offset: 0x47EB85, size: 0x8, addend: 0x0, symName: __ZN17llm_build_qwen2vlD1Ev, symObjAddr: 0x4D180, symBinAddr: 0xAAFE0, symSize: 0x40 }
  - { offset: 0x47EC96, size: 0x8, addend: 0x0, symName: __ZN17llm_build_qwen2vlD0Ev, symObjAddr: 0x4D1C0, symBinAddr: 0xAB020, symSize: 0x50 }
  - { offset: 0x47EDED, size: 0x8, addend: 0x0, symName: __ZN18llm_build_qwen2moeD1Ev, symObjAddr: 0x4DA40, symBinAddr: 0xAB8A0, symSize: 0x40 }
  - { offset: 0x47EEFE, size: 0x8, addend: 0x0, symName: __ZN18llm_build_qwen2moeD0Ev, symObjAddr: 0x4DA80, symBinAddr: 0xAB8E0, symSize: 0x50 }
  - { offset: 0x47F03D, size: 0x8, addend: 0x0, symName: __ZN15llm_build_qwen3D1Ev, symObjAddr: 0x4E160, symBinAddr: 0xABFC0, symSize: 0x40 }
  - { offset: 0x47F14E, size: 0x8, addend: 0x0, symName: __ZN15llm_build_qwen3D0Ev, symObjAddr: 0x4E1A0, symBinAddr: 0xAC000, symSize: 0x50 }
  - { offset: 0x47F28D, size: 0x8, addend: 0x0, symName: __ZN18llm_build_qwen3moeD1Ev, symObjAddr: 0x4E880, symBinAddr: 0xAC6E0, symSize: 0x40 }
  - { offset: 0x47F39E, size: 0x8, addend: 0x0, symName: __ZN18llm_build_qwen3moeD0Ev, symObjAddr: 0x4E8C0, symBinAddr: 0xAC720, symSize: 0x50 }
  - { offset: 0x47F4DD, size: 0x8, addend: 0x0, symName: __ZN14llm_build_phi2D1Ev, symObjAddr: 0x4F0E0, symBinAddr: 0xACF40, symSize: 0x40 }
  - { offset: 0x47F5EE, size: 0x8, addend: 0x0, symName: __ZN14llm_build_phi2D0Ev, symObjAddr: 0x4F120, symBinAddr: 0xACF80, symSize: 0x50 }
  - { offset: 0x47F72D, size: 0x8, addend: 0x0, symName: __ZN14llm_build_phi3ILb1EED1Ev, symObjAddr: 0x4FA30, symBinAddr: 0xAD890, symSize: 0x40 }
  - { offset: 0x47F83E, size: 0x8, addend: 0x0, symName: __ZN14llm_build_phi3ILb1EED0Ev, symObjAddr: 0x4FA70, symBinAddr: 0xAD8D0, symSize: 0x50 }
  - { offset: 0x47F97D, size: 0x8, addend: 0x0, symName: __ZN14llm_build_phi3ILb0EED1Ev, symObjAddr: 0x50380, symBinAddr: 0xAE1E0, symSize: 0x40 }
  - { offset: 0x47FA8E, size: 0x8, addend: 0x0, symName: __ZN14llm_build_phi3ILb0EED0Ev, symObjAddr: 0x503C0, symBinAddr: 0xAE220, symSize: 0x50 }
  - { offset: 0x47FBCD, size: 0x8, addend: 0x0, symName: __ZN15llm_build_plamoD1Ev, symObjAddr: 0x509C0, symBinAddr: 0xAE820, symSize: 0x40 }
  - { offset: 0x47FCDE, size: 0x8, addend: 0x0, symName: __ZN15llm_build_plamoD0Ev, symObjAddr: 0x50A00, symBinAddr: 0xAE860, symSize: 0x50 }
  - { offset: 0x47FE1D, size: 0x8, addend: 0x0, symName: __ZN14llm_build_gpt2D1Ev, symObjAddr: 0x51050, symBinAddr: 0xAEEB0, symSize: 0x40 }
  - { offset: 0x47FF2E, size: 0x8, addend: 0x0, symName: __ZN14llm_build_gpt2D0Ev, symObjAddr: 0x51090, symBinAddr: 0xAEEF0, symSize: 0x50 }
  - { offset: 0x48006D, size: 0x8, addend: 0x0, symName: __ZN19llm_build_codeshellD1Ev, symObjAddr: 0x51740, symBinAddr: 0xAF5A0, symSize: 0x40 }
  - { offset: 0x48017E, size: 0x8, addend: 0x0, symName: __ZN19llm_build_codeshellD0Ev, symObjAddr: 0x51780, symBinAddr: 0xAF5E0, symSize: 0x50 }
  - { offset: 0x4802BD, size: 0x8, addend: 0x0, symName: __ZN15llm_build_orionD1Ev, symObjAddr: 0x51DD0, symBinAddr: 0xAFC30, symSize: 0x40 }
  - { offset: 0x4803CE, size: 0x8, addend: 0x0, symName: __ZN15llm_build_orionD0Ev, symObjAddr: 0x51E10, symBinAddr: 0xAFC70, symSize: 0x50 }
  - { offset: 0x48050D, size: 0x8, addend: 0x0, symName: __ZN19llm_build_internlm2D1Ev, symObjAddr: 0x52510, symBinAddr: 0xB0370, symSize: 0x40 }
  - { offset: 0x48061E, size: 0x8, addend: 0x0, symName: __ZN19llm_build_internlm2D0Ev, symObjAddr: 0x52550, symBinAddr: 0xB03B0, symSize: 0x50 }
  - { offset: 0x4807B4, size: 0x8, addend: 0x0, symName: __ZN18llm_build_minicpm3D1Ev, symObjAddr: 0x530F0, symBinAddr: 0xB0F50, symSize: 0x40 }
  - { offset: 0x4808C5, size: 0x8, addend: 0x0, symName: __ZN18llm_build_minicpm3D0Ev, symObjAddr: 0x53130, symBinAddr: 0xB0F90, symSize: 0x50 }
  - { offset: 0x480A04, size: 0x8, addend: 0x0, symName: __ZN15llm_build_gemmaD1Ev, symObjAddr: 0x53790, symBinAddr: 0xB15F0, symSize: 0x40 }
  - { offset: 0x480B15, size: 0x8, addend: 0x0, symName: __ZN15llm_build_gemmaD0Ev, symObjAddr: 0x537D0, symBinAddr: 0xB1630, symSize: 0x50 }
  - { offset: 0x480C6C, size: 0x8, addend: 0x0, symName: __ZN21llm_build_gemma2_iswaD1Ev, symObjAddr: 0x53ED0, symBinAddr: 0xB1D30, symSize: 0x40 }
  - { offset: 0x480D7D, size: 0x8, addend: 0x0, symName: __ZN21llm_build_gemma2_iswaD0Ev, symObjAddr: 0x53F10, symBinAddr: 0xB1D70, symSize: 0x50 }
  - { offset: 0x480F1E, size: 0x8, addend: 0x0, symName: __ZN21llm_build_gemma3_iswaD1Ev, symObjAddr: 0x546E0, symBinAddr: 0xB2540, symSize: 0x40 }
  - { offset: 0x48102F, size: 0x8, addend: 0x0, symName: __ZN21llm_build_gemma3_iswaD0Ev, symObjAddr: 0x54720, symBinAddr: 0xB2580, symSize: 0x50 }
  - { offset: 0x4811DB, size: 0x8, addend: 0x0, symName: __ZN22llm_build_gemma3n_iswa20get_per_layer_inputsEv, symObjAddr: 0x55D00, symBinAddr: 0xB3B60, symSize: 0x190 }
  - { offset: 0x4816D4, size: 0x8, addend: 0x0, symName: __ZN22llm_build_gemma3n_iswa24project_per_layer_inputsEP11ggml_tensorS1_, symObjAddr: 0x55BC0, symBinAddr: 0xB3A20, symSize: 0x140 }
  - { offset: 0x481861, size: 0x8, addend: 0x0, symName: __ZN22llm_build_gemma3n_iswa13altup_predictEP11ggml_tensori, symObjAddr: 0x55E90, symBinAddr: 0xB3CF0, symSize: 0x250 }
  - { offset: 0x481B39, size: 0x8, addend: 0x0, symName: __ZN22llm_build_gemma3n_iswa13gaussian_topkEP11ggml_tensor, symObjAddr: 0x560E0, symBinAddr: 0xB3F40, symSize: 0xD0 }
  - { offset: 0x481C91, size: 0x8, addend: 0x0, symName: __ZN22llm_build_gemma3n_iswa13altup_correctEP11ggml_tensorS1_i, symObjAddr: 0x561B0, symBinAddr: 0xB4010, symSize: 0x290 }
  - { offset: 0x482971, size: 0x8, addend: 0x0, symName: __ZN22llm_build_gemma3n_iswaD1Ev, symObjAddr: 0x56440, symBinAddr: 0xB42A0, symSize: 0x40 }
  - { offset: 0x482A82, size: 0x8, addend: 0x0, symName: __ZN22llm_build_gemma3n_iswaD0Ev, symObjAddr: 0x56480, symBinAddr: 0xB42E0, symSize: 0x50 }
  - { offset: 0x482EB3, size: 0x8, addend: 0x0, symName: __ZN20llm_build_starcoder2C2ERK11llama_modelRK16llm_graph_paramsP11ggml_cgraph, symObjAddr: 0x56700, symBinAddr: 0xB4330, symSize: 0x6C0 }
  - { offset: 0x482EDB, size: 0x8, addend: 0x0, symName: __ZN20llm_build_starcoder2D1Ev, symObjAddr: 0x56DC0, symBinAddr: 0xB49F0, symSize: 0x40 }
  - { offset: 0x482FEC, size: 0x8, addend: 0x0, symName: __ZN20llm_build_starcoder2D0Ev, symObjAddr: 0x56E00, symBinAddr: 0xB4A30, symSize: 0x50 }
  - { offset: 0x483D6F, size: 0x8, addend: 0x0, symName: __ZN15llm_build_mambaD1Ev, symObjAddr: 0x58640, symBinAddr: 0xB6270, symSize: 0x40 }
  - { offset: 0x483E9F, size: 0x8, addend: 0x0, symName: __ZN15llm_build_mambaD0Ev, symObjAddr: 0x58680, symBinAddr: 0xB62B0, symSize: 0x50 }
  - { offset: 0x483FDE, size: 0x8, addend: 0x0, symName: __ZNSt3__110__function6__funcIZNK23llm_graph_context_mamba18build_mamba2_layerEP18llm_graph_input_rsP11ggml_cgraphP11ggml_tensorRK11llama_modelRK12llama_ubatchiEUlP12ggml_contextS8_S8_E_NS_9allocatorISH_EEFS8_SG_S8_S8_EED1Ev, symObjAddr: 0x587B0, symBinAddr: 0xB6300, symSize: 0x10 }
  - { offset: 0x484009, size: 0x8, addend: 0x0, symName: __ZNSt3__110__function6__funcIZNK23llm_graph_context_mamba18build_mamba2_layerEP18llm_graph_input_rsP11ggml_cgraphP11ggml_tensorRK11llama_modelRK12llama_ubatchiEUlP12ggml_contextS8_S8_E_NS_9allocatorISH_EEFS8_SG_S8_S8_EED0Ev, symObjAddr: 0x587C0, symBinAddr: 0xB6310, symSize: 0x10 }
  - { offset: 0x4841E6, size: 0x8, addend: 0x0, symName: __ZNKSt3__110__function6__funcIZNK23llm_graph_context_mamba18build_mamba2_layerEP18llm_graph_input_rsP11ggml_cgraphP11ggml_tensorRK11llama_modelRK12llama_ubatchiEUlP12ggml_contextS8_S8_E_NS_9allocatorISH_EEFS8_SG_S8_S8_EE7__cloneEv, symObjAddr: 0x587D0, symBinAddr: 0xB6320, symSize: 0x50 }
  - { offset: 0x48450B, size: 0x8, addend: 0x0, symName: __ZNKSt3__110__function6__funcIZNK23llm_graph_context_mamba18build_mamba2_layerEP18llm_graph_input_rsP11ggml_cgraphP11ggml_tensorRK11llama_modelRK12llama_ubatchiEUlP12ggml_contextS8_S8_E_NS_9allocatorISH_EEFS8_SG_S8_S8_EE7__cloneEPNS0_6__baseISK_EE, symObjAddr: 0x58820, symBinAddr: 0xB6370, symSize: 0x40 }
  - { offset: 0x484687, size: 0x8, addend: 0x0, symName: __ZNSt3__110__function6__funcIZNK23llm_graph_context_mamba18build_mamba2_layerEP18llm_graph_input_rsP11ggml_cgraphP11ggml_tensorRK11llama_modelRK12llama_ubatchiEUlP12ggml_contextS8_S8_E_NS_9allocatorISH_EEFS8_SG_S8_S8_EE7destroyEv, symObjAddr: 0x58860, symBinAddr: 0xB63B0, symSize: 0x10 }
  - { offset: 0x4846DA, size: 0x8, addend: 0x0, symName: __ZNSt3__110__function6__funcIZNK23llm_graph_context_mamba18build_mamba2_layerEP18llm_graph_input_rsP11ggml_cgraphP11ggml_tensorRK11llama_modelRK12llama_ubatchiEUlP12ggml_contextS8_S8_E_NS_9allocatorISH_EEFS8_SG_S8_S8_EE18destroy_deallocateEv, symObjAddr: 0x58870, symBinAddr: 0xB63C0, symSize: 0x10 }
  - { offset: 0x484888, size: 0x8, addend: 0x0, symName: __ZNSt3__110__function6__funcIZNK23llm_graph_context_mamba18build_mamba2_layerEP18llm_graph_input_rsP11ggml_cgraphP11ggml_tensorRK11llama_modelRK12llama_ubatchiEUlP12ggml_contextS8_S8_E_NS_9allocatorISH_EEFS8_SG_S8_S8_EEclEOSG_OS8_SN_, symObjAddr: 0x58880, symBinAddr: 0xB63D0, symSize: 0xA0 }
  - { offset: 0x484A12, size: 0x8, addend: 0x0, symName: __ZNKSt3__110__function6__funcIZNK23llm_graph_context_mamba18build_mamba2_layerEP18llm_graph_input_rsP11ggml_cgraphP11ggml_tensorRK11llama_modelRK12llama_ubatchiEUlP12ggml_contextS8_S8_E_NS_9allocatorISH_EEFS8_SG_S8_S8_EE6targetERKSt9type_info, symObjAddr: 0x58920, symBinAddr: 0xB6470, symSize: 0x20 }
  - { offset: 0x484A82, size: 0x8, addend: 0x0, symName: __ZNKSt3__110__function6__funcIZNK23llm_graph_context_mamba18build_mamba2_layerEP18llm_graph_input_rsP11ggml_cgraphP11ggml_tensorRK11llama_modelRK12llama_ubatchiEUlP12ggml_contextS8_S8_E_NS_9allocatorISH_EEFS8_SG_S8_S8_EE11target_typeEv, symObjAddr: 0x58940, symBinAddr: 0xB6490, symSize: 0x10 }
  - { offset: 0x484AA9, size: 0x8, addend: 0x0, symName: __ZNSt3__110__function6__funcIZN23llm_graph_context_mamba17build_mamba_layerEP18llm_graph_input_rsP11ggml_cgraphP11ggml_tensorRK11llama_modelRK12llama_ubatchiEUlP12ggml_contextS8_S8_E_NS_9allocatorISH_EEFS8_SG_S8_S8_EED1Ev, symObjAddr: 0x58950, symBinAddr: 0xB64A0, symSize: 0x10 }
  - { offset: 0x484AD4, size: 0x8, addend: 0x0, symName: __ZNSt3__110__function6__funcIZN23llm_graph_context_mamba17build_mamba_layerEP18llm_graph_input_rsP11ggml_cgraphP11ggml_tensorRK11llama_modelRK12llama_ubatchiEUlP12ggml_contextS8_S8_E_NS_9allocatorISH_EEFS8_SG_S8_S8_EED0Ev, symObjAddr: 0x58960, symBinAddr: 0xB64B0, symSize: 0x10 }
  - { offset: 0x484CB1, size: 0x8, addend: 0x0, symName: __ZNKSt3__110__function6__funcIZN23llm_graph_context_mamba17build_mamba_layerEP18llm_graph_input_rsP11ggml_cgraphP11ggml_tensorRK11llama_modelRK12llama_ubatchiEUlP12ggml_contextS8_S8_E_NS_9allocatorISH_EEFS8_SG_S8_S8_EE7__cloneEv, symObjAddr: 0x58970, symBinAddr: 0xB64C0, symSize: 0x50 }
  - { offset: 0x484FD6, size: 0x8, addend: 0x0, symName: __ZNKSt3__110__function6__funcIZN23llm_graph_context_mamba17build_mamba_layerEP18llm_graph_input_rsP11ggml_cgraphP11ggml_tensorRK11llama_modelRK12llama_ubatchiEUlP12ggml_contextS8_S8_E_NS_9allocatorISH_EEFS8_SG_S8_S8_EE7__cloneEPNS0_6__baseISK_EE, symObjAddr: 0x589C0, symBinAddr: 0xB6510, symSize: 0x40 }
  - { offset: 0x485152, size: 0x8, addend: 0x0, symName: __ZNSt3__110__function6__funcIZN23llm_graph_context_mamba17build_mamba_layerEP18llm_graph_input_rsP11ggml_cgraphP11ggml_tensorRK11llama_modelRK12llama_ubatchiEUlP12ggml_contextS8_S8_E_NS_9allocatorISH_EEFS8_SG_S8_S8_EE7destroyEv, symObjAddr: 0x58A00, symBinAddr: 0xB6550, symSize: 0x10 }
  - { offset: 0x4851A5, size: 0x8, addend: 0x0, symName: __ZNSt3__110__function6__funcIZN23llm_graph_context_mamba17build_mamba_layerEP18llm_graph_input_rsP11ggml_cgraphP11ggml_tensorRK11llama_modelRK12llama_ubatchiEUlP12ggml_contextS8_S8_E_NS_9allocatorISH_EEFS8_SG_S8_S8_EE18destroy_deallocateEv, symObjAddr: 0x58A10, symBinAddr: 0xB6560, symSize: 0x10 }
  - { offset: 0x485353, size: 0x8, addend: 0x0, symName: __ZNSt3__110__function6__funcIZN23llm_graph_context_mamba17build_mamba_layerEP18llm_graph_input_rsP11ggml_cgraphP11ggml_tensorRK11llama_modelRK12llama_ubatchiEUlP12ggml_contextS8_S8_E_NS_9allocatorISH_EEFS8_SG_S8_S8_EEclEOSG_OS8_SN_, symObjAddr: 0x58A20, symBinAddr: 0xB6570, symSize: 0xA0 }
  - { offset: 0x4854D9, size: 0x8, addend: 0x0, symName: __ZNKSt3__110__function6__funcIZN23llm_graph_context_mamba17build_mamba_layerEP18llm_graph_input_rsP11ggml_cgraphP11ggml_tensorRK11llama_modelRK12llama_ubatchiEUlP12ggml_contextS8_S8_E_NS_9allocatorISH_EEFS8_SG_S8_S8_EE6targetERKSt9type_info, symObjAddr: 0x58AC0, symBinAddr: 0xB6610, symSize: 0x20 }
  - { offset: 0x485549, size: 0x8, addend: 0x0, symName: __ZNKSt3__110__function6__funcIZN23llm_graph_context_mamba17build_mamba_layerEP18llm_graph_input_rsP11ggml_cgraphP11ggml_tensorRK11llama_modelRK12llama_ubatchiEUlP12ggml_contextS8_S8_E_NS_9allocatorISH_EEFS8_SG_S8_S8_EE11target_typeEv, symObjAddr: 0x58AE0, symBinAddr: 0xB6630, symSize: 0x10 }
  - { offset: 0x4855F4, size: 0x8, addend: 0x0, symName: __ZN15llm_build_jambaD1Ev, symObjAddr: 0x590E0, symBinAddr: 0xB6C30, symSize: 0x40 }
  - { offset: 0x485724, size: 0x8, addend: 0x0, symName: __ZN15llm_build_jambaD0Ev, symObjAddr: 0x59120, symBinAddr: 0xB6C70, symSize: 0x50 }
  - { offset: 0x485880, size: 0x8, addend: 0x0, symName: __ZN16llm_build_xverseD1Ev, symObjAddr: 0x59760, symBinAddr: 0xB72B0, symSize: 0x40 }
  - { offset: 0x485991, size: 0x8, addend: 0x0, symName: __ZN16llm_build_xverseD0Ev, symObjAddr: 0x597A0, symBinAddr: 0xB72F0, symSize: 0x50 }
  - { offset: 0x485AD0, size: 0x8, addend: 0x0, symName: __ZN19llm_build_command_rD1Ev, symObjAddr: 0x59F00, symBinAddr: 0xB7A50, symSize: 0x40 }
  - { offset: 0x485BE1, size: 0x8, addend: 0x0, symName: __ZN19llm_build_command_rD0Ev, symObjAddr: 0x59F40, symBinAddr: 0xB7A90, symSize: 0x50 }
  - { offset: 0x485D20, size: 0x8, addend: 0x0, symName: __ZN22llm_build_cohere2_iswaD1Ev, symObjAddr: 0x5A690, symBinAddr: 0xB81E0, symSize: 0x40 }
  - { offset: 0x485E31, size: 0x8, addend: 0x0, symName: __ZN22llm_build_cohere2_iswaD0Ev, symObjAddr: 0x5A6D0, symBinAddr: 0xB8220, symSize: 0x50 }
  - { offset: 0x485F70, size: 0x8, addend: 0x0, symName: __ZN14llm_build_dbrxD1Ev, symObjAddr: 0x5AD80, symBinAddr: 0xB88D0, symSize: 0x40 }
  - { offset: 0x486081, size: 0x8, addend: 0x0, symName: __ZN14llm_build_dbrxD0Ev, symObjAddr: 0x5ADC0, symBinAddr: 0xB8910, symSize: 0x50 }
  - { offset: 0x4861C0, size: 0x8, addend: 0x0, symName: __ZN14llm_build_olmoD1Ev, symObjAddr: 0x5B4C0, symBinAddr: 0xB9010, symSize: 0x40 }
  - { offset: 0x4862D1, size: 0x8, addend: 0x0, symName: __ZN14llm_build_olmoD0Ev, symObjAddr: 0x5B500, symBinAddr: 0xB9050, symSize: 0x50 }
  - { offset: 0x486410, size: 0x8, addend: 0x0, symName: __ZN15llm_build_olmo2D1Ev, symObjAddr: 0x5BBF0, symBinAddr: 0xB9740, symSize: 0x40 }
  - { offset: 0x486521, size: 0x8, addend: 0x0, symName: __ZN15llm_build_olmo2D0Ev, symObjAddr: 0x5BC30, symBinAddr: 0xB9780, symSize: 0x50 }
  - { offset: 0x486660, size: 0x8, addend: 0x0, symName: __ZN15llm_build_olmoeD1Ev, symObjAddr: 0x5C300, symBinAddr: 0xB9E50, symSize: 0x40 }
  - { offset: 0x486771, size: 0x8, addend: 0x0, symName: __ZN15llm_build_olmoeD0Ev, symObjAddr: 0x5C340, symBinAddr: 0xB9E90, symSize: 0x50 }
  - { offset: 0x4868B0, size: 0x8, addend: 0x0, symName: __ZN17llm_build_openelmD1Ev, symObjAddr: 0x5CA80, symBinAddr: 0xBA5D0, symSize: 0x40 }
  - { offset: 0x4869C1, size: 0x8, addend: 0x0, symName: __ZN17llm_build_openelmD0Ev, symObjAddr: 0x5CAC0, symBinAddr: 0xBA610, symSize: 0x50 }
  - { offset: 0x486B00, size: 0x8, addend: 0x0, symName: __ZN17llm_build_gptneoxD1Ev, symObjAddr: 0x5D2B0, symBinAddr: 0xBAE00, symSize: 0x40 }
  - { offset: 0x486C11, size: 0x8, addend: 0x0, symName: __ZN17llm_build_gptneoxD0Ev, symObjAddr: 0x5D2F0, symBinAddr: 0xBAE40, symSize: 0x50 }
  - { offset: 0x486D50, size: 0x8, addend: 0x0, symName: __ZN16llm_build_arcticD1Ev, symObjAddr: 0x5DA30, symBinAddr: 0xBB580, symSize: 0x40 }
  - { offset: 0x486E61, size: 0x8, addend: 0x0, symName: __ZN16llm_build_arcticD0Ev, symObjAddr: 0x5DA70, symBinAddr: 0xBB5C0, symSize: 0x50 }
  - { offset: 0x486FA0, size: 0x8, addend: 0x0, symName: __ZN18llm_build_deepseekD1Ev, symObjAddr: 0x5E350, symBinAddr: 0xBBEA0, symSize: 0x40 }
  - { offset: 0x4870B1, size: 0x8, addend: 0x0, symName: __ZN18llm_build_deepseekD0Ev, symObjAddr: 0x5E390, symBinAddr: 0xBBEE0, symSize: 0x50 }
  - { offset: 0x4871F0, size: 0x8, addend: 0x0, symName: __ZN19llm_build_deepseek2D1Ev, symObjAddr: 0x5F2D0, symBinAddr: 0xBCE20, symSize: 0x40 }
  - { offset: 0x487301, size: 0x8, addend: 0x0, symName: __ZN19llm_build_deepseek2D0Ev, symObjAddr: 0x5F310, symBinAddr: 0xBCE60, symSize: 0x50 }
  - { offset: 0x487440, size: 0x8, addend: 0x0, symName: __ZN17llm_build_chatglmD1Ev, symObjAddr: 0x5FAD0, symBinAddr: 0xBD620, symSize: 0x40 }
  - { offset: 0x487551, size: 0x8, addend: 0x0, symName: __ZN17llm_build_chatglmD0Ev, symObjAddr: 0x5FB10, symBinAddr: 0xBD660, symSize: 0x50 }
  - { offset: 0x487690, size: 0x8, addend: 0x0, symName: __ZN14llm_build_glm4D1Ev, symObjAddr: 0x60360, symBinAddr: 0xBDEB0, symSize: 0x40 }
  - { offset: 0x4877A1, size: 0x8, addend: 0x0, symName: __ZN14llm_build_glm4D0Ev, symObjAddr: 0x603A0, symBinAddr: 0xBDEF0, symSize: 0x50 }
  - { offset: 0x4878E0, size: 0x8, addend: 0x0, symName: __ZN16llm_build_bitnetD1Ev, symObjAddr: 0x60C50, symBinAddr: 0xBE7A0, symSize: 0x40 }
  - { offset: 0x4879F1, size: 0x8, addend: 0x0, symName: __ZN16llm_build_bitnetD0Ev, symObjAddr: 0x60C90, symBinAddr: 0xBE7E0, symSize: 0x50 }
  - { offset: 0x487B30, size: 0x8, addend: 0x0, symName: __ZN16llm_build_t5_encD1Ev, symObjAddr: 0x61200, symBinAddr: 0xBED50, symSize: 0x40 }
  - { offset: 0x487C41, size: 0x8, addend: 0x0, symName: __ZN16llm_build_t5_encD0Ev, symObjAddr: 0x61240, symBinAddr: 0xBED90, symSize: 0x50 }
  - { offset: 0x487D80, size: 0x8, addend: 0x0, symName: __ZN16llm_build_t5_decD1Ev, symObjAddr: 0x619E0, symBinAddr: 0xBF530, symSize: 0x40 }
  - { offset: 0x487E91, size: 0x8, addend: 0x0, symName: __ZN16llm_build_t5_decD0Ev, symObjAddr: 0x61A20, symBinAddr: 0xBF570, symSize: 0x50 }
  - { offset: 0x487FD0, size: 0x8, addend: 0x0, symName: __ZN14llm_build_jaisD1Ev, symObjAddr: 0x62020, symBinAddr: 0xBFB70, symSize: 0x40 }
  - { offset: 0x4880E1, size: 0x8, addend: 0x0, symName: __ZN14llm_build_jaisD0Ev, symObjAddr: 0x62060, symBinAddr: 0xBFBB0, symSize: 0x50 }
  - { offset: 0x488220, size: 0x8, addend: 0x0, symName: __ZN18llm_build_nemotronD1Ev, symObjAddr: 0x62750, symBinAddr: 0xC02A0, symSize: 0x40 }
  - { offset: 0x488331, size: 0x8, addend: 0x0, symName: __ZN18llm_build_nemotronD0Ev, symObjAddr: 0x62790, symBinAddr: 0xC02E0, symSize: 0x50 }
  - { offset: 0x488470, size: 0x8, addend: 0x0, symName: __ZN16llm_build_exaoneD1Ev, symObjAddr: 0x62F20, symBinAddr: 0xC0A70, symSize: 0x40 }
  - { offset: 0x488581, size: 0x8, addend: 0x0, symName: __ZN16llm_build_exaoneD0Ev, symObjAddr: 0x62F60, symBinAddr: 0xC0AB0, symSize: 0x50 }
  - { offset: 0x4886F7, size: 0x8, addend: 0x0, symName: __ZNK20llm_build_rwkv6_base20build_rwkv6_time_mixEP18llm_graph_input_rsP11ggml_cgraphP11ggml_tensorS5_RK12llama_ubatchi, symObjAddr: 0x63660, symBinAddr: 0xC11B0, symSize: 0xD90 }
  - { offset: 0x489547, size: 0x8, addend: 0x0, symName: __ZNK20llm_build_rwkv6_base23build_rwkv6_channel_mixEPK11llama_layerP11ggml_tensorS4_8llm_arch, symObjAddr: 0x643F0, symBinAddr: 0xC1F40, symSize: 0x130 }
  - { offset: 0x4897A6, size: 0x8, addend: 0x0, symName: __ZN15llm_build_rwkv6D1Ev, symObjAddr: 0x64520, symBinAddr: 0xC2070, symSize: 0x40 }
  - { offset: 0x4898D6, size: 0x8, addend: 0x0, symName: __ZN15llm_build_rwkv6D0Ev, symObjAddr: 0x64560, symBinAddr: 0xC20B0, symSize: 0x50 }
  - { offset: 0x489A32, size: 0x8, addend: 0x0, symName: __ZN20llm_build_rwkv6qwen2D1Ev, symObjAddr: 0x64AD0, symBinAddr: 0xC2620, symSize: 0x40 }
  - { offset: 0x489B62, size: 0x8, addend: 0x0, symName: __ZN20llm_build_rwkv6qwen2D0Ev, symObjAddr: 0x64B10, symBinAddr: 0xC2660, symSize: 0x50 }
  - { offset: 0x489D66, size: 0x8, addend: 0x0, symName: __ZNK20llm_build_rwkv7_base20build_rwkv7_time_mixEP18llm_graph_input_rsP11ggml_cgraphP11ggml_tensorS5_RS5_RK12llama_ubatchi, symObjAddr: 0x65230, symBinAddr: 0xC2D80, symSize: 0xAE0 }
  - { offset: 0x48AAA9, size: 0x8, addend: 0x0, symName: __ZN15llm_build_rwkv7D1Ev, symObjAddr: 0x65D10, symBinAddr: 0xC3860, symSize: 0x40 }
  - { offset: 0x48ABD9, size: 0x8, addend: 0x0, symName: __ZN15llm_build_rwkv7D0Ev, symObjAddr: 0x65D50, symBinAddr: 0xC38A0, symSize: 0x50 }
  - { offset: 0x48AD35, size: 0x8, addend: 0x0, symName: __ZN16llm_build_arwkv7D1Ev, symObjAddr: 0x662D0, symBinAddr: 0xC3E20, symSize: 0x40 }
  - { offset: 0x48AE65, size: 0x8, addend: 0x0, symName: __ZN16llm_build_arwkv7D0Ev, symObjAddr: 0x66310, symBinAddr: 0xC3E60, symSize: 0x50 }
  - { offset: 0x48AFA4, size: 0x8, addend: 0x0, symName: __ZN17llm_build_granite21build_attention_layerEP11ggml_cgraphP11ggml_tensorS3_P31llm_graph_input_attn_kv_unifiedRK11llama_modelxi, symObjAddr: 0x666D0, symBinAddr: 0xC4220, symSize: 0x460 }
  - { offset: 0x48B277, size: 0x8, addend: 0x0, symName: __ZN17llm_build_granite15build_layer_ffnEP11ggml_tensorS1_RK11llama_modeli, symObjAddr: 0x66B30, symBinAddr: 0xC4680, symSize: 0x310 }
  - { offset: 0x48B411, size: 0x8, addend: 0x0, symName: __ZN17llm_build_graniteD1Ev, symObjAddr: 0x66E40, symBinAddr: 0xC4990, symSize: 0x40 }
  - { offset: 0x48B522, size: 0x8, addend: 0x0, symName: __ZN17llm_build_graniteD0Ev, symObjAddr: 0x66E80, symBinAddr: 0xC49D0, symSize: 0x50 }
  - { offset: 0x48B644, size: 0x8, addend: 0x0, symName: __ZN24llm_build_granite_hybrid21build_attention_layerEP11ggml_cgraphP11ggml_tensorS3_P31llm_graph_input_attn_kv_unifiedRK11llama_modelxi, symObjAddr: 0x671E0, symBinAddr: 0xC4D30, symSize: 0x460 }
  - { offset: 0x48B917, size: 0x8, addend: 0x0, symName: __ZN24llm_build_granite_hybrid15build_layer_ffnEP11ggml_tensorS1_RK11llama_modeli, symObjAddr: 0x67640, symBinAddr: 0xC5190, symSize: 0x310 }
  - { offset: 0x48BAB1, size: 0x8, addend: 0x0, symName: __ZN24llm_build_granite_hybridD1Ev, symObjAddr: 0x67950, symBinAddr: 0xC54A0, symSize: 0x40 }
  - { offset: 0x48BBE1, size: 0x8, addend: 0x0, symName: __ZN24llm_build_granite_hybridD0Ev, symObjAddr: 0x67990, symBinAddr: 0xC54E0, symSize: 0x50 }
  - { offset: 0x48BD5F, size: 0x8, addend: 0x0, symName: __ZN19llm_build_chameleonD1Ev, symObjAddr: 0x68300, symBinAddr: 0xC5E50, symSize: 0x40 }
  - { offset: 0x48BE70, size: 0x8, addend: 0x0, symName: __ZN19llm_build_chameleonD0Ev, symObjAddr: 0x68340, symBinAddr: 0xC5E90, symSize: 0x50 }
  - { offset: 0x48C024, size: 0x8, addend: 0x0, symName: __ZN26llm_build_wavtokenizer_decD1Ev, symObjAddr: 0x68A60, symBinAddr: 0xC65B0, symSize: 0x40 }
  - { offset: 0x48C135, size: 0x8, addend: 0x0, symName: __ZN26llm_build_wavtokenizer_decD0Ev, symObjAddr: 0x68AA0, symBinAddr: 0xC65F0, symSize: 0x50 }
  - { offset: 0x48C274, size: 0x8, addend: 0x0, symName: __ZN13llm_build_plmD1Ev, symObjAddr: 0x694D0, symBinAddr: 0xC7020, symSize: 0x40 }
  - { offset: 0x48C385, size: 0x8, addend: 0x0, symName: __ZN13llm_build_plmD0Ev, symObjAddr: 0x69510, symBinAddr: 0xC7060, symSize: 0x50 }
  - { offset: 0x48C4C4, size: 0x8, addend: 0x0, symName: __ZN20llm_build_bailingmoeD1Ev, symObjAddr: 0x69CF0, symBinAddr: 0xC7840, symSize: 0x40 }
  - { offset: 0x48C5D5, size: 0x8, addend: 0x0, symName: __ZN20llm_build_bailingmoeD0Ev, symObjAddr: 0x69D30, symBinAddr: 0xC7880, symSize: 0x50 }
  - { offset: 0x48C714, size: 0x8, addend: 0x0, symName: __ZN15llm_build_dots1D1Ev, symObjAddr: 0x6A550, symBinAddr: 0xC80A0, symSize: 0x40 }
  - { offset: 0x48C825, size: 0x8, addend: 0x0, symName: __ZN15llm_build_dots1D0Ev, symObjAddr: 0x6A590, symBinAddr: 0xC80E0, symSize: 0x50 }
  - { offset: 0x48C964, size: 0x8, addend: 0x0, symName: __ZN15llm_build_arceeD1Ev, symObjAddr: 0x6AD40, symBinAddr: 0xC8890, symSize: 0x40 }
  - { offset: 0x48CA75, size: 0x8, addend: 0x0, symName: __ZN15llm_build_arceeD0Ev, symObjAddr: 0x6AD80, symBinAddr: 0xC88D0, symSize: 0x50 }
  - { offset: 0x48CBB4, size: 0x8, addend: 0x0, symName: __ZN18llm_build_ernie4_5D1Ev, symObjAddr: 0x6B470, symBinAddr: 0xC8FC0, symSize: 0x40 }
  - { offset: 0x48CCC5, size: 0x8, addend: 0x0, symName: __ZN18llm_build_ernie4_5D0Ev, symObjAddr: 0x6B4B0, symBinAddr: 0xC9000, symSize: 0x50 }
  - { offset: 0x48CE04, size: 0x8, addend: 0x0, symName: __ZN21llm_build_hunyuan_moeD1Ev, symObjAddr: 0x6BD70, symBinAddr: 0xC98C0, symSize: 0x40 }
  - { offset: 0x48CF15, size: 0x8, addend: 0x0, symName: __ZN21llm_build_hunyuan_moeD0Ev, symObjAddr: 0x6BDB0, symBinAddr: 0xC9900, symSize: 0x50 }
  - { offset: 0x48D054, size: 0x8, addend: 0x0, symName: __ZN17llm_build_smollm3D1Ev, symObjAddr: 0x6C530, symBinAddr: 0xCA080, symSize: 0x40 }
  - { offset: 0x48D165, size: 0x8, addend: 0x0, symName: __ZN17llm_build_smollm3D0Ev, symObjAddr: 0x6C570, symBinAddr: 0xCA0C0, symSize: 0x50 }
  - { offset: 0x48D2A4, size: 0x8, addend: 0x0, symName: __ZN19llm_build_falcon_h1D1Ev, symObjAddr: 0x6CC60, symBinAddr: 0xCA7B0, symSize: 0x40 }
  - { offset: 0x48D3D4, size: 0x8, addend: 0x0, symName: __ZN19llm_build_falcon_h1D0Ev, symObjAddr: 0x6CCA0, symBinAddr: 0xCA7F0, symSize: 0x50 }
  - { offset: 0x48D513, size: 0x8, addend: 0x0, symName: __ZN14llm_build_lfm221build_shortconv_blockEP11ggml_cgraphP11ggml_tensorP18llm_graph_input_rsi, symObjAddr: 0x6CF90, symBinAddr: 0xCAAE0, symSize: 0x4C0 }
  - { offset: 0x48DBAE, size: 0x8, addend: 0x0, symName: __ZNK14llm_build_lfm216build_attn_blockEP11ggml_cgraphP11ggml_tensorS3_P31llm_graph_input_attn_kv_unifiedi, symObjAddr: 0x6D450, symBinAddr: 0xCAFA0, symSize: 0x380 }
  - { offset: 0x48DDE3, size: 0x8, addend: 0x0, symName: __ZNK14llm_build_lfm218build_feed_forwardEP11ggml_tensori, symObjAddr: 0x6D7D0, symBinAddr: 0xCB320, symSize: 0x180 }
  - { offset: 0x48DEE7, size: 0x8, addend: 0x0, symName: __ZN14llm_build_lfm2D1Ev, symObjAddr: 0x6D950, symBinAddr: 0xCB4A0, symSize: 0x40 }
  - { offset: 0x48DFF8, size: 0x8, addend: 0x0, symName: __ZN14llm_build_lfm2D0Ev, symObjAddr: 0x6D990, symBinAddr: 0xCB4E0, symSize: 0x50 }
  - { offset: 0x49057F, size: 0x8, addend: 0x0, symName: __ZL25llama_model_quantize_implRKNSt3__112basic_stringIcNS_11char_traitsIcEENS_9allocatorIcEEEES7_PK27llama_model_quantize_params, symObjAddr: 0x250, symBinAddr: 0xCBAF0, symSize: 0x7AF0 }
  - { offset: 0x4CB1F7, size: 0x8, addend: 0x0, symName: '__ZNSt3__111__introsortINS_17_ClassicAlgPolicyERZL25llama_model_quantize_implRKNS_12basic_stringIcNS_11char_traitsIcEENS_9allocatorIcEEEES9_PK27llama_model_quantize_paramsE3$_0PPKN18llama_model_loader19llama_tensor_weightELb0EEEvT1_SK_T0_NS_15iterator_traitsISK_E15difference_typeEb', symObjAddr: 0x15970, symBinAddr: 0xD4290, symSize: 0x910 }
  - { offset: 0x4CBE23, size: 0x8, addend: 0x0, symName: '__ZNSt3__127__insertion_sort_incompleteB8ne180100INS_17_ClassicAlgPolicyERZL25llama_model_quantize_implRKNS_12basic_stringIcNS_11char_traitsIcEENS_9allocatorIcEEEES9_PK27llama_model_quantize_paramsE3$_0PPKN18llama_model_loader19llama_tensor_weightEEEbT1_SK_T0_', symObjAddr: 0x16430, symBinAddr: 0xD4D50, symSize: 0x1F0 }
  - { offset: 0x4E0FE8, size: 0x8, addend: 0x0, symName: '__ZNSt3__17__sort3B8ne180100INS_17_ClassicAlgPolicyERZL25llama_model_quantize_implRKNS_12basic_stringIcNS_11char_traitsIcEENS_9allocatorIcEEEES9_PK27llama_model_quantize_paramsE3$_0PPKN18llama_model_loader19llama_tensor_weightEEEjT1_SK_SK_T0_', symObjAddr: 0x16390, symBinAddr: 0xD4CB0, symSize: 0xA0 }
  - { offset: 0x4E1348, size: 0x8, addend: 0x0, symName: '__ZNSt3__124__sort5_maybe_branchlessB8ne180100INS_17_ClassicAlgPolicyERZL25llama_model_quantize_implRKNS_12basic_stringIcNS_11char_traitsIcEENS_9allocatorIcEEEES9_PK27llama_model_quantize_paramsE3$_0PPKN18llama_model_loader19llama_tensor_weightELi0EEEvT1_SK_SK_SK_SK_T0_', symObjAddr: 0x16280, symBinAddr: 0xD4BA0, symSize: 0x110 }
  - { offset: 0x4E214B, size: 0x8, addend: 0x0, symName: '__ZNSt3__114__thread_proxyB8ne180100INS_5tupleIJNS_10unique_ptrINS_15__thread_structENS_14default_deleteIS3_EEEEZL28llama_tensor_dequantize_implP11ggml_tensorRNS_6vectorI7no_initIfENS_9allocatorISB_EEEERNS9_INS_6threadENSC_ISG_EEEEmiE3$_09ggml_typePhPfmEEEEEPvSP_', symObjAddr: 0x1ACF0, symBinAddr: 0xD5650, symSize: 0xB0 }
  - { offset: 0x4E25A2, size: 0x8, addend: 0x0, symName: '__ZNSt3__114__thread_proxyB8ne180100INS_5tupleIJNS_10unique_ptrINS_15__thread_structENS_14default_deleteIS3_EEEEZL26llama_tensor_quantize_impl9ggml_typePKfPvxxxS9_RNS_6vectorINS_6threadENS_9allocatorISC_EEEEiE3$_0EEEEESA_SA_', symObjAddr: 0x1AEF0, symBinAddr: 0xD5850, symSize: 0x80 }
  - { offset: 0x4E70B3, size: 0x8, addend: 0x0, symName: _llama_model_quantize_default_params, symObjAddr: 0x0, symBinAddr: 0xCB8A0, symSize: 0x40 }
  - { offset: 0x4E740D, size: 0x8, addend: 0x0, symName: _llama_model_quantize, symObjAddr: 0x40, symBinAddr: 0xCB8E0, symSize: 0x210 }
  - { offset: 0x4E820F, size: 0x8, addend: 0x0, symName: __ZNSt3__111basic_regexIcNS_12regex_traitsIcEEEC2B8ne180100EPKcNS_15regex_constants18syntax_option_typeE, symObjAddr: 0x8C80, symBinAddr: 0xD41D0, symSize: 0xC0 }
  - { offset: 0x4EEF8F, size: 0x8, addend: 0x0, symName: __ZNSt3__16vectorIiNS_9allocatorIiEEE18__assign_with_sizeB8ne180100IPiS5_EEvT_T0_l, symObjAddr: 0x89B0, symBinAddr: 0xD4070, symSize: 0x150 }
  - { offset: 0x4F05C0, size: 0x8, addend: 0x0, symName: __ZNSt3__111basic_regexIcNS_12regex_traitsIcEEEC2B8ne180100EPKcNS_15regex_constants18syntax_option_typeE, symObjAddr: 0x8C80, symBinAddr: 0xD41D0, symSize: 0xC0 }
  - { offset: 0x4F0794, size: 0x8, addend: 0x0, symName: __ZNSt3__16vectorINS_6threadENS_9allocatorIS1_EEE7reserveEm, symObjAddr: 0x7E30, symBinAddr: 0xD35E0, symSize: 0x1D0 }
  - { offset: 0x4F0B83, size: 0x8, addend: 0x0, symName: __ZNSt3__16vectorINS_10unique_ptrI12gguf_context20gguf_context_deleterEENS_9allocatorIS4_EEEC1Em, symObjAddr: 0x8000, symBinAddr: 0xD37B0, symSize: 0xD0 }
  - { offset: 0x4F0FCC, size: 0x8, addend: 0x0, symName: '__ZZL25llama_model_quantize_implRKNSt3__112basic_stringIcNS_11char_traitsIcEENS_9allocatorIcEEEES7_PK27llama_model_quantize_paramsENK3$_2clEi', symObjAddr: 0x80D0, symBinAddr: 0xD3880, symSize: 0x460 }
  - { offset: 0x4F206F, size: 0x8, addend: 0x0, symName: '__ZZL25llama_model_quantize_implRKNSt3__112basic_stringIcNS_11char_traitsIcEENS_9allocatorIcEEEES7_PK27llama_model_quantize_paramsENK3$_1clEv', symObjAddr: 0x8530, symBinAddr: 0xD3CE0, symSize: 0x250 }
  - { offset: 0x4F28BD, size: 0x8, addend: 0x0, symName: __ZNKSt3__112__hash_tableINS_17__hash_value_typeINS_12basic_stringIcNS_11char_traitsIcEENS_9allocatorIcEEEENS_6vectorIfNS5_IfEEEEEENS_22__unordered_map_hasherIS7_SB_NS_4hashIS7_EENS_8equal_toIS7_EELb1EEENS_21__unordered_map_equalIS7_SB_SG_SE_Lb1EEENS5_ISB_EEE4findIS7_EENS_21__hash_const_iteratorIPNS_11__hash_nodeISB_PvEEEERKT_, symObjAddr: 0x1A3B0, symBinAddr: 0xD51B0, symSize: 0x2D0 }
  - { offset: 0x4F2BBD, size: 0x8, addend: 0x0, symName: __ZNSt3__16vectorI7no_initIfENS_9allocatorIS2_EEE8__appendEm, symObjAddr: 0x1AB20, symBinAddr: 0xD5480, symSize: 0x1C0 }
  - { offset: 0x4F33EB, size: 0x8, addend: 0x0, symName: '__ZZL21llama_tensor_get_typeR19quantize_state_impl9ggml_typePK11ggml_tensor11llama_ftypeENK3$_1clEiiPKc', symObjAddr: 0x16780, symBinAddr: 0xD5080, symSize: 0x130 }
  - { offset: 0x4F36A6, size: 0x8, addend: 0x0, symName: __ZNSt3__16__treeINS_12__value_typeIiNS_12basic_stringIcNS_11char_traitsIcEENS_9allocatorIcEEEEEENS_19__map_value_compareIiS8_NS_4lessIiEELb1EEENS5_IS8_EEE7destroyEPNS_11__tree_nodeIS8_PvEE, symObjAddr: 0x1AFC0, symBinAddr: 0xD5920, symSize: 0x50 }
  - { offset: 0x4F396E, size: 0x8, addend: 0x0, symName: __ZN18llama_model_loaderD2Ev, symObjAddr: 0x1B010, symBinAddr: 0xD5970, symSize: 0x1F0 }
  - { offset: 0x4F46BE, size: 0x8, addend: 0x0, symName: __ZNKSt3__16vectorINS_6threadENS_9allocatorIS1_EEE20__throw_length_errorB8ne180100Ev, symObjAddr: 0x16620, symBinAddr: 0xD4F40, symSize: 0x10 }
  - { offset: 0x4F46E8, size: 0x8, addend: 0x0, symName: __ZNKSt3__16vectorINS_10unique_ptrI12gguf_context20gguf_context_deleterEENS_9allocatorIS4_EEE20__throw_length_errorB8ne180100Ev, symObjAddr: 0x16630, symBinAddr: 0xD4F50, symSize: 0x10 }
  - { offset: 0x4F4725, size: 0x8, addend: 0x0, symName: __ZNKSt3__16vectorIPKN18llama_model_loader19llama_tensor_weightENS_9allocatorIS4_EEE20__throw_length_errorB8ne180100Ev, symObjAddr: 0x8BD0, symBinAddr: 0xD41C0, symSize: 0x10 }
  - { offset: 0x4F4772, size: 0x8, addend: 0x0, symName: '__ZZL21llama_tensor_get_typeR19quantize_state_impl9ggml_typePK11ggml_tensor11llama_ftypeENK3$_1clEiiPKc', symObjAddr: 0x16780, symBinAddr: 0xD5080, symSize: 0x130 }
  - { offset: 0x4F4826, size: 0x8, addend: 0x0, symName: __ZNSt3__114basic_ofstreamIcNS_11char_traitsIcEEED1Ev, symObjAddr: 0x87D0, symBinAddr: 0xD3F30, symSize: 0x50 }
  - { offset: 0x4F486E, size: 0x8, addend: 0x0, symName: __ZNSt3__16vectorINS_10unique_ptrI12gguf_context20gguf_context_deleterEENS_9allocatorIS4_EEED1B8ne180100Ev, symObjAddr: 0x8820, symBinAddr: 0xD3F80, symSize: 0x80 }
  - { offset: 0x4F4A2A, size: 0x8, addend: 0x0, symName: __ZNSt3__16vectorINS_6threadENS_9allocatorIS1_EEED1B8ne180100Ev, symObjAddr: 0x88A0, symBinAddr: 0xD4000, symSize: 0x70 }
  - { offset: 0x4F5017, size: 0x8, addend: 0x0, symName: __ZNKSt3__16vectorINS_10unique_ptrI12gguf_context20gguf_context_deleterEENS_9allocatorIS4_EEE20__throw_length_errorB8ne180100Ev, symObjAddr: 0x16630, symBinAddr: 0xD4F50, symSize: 0x10 }
  - { offset: 0x4F5041, size: 0x8, addend: 0x0, symName: __ZNSt3__114basic_ofstreamIcNS_11char_traitsIcEEEC1ERKNS_12basic_stringIcS2_NS_9allocatorIcEEEEj, symObjAddr: 0x16640, symBinAddr: 0xD4F60, symSize: 0x120 }
  - { offset: 0x4F543B, size: 0x8, addend: 0x0, symName: __ZNSt3__114basic_ofstreamIcNS_11char_traitsIcEEEC1ERKNS_12basic_stringIcS2_NS_9allocatorIcEEEEj, symObjAddr: 0x16640, symBinAddr: 0xD4F60, symSize: 0x120 }
  - { offset: 0x514988, size: 0x8, addend: 0x0, symName: __ZNKSt3__16vectorI7no_initIfENS_9allocatorIS2_EEE20__throw_length_errorB8ne180100Ev, symObjAddr: 0x1ACE0, symBinAddr: 0xD5640, symSize: 0x10 }
  - { offset: 0x5149B2, size: 0x8, addend: 0x0, symName: '__ZNSt3__114__thread_proxyB8ne180100INS_5tupleIJNS_10unique_ptrINS_15__thread_structENS_14default_deleteIS3_EEEEZL28llama_tensor_dequantize_implP11ggml_tensorRNS_6vectorI7no_initIfENS_9allocatorISB_EEEERNS9_INS_6threadENSC_ISG_EEEEmiE3$_09ggml_typePhPfmEEEEEPvSP_', symObjAddr: 0x1ACF0, symBinAddr: 0xD5650, symSize: 0xB0 }
  - { offset: 0x514BA9, size: 0x8, addend: 0x0, symName: '__ZNSt3__110unique_ptrINS_5tupleIJNS0_INS_15__thread_structENS_14default_deleteIS2_EEEEZL28llama_tensor_dequantize_implP11ggml_tensorRNS_6vectorI7no_initIfENS_9allocatorISA_EEEERNS8_INS_6threadENSB_ISF_EEEEmiE3$_09ggml_typePhPfmEEENS3_ISN_EEED1B8ne180100Ev', symObjAddr: 0x1ADA0, symBinAddr: 0xD5700, symSize: 0x50 }
  - { offset: 0x514D4F, size: 0x8, addend: 0x0, symName: '__ZZL26llama_tensor_quantize_impl9ggml_typePKfPvxxxS1_RNSt3__16vectorINS3_6threadENS3_9allocatorIS5_EEEEiENK3$_0clEv', symObjAddr: 0x1ADF0, symBinAddr: 0xD5750, symSize: 0x100 }
  - { offset: 0x514FDF, size: 0x8, addend: 0x0, symName: '__ZNSt3__110unique_ptrINS_5tupleIJNS0_INS_15__thread_structENS_14default_deleteIS2_EEEEZL26llama_tensor_quantize_impl9ggml_typePKfPvxxxS8_RNS_6vectorINS_6threadENS_9allocatorISB_EEEEiE3$_0EEENS3_ISH_EEED1B8ne180100Ev', symObjAddr: 0x1AF70, symBinAddr: 0xD58D0, symSize: 0x50 }
  - { offset: 0x517BBD, size: 0x8, addend: 0x0, symName: __ZL21llama_sampler_chain_i, symObjAddr: 0x20EB8, symBinAddr: 0x2843A8, symSize: 0x0 }
  - { offset: 0x517CFA, size: 0x8, addend: 0x0, symName: __ZL22llama_sampler_greedy_i, symObjAddr: 0x20EE8, symBinAddr: 0x2843D8, symSize: 0x0 }
  - { offset: 0x517D08, size: 0x8, addend: 0x0, symName: __ZL12get_rng_seedj, symObjAddr: 0x8A0, symBinAddr: 0xD6400, symSize: 0x130 }
  - { offset: 0x517D34, size: 0x8, addend: 0x0, symName: __ZZL12get_rng_seedjE10is_rd_prng, symObjAddr: 0x248D78, symBinAddr: 0x2F3D38, symSize: 0x0 }
  - { offset: 0x518176, size: 0x8, addend: 0x0, symName: __ZL20llama_sampler_dist_i, symObjAddr: 0x20F18, symBinAddr: 0x284408, symSize: 0x0 }
  - { offset: 0x518191, size: 0x8, addend: 0x0, symName: __ZL23llama_sampler_softmax_i, symObjAddr: 0x20F48, symBinAddr: 0x284438, symSize: 0x0 }
  - { offset: 0x5181AC, size: 0x8, addend: 0x0, symName: __ZL21llama_sampler_top_k_i, symObjAddr: 0x20F78, symBinAddr: 0x284468, symSize: 0x0 }
  - { offset: 0x5181C7, size: 0x8, addend: 0x0, symName: __ZL21llama_sampler_top_p_i, symObjAddr: 0x20FA8, symBinAddr: 0x284498, symSize: 0x0 }
  - { offset: 0x5181E2, size: 0x8, addend: 0x0, symName: __ZL21llama_sampler_min_p_i, symObjAddr: 0x20FD8, symBinAddr: 0x2844C8, symSize: 0x0 }
  - { offset: 0x5181FD, size: 0x8, addend: 0x0, symName: __ZL23llama_sampler_typical_i, symObjAddr: 0x21008, symBinAddr: 0x2844F8, symSize: 0x0 }
  - { offset: 0x518218, size: 0x8, addend: 0x0, symName: __ZL20llama_sampler_temp_i, symObjAddr: 0x21038, symBinAddr: 0x284528, symSize: 0x0 }
  - { offset: 0x518233, size: 0x8, addend: 0x0, symName: __ZL24llama_sampler_temp_ext_i, symObjAddr: 0x21068, symBinAddr: 0x284558, symSize: 0x0 }
  - { offset: 0x51824E, size: 0x8, addend: 0x0, symName: __ZL19llama_sampler_xtc_i, symObjAddr: 0x21098, symBinAddr: 0x284588, symSize: 0x0 }
  - { offset: 0x518269, size: 0x8, addend: 0x0, symName: __ZL24llama_sampler_mirostat_i, symObjAddr: 0x210C8, symBinAddr: 0x2845B8, symSize: 0x0 }
  - { offset: 0x518284, size: 0x8, addend: 0x0, symName: __ZL27llama_sampler_mirostat_v2_i, symObjAddr: 0x210F8, symBinAddr: 0x2845E8, symSize: 0x0 }
  - { offset: 0x518291, size: 0x8, addend: 0x0, symName: __ZL31llama_sampler_init_grammar_implPK11llama_vocabPKcS3_bPS3_mPKimS4_m, symObjAddr: 0xEE0, symBinAddr: 0xD6A40, symSize: 0x660 }
  - { offset: 0x5182B2, size: 0x8, addend: 0x0, symName: __ZZL31llama_sampler_init_grammar_implPK11llama_vocabPKcS3_bPS3_mPKimS4_mE13special_chars, symObjAddr: 0x248D88, symBinAddr: 0x2F3D48, symSize: 0x0 }
  - { offset: 0x52CDBC, size: 0x8, addend: 0x0, symName: '__ZNSt3__111__introsortINS_17_ClassicAlgPolicyERZL26llama_sampler_softmax_implP22llama_token_data_arrayE3$_0P16llama_token_dataLb0EEEvT1_S8_T0_NS_15iterator_traitsIS8_E15difference_typeEb', symObjAddr: 0x3950, symBinAddr: 0xD9450, symSize: 0xF40 }
  - { offset: 0x52E8C8, size: 0x8, addend: 0x0, symName: '__ZNSt3__127__insertion_sort_incompleteB8ne180100INS_17_ClassicAlgPolicyERZL26llama_sampler_softmax_implP22llama_token_data_arrayE3$_0P16llama_token_dataEEbT1_S8_T0_', symObjAddr: 0x4890, symBinAddr: 0xDA390, symSize: 0x4C0 }
  - { offset: 0x533FA7, size: 0x8, addend: 0x0, symName: '__ZNSt3__111__introsortINS_17_ClassicAlgPolicyERZL24llama_sampler_top_k_implP22llama_token_data_arrayiE3$_0P16llama_token_dataLb0EEEvT1_S8_T0_NS_15iterator_traitsIS8_E15difference_typeEb', symObjAddr: 0x63C0, symBinAddr: 0xDBDF0, symSize: 0xCD0 }
  - { offset: 0x535804, size: 0x8, addend: 0x0, symName: '__ZNSt3__127__insertion_sort_incompleteB8ne180100INS_17_ClassicAlgPolicyERZL24llama_sampler_top_k_implP22llama_token_data_arrayiE3$_0P16llama_token_dataEEbT1_S8_T0_', symObjAddr: 0x7090, symBinAddr: 0xDCAC0, symSize: 0x4C0 }
  - { offset: 0x536413, size: 0x8, addend: 0x0, symName: '__ZNSt3__111__introsortINS_17_ClassicAlgPolicyERZL25llama_sampler_min_p_applyP13llama_samplerP22llama_token_data_arrayE3$_0P16llama_token_dataLb0EEEvT1_SA_T0_NS_15iterator_traitsISA_E15difference_typeEb', symObjAddr: 0x7F30, symBinAddr: 0xDD960, symSize: 0xF40 }
  - { offset: 0x537EDB, size: 0x8, addend: 0x0, symName: '__ZNSt3__127__insertion_sort_incompleteB8ne180100INS_17_ClassicAlgPolicyERZL25llama_sampler_min_p_applyP13llama_samplerP22llama_token_data_arrayE3$_0P16llama_token_dataEEbT1_SA_T0_', symObjAddr: 0x8E70, symBinAddr: 0xDE8A0, symSize: 0x4C0 }
  - { offset: 0x53A496, size: 0x8, addend: 0x0, symName: '__ZNSt3__111__introsortINS_17_ClassicAlgPolicyERZL27llama_sampler_typical_applyP13llama_samplerP22llama_token_data_arrayE3$_0PmLb0EEEvT1_S9_T0_NS_15iterator_traitsIS9_E15difference_typeEb', symObjAddr: 0xA080, symBinAddr: 0xDFAA0, symSize: 0xB00 }
  - { offset: 0x53C071, size: 0x8, addend: 0x0, symName: '__ZNSt3__127__insertion_sort_incompleteB8ne180100INS_17_ClassicAlgPolicyERZL27llama_sampler_typical_applyP13llama_samplerP22llama_token_data_arrayE3$_0PmEEbT1_S9_T0_', symObjAddr: 0xACD0, symBinAddr: 0xE06F0, symSize: 0x310 }
  - { offset: 0x546BFE, size: 0x8, addend: 0x0, symName: __ZNSt3__113regex_replaceB8ne180100INS_20back_insert_iteratorINS_12basic_stringIcNS_11char_traitsIcEENS_9allocatorIcEEEEEEPKcNS_12regex_traitsIcEEcEET_SD_T0_SE_RKNS_11basic_regexIT2_T1_EEPKSG_NS_15regex_constants15match_flag_typeE, symObjAddr: 0x173B0, symBinAddr: 0xE2E70, symSize: 0x300 }
  - { offset: 0x54972C, size: 0x8, addend: 0x0, symName: '__ZNSt3__17__sort4B8ne180100INS_17_ClassicAlgPolicyERZL26llama_sampler_softmax_implP22llama_token_data_arrayE3$_0P16llama_token_dataEEvT1_S8_S8_S8_T0_', symObjAddr: 0x4D50, symBinAddr: 0xDA850, symSize: 0x190 }
  - { offset: 0x54A76D, size: 0x8, addend: 0x0, symName: '__ZNSt3__119__partial_sort_implB8ne180100INS_17_ClassicAlgPolicyERZL24llama_sampler_top_k_implP22llama_token_data_arrayiE3$_0P16llama_token_dataS7_EET1_S8_S8_T2_OT0_', symObjAddr: 0x5F30, symBinAddr: 0xDB970, symSize: 0x460 }
  - { offset: 0x54B2D1, size: 0x8, addend: 0x0, symName: '__ZNSt3__17__sort4B8ne180100INS_17_ClassicAlgPolicyERZL24llama_sampler_top_k_implP22llama_token_data_arrayiE3$_0P16llama_token_dataEEvT1_S8_S8_S8_T0_', symObjAddr: 0x7550, symBinAddr: 0xDCF80, symSize: 0x190 }
  - { offset: 0x54C105, size: 0x8, addend: 0x0, symName: '__ZNSt3__17__sort4B8ne180100INS_17_ClassicAlgPolicyERZL25llama_sampler_min_p_applyP13llama_samplerP22llama_token_data_arrayE3$_0P16llama_token_dataEEvT1_SA_SA_SA_T0_', symObjAddr: 0x9330, symBinAddr: 0xDED60, symSize: 0x190 }
  - { offset: 0x54D60F, size: 0x8, addend: 0x0, symName: '__ZNSt3__124__sort5_maybe_branchlessB8ne180100INS_17_ClassicAlgPolicyERZL27llama_sampler_typical_applyP13llama_samplerP22llama_token_data_arrayE3$_0PmLi0EEEvT1_S9_S9_S9_S9_T0_', symObjAddr: 0xAB80, symBinAddr: 0xE05A0, symSize: 0x150 }
  - { offset: 0x553BF4, size: 0x8, addend: 0x0, symName: __ZL23llama_sampler_grammar_i, symObjAddr: 0x21218, symBinAddr: 0x284708, symSize: 0x0 }
  - { offset: 0x553C0F, size: 0x8, addend: 0x0, symName: __ZL25llama_sampler_penalties_i, symObjAddr: 0x21128, symBinAddr: 0x284618, symSize: 0x0 }
  - { offset: 0x553C2F, size: 0x8, addend: 0x0, symName: __ZL27llama_sampler_top_n_sigma_i, symObjAddr: 0x21158, symBinAddr: 0x284648, symSize: 0x0 }
  - { offset: 0x553C4A, size: 0x8, addend: 0x0, symName: __ZL19llama_sampler_dry_i, symObjAddr: 0x21188, symBinAddr: 0x284678, symSize: 0x0 }
  - { offset: 0x553C65, size: 0x8, addend: 0x0, symName: __ZL26llama_sampler_logit_bias_i, symObjAddr: 0x211B8, symBinAddr: 0x2846A8, symSize: 0x0 }
  - { offset: 0x553C80, size: 0x8, addend: 0x0, symName: __ZL22llama_sampler_infill_i, symObjAddr: 0x211E8, symBinAddr: 0x2846D8, symSize: 0x0 }
  - { offset: 0x554C15, size: 0x8, addend: 0x0, symName: __ZL17llama_sample_distP22llama_token_data_arrayRNSt3__123mersenne_twister_engineIjLm32ELm624ELm397ELm31ELj2567483615ELm11ELj4294967295ELm7ELj2636928640ELm15ELj4022730752ELm18ELj1812433253EEE, symObjAddr: 0x3610, symBinAddr: 0xD9110, symSize: 0x340 }
  - { offset: 0x556FA2, size: 0x8, addend: 0x0, symName: _llama_sampler_init, symObjAddr: 0x0, symBinAddr: 0xD5B60, symSize: 0x30 }
  - { offset: 0x556FC9, size: 0x8, addend: 0x0, symName: _llama_sampler_name, symObjAddr: 0x30, symBinAddr: 0xD5B90, symSize: 0x20 }
  - { offset: 0x556FFF, size: 0x8, addend: 0x0, symName: _llama_sampler_accept, symObjAddr: 0x50, symBinAddr: 0xD5BB0, symSize: 0x20 }
  - { offset: 0x55702D, size: 0x8, addend: 0x0, symName: _llama_sampler_apply, symObjAddr: 0x70, symBinAddr: 0xD5BD0, symSize: 0x40 }
  - { offset: 0x55708F, size: 0x8, addend: 0x0, symName: _llama_sampler_reset, symObjAddr: 0xB0, symBinAddr: 0xD5C10, symSize: 0x20 }
  - { offset: 0x5570DD, size: 0x8, addend: 0x0, symName: _llama_sampler_clone, symObjAddr: 0xD0, symBinAddr: 0xD5C30, symSize: 0x60 }
  - { offset: 0x55713F, size: 0x8, addend: 0x0, symName: _llama_sampler_free, symObjAddr: 0x130, symBinAddr: 0xD5C90, symSize: 0x30 }
  - { offset: 0x5576C9, size: 0x8, addend: 0x0, symName: _llama_sampler_sample, symObjAddr: 0x160, symBinAddr: 0xD5CC0, symSize: 0x370 }
  - { offset: 0x558210, size: 0x8, addend: 0x0, symName: __ZNKSt3__16vectorI16llama_token_dataNS_9allocatorIS1_EEE20__throw_length_errorB8ne180100Ev, symObjAddr: 0x63A0, symBinAddr: 0xDBDD0, symSize: 0x10 }
  - { offset: 0x55823A, size: 0x8, addend: 0x0, symName: __ZNKSt3__16vectorIP16llama_token_dataNS_9allocatorIS2_EEE20__throw_length_errorB8ne180100Ev, symObjAddr: 0x63B0, symBinAddr: 0xDBDE0, symSize: 0x10 }
  - { offset: 0x558244, size: 0x8, addend: 0x0, symName: _llama_sampler_chain_init, symObjAddr: 0x4D0, symBinAddr: 0xD6030, symSize: 0x50 }
  - { offset: 0x55866B, size: 0x8, addend: 0x0, symName: _llama_sampler_chain_add, symObjAddr: 0x520, symBinAddr: 0xD6080, symSize: 0x1D0 }
  - { offset: 0x558BB8, size: 0x8, addend: 0x0, symName: __ZNKSt3__16vectorIP13llama_samplerNS_9allocatorIS2_EEE20__throw_length_errorB8ne180100Ev, symObjAddr: 0x1FE30, symBinAddr: 0xE8AF0, symSize: 0x10 }
  - { offset: 0x558BE2, size: 0x8, addend: 0x0, symName: __ZNSt3__112__hash_tableINS_17__hash_value_typeIiNS_6vectorIiNS_9allocatorIiEEEEEENS_22__unordered_map_hasherIiS6_NS_4hashIiEENS_8equal_toIiEELb1EEENS_21__unordered_map_equalIiS6_SB_S9_Lb1EEENS3_IS6_EEE14__assign_multiINS_21__hash_const_iteratorIPNS_11__hash_nodeIS6_PvEEEEEEvT_SO_.cold.1, symObjAddr: 0x1FE40, symBinAddr: 0x2247B0, symSize: 0x30 }
  - { offset: 0x558BED, size: 0x8, addend: 0x0, symName: _llama_sampler_chain_get, symObjAddr: 0x6F0, symBinAddr: 0xD6250, symSize: 0x30 }
  - { offset: 0x558D8A, size: 0x8, addend: 0x0, symName: _llama_sampler_chain_remove, symObjAddr: 0x720, symBinAddr: 0xD6280, symSize: 0x70 }
  - { offset: 0x558FED, size: 0x8, addend: 0x0, symName: _llama_sampler_chain_n, symObjAddr: 0x790, symBinAddr: 0xD62F0, symSize: 0x20 }
  - { offset: 0x559048, size: 0x8, addend: 0x0, symName: _llama_sampler_init_greedy, symObjAddr: 0x7B0, symBinAddr: 0xD6310, symSize: 0x30 }
  - { offset: 0x55912D, size: 0x8, addend: 0x0, symName: _llama_sampler_init_dist, symObjAddr: 0x7E0, symBinAddr: 0xD6340, symSize: 0xC0 }
  - { offset: 0x559497, size: 0x8, addend: 0x0, symName: __ZNSt3__113random_deviceC1B8ne180100Ev, symObjAddr: 0x3140, symBinAddr: 0xD8C40, symSize: 0x60 }
  - { offset: 0x559887, size: 0x8, addend: 0x0, symName: _llama_sampler_init_softmax, symObjAddr: 0x9D0, symBinAddr: 0xD6530, symSize: 0x30 }
  - { offset: 0x5598C8, size: 0x8, addend: 0x0, symName: _llama_sampler_init_top_k, symObjAddr: 0xA00, symBinAddr: 0xD6560, symSize: 0x40 }
  - { offset: 0x55990B, size: 0x8, addend: 0x0, symName: _llama_sampler_init_top_p, symObjAddr: 0xA40, symBinAddr: 0xD65A0, symSize: 0x50 }
  - { offset: 0x559957, size: 0x8, addend: 0x0, symName: _llama_sampler_init_min_p, symObjAddr: 0xA90, symBinAddr: 0xD65F0, symSize: 0x50 }
  - { offset: 0x5599A3, size: 0x8, addend: 0x0, symName: _llama_sampler_init_typical, symObjAddr: 0xAE0, symBinAddr: 0xD6640, symSize: 0x50 }
  - { offset: 0x5599EF, size: 0x8, addend: 0x0, symName: _llama_sampler_init_temp, symObjAddr: 0xB30, symBinAddr: 0xD6690, symSize: 0x40 }
  - { offset: 0x559A32, size: 0x8, addend: 0x0, symName: _llama_sampler_init_temp_ext, symObjAddr: 0xB70, symBinAddr: 0xD66D0, symSize: 0x70 }
  - { offset: 0x559A87, size: 0x8, addend: 0x0, symName: _llama_sampler_init_xtc, symObjAddr: 0xBE0, symBinAddr: 0xD6740, symSize: 0xF0 }
  - { offset: 0x559BA8, size: 0x8, addend: 0x0, symName: _llama_sampler_init_mirostat, symObjAddr: 0xCD0, symBinAddr: 0xD6830, symSize: 0x100 }
  - { offset: 0x559CD2, size: 0x8, addend: 0x0, symName: _llama_sampler_init_mirostat_v2, symObjAddr: 0xDD0, symBinAddr: 0xD6930, symSize: 0xE0 }
  - { offset: 0x559DEB, size: 0x8, addend: 0x0, symName: _llama_sampler_init_grammar, symObjAddr: 0xEB0, symBinAddr: 0xD6A10, symSize: 0x30 }
  - { offset: 0x55A3E7, size: 0x8, addend: 0x0, symName: _llama_sampler_init_grammar_lazy, symObjAddr: 0x1540, symBinAddr: 0xD70A0, symSize: 0x40 }
  - { offset: 0x55A4AF, size: 0x8, addend: 0x0, symName: _llama_sampler_init_grammar_lazy_patterns, symObjAddr: 0x1580, symBinAddr: 0xD70E0, symSize: 0x30 }
  - { offset: 0x55A93B, size: 0x8, addend: 0x0, symName: _llama_sampler_init_penalties, symObjAddr: 0x15B0, symBinAddr: 0xD7110, symSize: 0xF0 }
  - { offset: 0x55AD11, size: 0x8, addend: 0x0, symName: _llama_sampler_init_top_n_sigma, symObjAddr: 0x16A0, symBinAddr: 0xD7200, symSize: 0x40 }
  - { offset: 0x55C564, size: 0x8, addend: 0x0, symName: _llama_sampler_init_dry, symObjAddr: 0x16E0, symBinAddr: 0xD7240, symSize: 0xF30 }
  - { offset: 0x560466, size: 0x8, addend: 0x0, symName: __ZNSt3__112__hash_tableINS_17__hash_value_typeIiNS_6vectorIiNS_9allocatorIiEEEEEENS_22__unordered_map_hasherIiS6_NS_4hashIiEENS_8equal_toIiEELb1EEENS_21__unordered_map_equalIiS6_SB_S9_Lb1EEENS3_IS6_EEE27__node_insert_multi_prepareEmRS6_, symObjAddr: 0x1C540, symBinAddr: 0xE5200, symSize: 0x3B0 }
  - { offset: 0x560768, size: 0x8, addend: 0x0, symName: __ZNSt3__112__hash_tableINS_17__hash_value_typeIiNS_6vectorIiNS_9allocatorIiEEEEEENS_22__unordered_map_hasherIiS6_NS_4hashIiEENS_8equal_toIiEELb1EEENS_21__unordered_map_equalIiS6_SB_S9_Lb1EEENS3_IS6_EEE19__node_insert_multiEPNS_11__hash_nodeIS6_PvEE, symObjAddr: 0x1C360, symBinAddr: 0xE5020, symSize: 0x190 }
  - { offset: 0x56097B, size: 0x8, addend: 0x0, symName: __ZNKSt3__16vectorI16llama_token_dataNS_9allocatorIS1_EEE20__throw_length_errorB8ne180100Ev, symObjAddr: 0x63A0, symBinAddr: 0xDBDD0, symSize: 0x10 }
  - { offset: 0x560B22, size: 0x8, addend: 0x0, symName: __ZNSt3__118unordered_multimapIiNS_6vectorIiNS_9allocatorIiEEEENS_4hashIiEENS_8equal_toIiEENS2_INS_4pairIKiS4_EEEEED1B8ne180100Ev, symObjAddr: 0x2660, symBinAddr: 0xD8170, symSize: 0x70 }
  - { offset: 0x560F5D, size: 0x8, addend: 0x0, symName: __ZNSt3__110unique_ptrINS_11__hash_nodeINS_17__hash_value_typeIiNS_6vectorIiNS_9allocatorIiEEEEEEPvEENS_22__hash_node_destructorINS4_IS9_EEEEED1B8ne180100Ev, symObjAddr: 0x1C4F0, symBinAddr: 0xE51B0, symSize: 0x50 }
  - { offset: 0x561673, size: 0x8, addend: 0x0, symName: __Z30llama_sampler_init_dry_testingiffiiRKNSt3__16vectorINS0_IiNS_9allocatorIiEEEENS1_IS3_EEEE, symObjAddr: 0x26D0, symBinAddr: 0xD81E0, symSize: 0x2F0 }
  - { offset: 0x562A25, size: 0x8, addend: 0x0, symName: _llama_sampler_init_logit_bias, symObjAddr: 0x29C0, symBinAddr: 0xD84D0, symSize: 0xE0 }
  - { offset: 0x562EEB, size: 0x8, addend: 0x0, symName: __ZNKSt3__16vectorI16llama_logit_biasNS_9allocatorIS1_EEE20__throw_length_errorB8ne180100Ev, symObjAddr: 0x1F150, symBinAddr: 0xE7E10, symSize: 0x10 }
  - { offset: 0x562F15, size: 0x8, addend: 0x0, symName: __ZL25llama_sampler_infill_namePK13llama_sampler, symObjAddr: 0x1F160, symBinAddr: 0xE7E20, symSize: 0x10 }
  - { offset: 0x56313E, size: 0x8, addend: 0x0, symName: _llama_sampler_init_infill, symObjAddr: 0x2AA0, symBinAddr: 0xD85B0, symSize: 0xF0 }
  - { offset: 0x5636B5, size: 0x8, addend: 0x0, symName: _llama_sampler_get_seed, symObjAddr: 0x2B90, symBinAddr: 0xD86A0, symSize: 0x90 }
  - { offset: 0x56384D, size: 0x8, addend: 0x0, symName: _llama_perf_sampler, symObjAddr: 0x2C20, symBinAddr: 0xD8730, symSize: 0x60 }
  - { offset: 0x563945, size: 0x8, addend: 0x0, symName: _llama_perf_sampler_print, symObjAddr: 0x2C80, symBinAddr: 0xD8790, symSize: 0x90 }
  - { offset: 0x563A2C, size: 0x8, addend: 0x0, symName: _llama_perf_sampler_reset, symObjAddr: 0x2D10, symBinAddr: 0xD8820, symSize: 0x50 }
  - { offset: 0x563A7B, size: 0x8, addend: 0x0, symName: __ZL24llama_sampler_chain_namePK13llama_sampler, symObjAddr: 0x2D60, symBinAddr: 0xD8870, symSize: 0x10 }
  - { offset: 0x563AF3, size: 0x8, addend: 0x0, symName: __ZL26llama_sampler_chain_acceptP13llama_sampleri, symObjAddr: 0x2D70, symBinAddr: 0xD8880, symSize: 0x80 }
  - { offset: 0x563C62, size: 0x8, addend: 0x0, symName: __ZL25llama_sampler_chain_applyP13llama_samplerP22llama_token_data_array, symObjAddr: 0x2DF0, symBinAddr: 0xD8900, symSize: 0xB0 }
  - { offset: 0x563DD5, size: 0x8, addend: 0x0, symName: __ZL25llama_sampler_chain_resetP13llama_sampler, symObjAddr: 0x2EA0, symBinAddr: 0xD89B0, symSize: 0x60 }
  - { offset: 0x563F79, size: 0x8, addend: 0x0, symName: __ZL25llama_sampler_chain_clonePK13llama_sampler, symObjAddr: 0x2F00, symBinAddr: 0xD8A10, symSize: 0xD0 }
  - { offset: 0x5641FF, size: 0x8, addend: 0x0, symName: __ZL24llama_sampler_chain_freeP13llama_sampler, symObjAddr: 0x2FD0, symBinAddr: 0xD8AE0, symSize: 0x90 }
  - { offset: 0x56445C, size: 0x8, addend: 0x0, symName: __ZL25llama_sampler_greedy_namePK13llama_sampler, symObjAddr: 0x3070, symBinAddr: 0xD8B70, symSize: 0x10 }
  - { offset: 0x564484, size: 0x8, addend: 0x0, symName: __ZL26llama_sampler_greedy_applyP13llama_samplerP22llama_token_data_array, symObjAddr: 0x3080, symBinAddr: 0xD8B80, symSize: 0xC0 }
  - { offset: 0x5644CE, size: 0x8, addend: 0x0, symName: __ZL23llama_sampler_dist_namePK13llama_sampler, symObjAddr: 0x31A0, symBinAddr: 0xD8CA0, symSize: 0x10 }
  - { offset: 0x564575, size: 0x8, addend: 0x0, symName: __ZL24llama_sampler_dist_applyP13llama_samplerP22llama_token_data_array, symObjAddr: 0x31B0, symBinAddr: 0xD8CB0, symSize: 0x2C0 }
  - { offset: 0x5646F1, size: 0x8, addend: 0x0, symName: __ZL24llama_sampler_dist_resetP13llama_sampler, symObjAddr: 0x3470, symBinAddr: 0xD8F70, symSize: 0x90 }
  - { offset: 0x564704, size: 0x8, addend: 0x0, symName: __ZL24llama_sampler_dist_resetP13llama_sampler, symObjAddr: 0x3470, symBinAddr: 0xD8F70, symSize: 0x90 }
  - { offset: 0x5647CE, size: 0x8, addend: 0x0, symName: __ZL24llama_sampler_dist_clonePK13llama_sampler, symObjAddr: 0x3500, symBinAddr: 0xD9000, symSize: 0xF0 }
  - { offset: 0x56492D, size: 0x8, addend: 0x0, symName: __ZL23llama_sampler_dist_freeP13llama_sampler, symObjAddr: 0x35F0, symBinAddr: 0xD90F0, symSize: 0x20 }
  - { offset: 0x5650A8, size: 0x8, addend: 0x0, symName: __ZNSt3__121discrete_distributionIiE10param_type6__initEv, symObjAddr: 0x4EE0, symBinAddr: 0xDA9E0, symSize: 0x1E0 }
  - { offset: 0x5657AB, size: 0x8, addend: 0x0, symName: __ZNSt3__121discrete_distributionIiEclINS_23mersenne_twister_engineIjLm32ELm624ELm397ELm31ELj2567483615ELm11ELj4294967295ELm7ELj2636928640ELm15ELj4022730752ELm18ELj1812433253EEEEEiRT_RKNS1_10param_typeE, symObjAddr: 0x5300, symBinAddr: 0xDAD40, symSize: 0x1D0 }
  - { offset: 0x565A7A, size: 0x8, addend: 0x0, symName: __ZNKSt3__16vectorIdNS_9allocatorIdEEE20__throw_length_errorB8ne180100Ev, symObjAddr: 0x50C0, symBinAddr: 0xDABC0, symSize: 0x10 }
  - { offset: 0x565DCD, size: 0x8, addend: 0x0, symName: __ZNSt3__16vectorIdNS_9allocatorIdEEE13shrink_to_fitEv, symObjAddr: 0x5190, symBinAddr: 0xDABD0, symSize: 0x170 }
  - { offset: 0x5663B2, size: 0x8, addend: 0x0, symName: __ZL26llama_sampler_softmax_namePK13llama_sampler, symObjAddr: 0x54D0, symBinAddr: 0xDAF10, symSize: 0x10 }
  - { offset: 0x5663DA, size: 0x8, addend: 0x0, symName: __ZL27llama_sampler_softmax_applyP13llama_samplerP22llama_token_data_array, symObjAddr: 0x54E0, symBinAddr: 0xDAF20, symSize: 0x290 }
  - { offset: 0x56651C, size: 0x8, addend: 0x0, symName: __ZL24llama_sampler_top_k_namePK13llama_sampler, symObjAddr: 0x5770, symBinAddr: 0xDB1B0, symSize: 0x10 }
  - { offset: 0x56652F, size: 0x8, addend: 0x0, symName: __ZL24llama_sampler_top_k_namePK13llama_sampler, symObjAddr: 0x5770, symBinAddr: 0xDB1B0, symSize: 0x10 }
  - { offset: 0x566557, size: 0x8, addend: 0x0, symName: __ZL25llama_sampler_top_k_applyP13llama_samplerP22llama_token_data_array, symObjAddr: 0x5780, symBinAddr: 0xDB1C0, symSize: 0x20 }
  - { offset: 0x5665BC, size: 0x8, addend: 0x0, symName: __ZL24llama_sampler_top_k_implP22llama_token_data_arrayi, symObjAddr: 0x5800, symBinAddr: 0xDB240, symSize: 0x730 }
  - { offset: 0x567E12, size: 0x8, addend: 0x0, symName: __ZL25llama_sampler_top_k_clonePK13llama_sampler, symObjAddr: 0x57A0, symBinAddr: 0xDB1E0, symSize: 0x40 }
  - { offset: 0x567E97, size: 0x8, addend: 0x0, symName: __ZL24llama_sampler_top_k_freeP13llama_sampler, symObjAddr: 0x57E0, symBinAddr: 0xDB220, symSize: 0x20 }
  - { offset: 0x5685B5, size: 0x8, addend: 0x0, symName: __ZNKSt3__16vectorIP16llama_token_dataNS_9allocatorIS2_EEE20__throw_length_errorB8ne180100Ev, symObjAddr: 0x63B0, symBinAddr: 0xDBDE0, symSize: 0x10 }
  - { offset: 0x5685DF, size: 0x8, addend: 0x0, symName: '__ZNSt3__111__introsortINS_17_ClassicAlgPolicyERZL24llama_sampler_top_k_implP22llama_token_data_arrayiE3$_0P16llama_token_dataLb0EEEvT1_S8_T0_NS_15iterator_traitsIS8_E15difference_typeEb', symObjAddr: 0x63C0, symBinAddr: 0xDBDF0, symSize: 0xCD0 }
  - { offset: 0x568629, size: 0x8, addend: 0x0, symName: __ZL24llama_sampler_top_p_namePK13llama_sampler, symObjAddr: 0x76E0, symBinAddr: 0xDD110, symSize: 0x10 }
  - { offset: 0x568651, size: 0x8, addend: 0x0, symName: __ZL25llama_sampler_top_p_applyP13llama_samplerP22llama_token_data_array, symObjAddr: 0x76F0, symBinAddr: 0xDD120, symSize: 0x320 }
  - { offset: 0x568829, size: 0x8, addend: 0x0, symName: __ZL25llama_sampler_top_p_clonePK13llama_sampler, symObjAddr: 0x7A10, symBinAddr: 0xDD440, symSize: 0x60 }
  - { offset: 0x5688B7, size: 0x8, addend: 0x0, symName: __ZL24llama_sampler_top_p_freeP13llama_sampler, symObjAddr: 0x7A70, symBinAddr: 0xDD4A0, symSize: 0x20 }
  - { offset: 0x5688E4, size: 0x8, addend: 0x0, symName: __ZL24llama_sampler_min_p_namePK13llama_sampler, symObjAddr: 0x7A90, symBinAddr: 0xDD4C0, symSize: 0x10 }
  - { offset: 0x568A8F, size: 0x8, addend: 0x0, symName: __ZL25llama_sampler_min_p_applyP13llama_samplerP22llama_token_data_array, symObjAddr: 0x7AA0, symBinAddr: 0xDD4D0, symSize: 0x410 }
  - { offset: 0x5695C9, size: 0x8, addend: 0x0, symName: __ZL25llama_sampler_min_p_clonePK13llama_sampler, symObjAddr: 0x7EB0, symBinAddr: 0xDD8E0, symSize: 0x60 }
  - { offset: 0x569657, size: 0x8, addend: 0x0, symName: __ZL24llama_sampler_min_p_freeP13llama_sampler, symObjAddr: 0x7F10, symBinAddr: 0xDD940, symSize: 0x20 }
  - { offset: 0x5696C5, size: 0x8, addend: 0x0, symName: __ZL26llama_sampler_typical_namePK13llama_sampler, symObjAddr: 0x94C0, symBinAddr: 0xDEEF0, symSize: 0x10 }
  - { offset: 0x569CBC, size: 0x8, addend: 0x0, symName: __ZL27llama_sampler_typical_applyP13llama_samplerP22llama_token_data_array, symObjAddr: 0x94D0, symBinAddr: 0xDEF00, symSize: 0xB10 }
  - { offset: 0x56B7C3, size: 0x8, addend: 0x0, symName: __ZNKSt3__16vectorImNS_9allocatorImEEE20__throw_length_errorB8ne180100Ev, symObjAddr: 0xA070, symBinAddr: 0xDFA90, symSize: 0x10 }
  - { offset: 0x56B7CE, size: 0x8, addend: 0x0, symName: __ZNKSt3__16vectorImNS_9allocatorImEEE20__throw_length_errorB8ne180100Ev, symObjAddr: 0xA070, symBinAddr: 0xDFA90, symSize: 0x10 }
  - { offset: 0x56B7F8, size: 0x8, addend: 0x0, symName: '__ZNSt3__111__introsortINS_17_ClassicAlgPolicyERZL27llama_sampler_typical_applyP13llama_samplerP22llama_token_data_arrayE3$_0PmLb0EEEvT1_S9_T0_NS_15iterator_traitsIS9_E15difference_typeEb', symObjAddr: 0xA080, symBinAddr: 0xDFAA0, symSize: 0xB00 }
  - { offset: 0x56B82A, size: 0x8, addend: 0x0, symName: __ZL27llama_sampler_typical_clonePK13llama_sampler, symObjAddr: 0x9FE0, symBinAddr: 0xDFA10, symSize: 0x60 }
  - { offset: 0x56B8B8, size: 0x8, addend: 0x0, symName: __ZL26llama_sampler_typical_freeP13llama_sampler, symObjAddr: 0xA040, symBinAddr: 0xDFA70, symSize: 0x20 }
  - { offset: 0x56B9A4, size: 0x8, addend: 0x0, symName: __ZL23llama_sampler_temp_namePK13llama_sampler, symObjAddr: 0xAFE0, symBinAddr: 0xE0A00, symSize: 0x10 }
  - { offset: 0x56BA22, size: 0x8, addend: 0x0, symName: __ZL24llama_sampler_temp_applyP13llama_samplerP22llama_token_data_array, symObjAddr: 0xAFF0, symBinAddr: 0xE0A10, symSize: 0x280 }
  - { offset: 0x56BAD9, size: 0x8, addend: 0x0, symName: __ZL24llama_sampler_temp_clonePK13llama_sampler, symObjAddr: 0xB270, symBinAddr: 0xE0C90, symSize: 0x50 }
  - { offset: 0x56BB60, size: 0x8, addend: 0x0, symName: __ZL23llama_sampler_temp_freeP13llama_sampler, symObjAddr: 0xB2C0, symBinAddr: 0xE0CE0, symSize: 0x20 }
  - { offset: 0x56BB8D, size: 0x8, addend: 0x0, symName: __ZL27llama_sampler_temp_ext_namePK13llama_sampler, symObjAddr: 0xB2E0, symBinAddr: 0xE0D00, symSize: 0x10 }
  - { offset: 0x56BBB5, size: 0x8, addend: 0x0, symName: __ZL28llama_sampler_temp_ext_applyP13llama_samplerP22llama_token_data_array, symObjAddr: 0xB2F0, symBinAddr: 0xE0D10, symSize: 0xB20 }
  - { offset: 0x56BF1A, size: 0x8, addend: 0x0, symName: __ZL28llama_sampler_temp_ext_clonePK13llama_sampler, symObjAddr: 0xBE10, symBinAddr: 0xE1830, symSize: 0x60 }
  - { offset: 0x56BFA1, size: 0x8, addend: 0x0, symName: __ZL27llama_sampler_temp_ext_freeP13llama_sampler, symObjAddr: 0xBE70, symBinAddr: 0xE1890, symSize: 0x20 }
  - { offset: 0x56BFCE, size: 0x8, addend: 0x0, symName: __ZL22llama_sampler_xtc_namePK13llama_sampler, symObjAddr: 0xBE90, symBinAddr: 0xE18B0, symSize: 0x10 }
  - { offset: 0x56C10E, size: 0x8, addend: 0x0, symName: __ZL22llama_sample_xtc_applyP13llama_samplerP22llama_token_data_array, symObjAddr: 0xBEA0, symBinAddr: 0xE18C0, symSize: 0x400 }
  - { offset: 0x56C3CB, size: 0x8, addend: 0x0, symName: __ZL23llama_sampler_xtc_resetP13llama_sampler, symObjAddr: 0xC2A0, symBinAddr: 0xE1CC0, symSize: 0x90 }
  - { offset: 0x56C4B9, size: 0x8, addend: 0x0, symName: __ZL23llama_sampler_xtc_clonePK13llama_sampler, symObjAddr: 0xC330, symBinAddr: 0xE1D50, symSize: 0x110 }
  - { offset: 0x56C61F, size: 0x8, addend: 0x0, symName: __ZL22llama_sampler_xtc_freeP13llama_sampler, symObjAddr: 0xC440, symBinAddr: 0xE1E60, symSize: 0x20 }
  - { offset: 0x56C64C, size: 0x8, addend: 0x0, symName: __ZL27llama_sampler_mirostat_namePK13llama_sampler, symObjAddr: 0xC460, symBinAddr: 0xE1E80, symSize: 0x10 }
  - { offset: 0x56C674, size: 0x8, addend: 0x0, symName: __ZL28llama_sampler_mirostat_applyP13llama_samplerP22llama_token_data_array, symObjAddr: 0xC470, symBinAddr: 0xE1E90, symSize: 0x6B0 }
  - { offset: 0x56C9E8, size: 0x8, addend: 0x0, symName: __ZL28llama_sampler_mirostat_resetP13llama_sampler, symObjAddr: 0xCB20, symBinAddr: 0xE2540, symSize: 0x90 }
  - { offset: 0x56C9FB, size: 0x8, addend: 0x0, symName: __ZL28llama_sampler_mirostat_resetP13llama_sampler, symObjAddr: 0xCB20, symBinAddr: 0xE2540, symSize: 0x90 }
  - { offset: 0x56CAF5, size: 0x8, addend: 0x0, symName: __ZL28llama_sampler_mirostat_clonePK13llama_sampler, symObjAddr: 0xCBB0, symBinAddr: 0xE25D0, symSize: 0x120 }
  - { offset: 0x56CC67, size: 0x8, addend: 0x0, symName: __ZL27llama_sampler_mirostat_freeP13llama_sampler, symObjAddr: 0xCCD0, symBinAddr: 0xE26F0, symSize: 0x20 }
  - { offset: 0x56CC94, size: 0x8, addend: 0x0, symName: __ZL30llama_sampler_mirostat_v2_namePK13llama_sampler, symObjAddr: 0xCCF0, symBinAddr: 0xE2710, symSize: 0x10 }
  - { offset: 0x56CCBC, size: 0x8, addend: 0x0, symName: __ZL31llama_sampler_mirostat_v2_applyP13llama_samplerP22llama_token_data_array, symObjAddr: 0xCD00, symBinAddr: 0xE2720, symSize: 0x580 }
  - { offset: 0x56CFA9, size: 0x8, addend: 0x0, symName: __ZL31llama_sampler_mirostat_v2_resetP13llama_sampler, symObjAddr: 0xD280, symBinAddr: 0xE2CA0, symSize: 0x90 }
  - { offset: 0x56D08B, size: 0x8, addend: 0x0, symName: __ZL31llama_sampler_mirostat_v2_clonePK13llama_sampler, symObjAddr: 0xD310, symBinAddr: 0xE2D30, symSize: 0x120 }
  - { offset: 0x56D1ED, size: 0x8, addend: 0x0, symName: __ZL30llama_sampler_mirostat_v2_freeP13llama_sampler, symObjAddr: 0xD430, symBinAddr: 0xE2E50, symSize: 0x20 }
  - { offset: 0x57F2DE, size: 0x8, addend: 0x0, symName: __ZNKSt3__113match_resultsIPKcNS_9allocatorINS_9sub_matchIS2_EEEEE6formatINS_20back_insert_iteratorINS_12basic_stringIcNS_11char_traitsIcEENS3_IcEEEEEEEET_SG_S2_S2_NS_15regex_constants15match_flag_typeE, symObjAddr: 0x176B0, symBinAddr: 0xE3170, symSize: 0x2F0 }
  - { offset: 0x57FA90, size: 0x8, addend: 0x0, symName: __ZNSt3__114regex_iteratorIPKccNS_12regex_traitsIcEEEppEv, symObjAddr: 0x179A0, symBinAddr: 0xE3460, symSize: 0xE0 }
  - { offset: 0x585D15, size: 0x8, addend: 0x0, symName: __ZL26llama_sampler_grammar_namePK13llama_sampler, symObjAddr: 0x1A510, symBinAddr: 0xE3540, symSize: 0x10 }
  - { offset: 0x585D3D, size: 0x8, addend: 0x0, symName: __ZL33llama_sampler_grammar_accept_implP13llama_sampleri, symObjAddr: 0x1A520, symBinAddr: 0xE3550, symSize: 0x20 }
  - { offset: 0x585DB3, size: 0x8, addend: 0x0, symName: __ZL27llama_sampler_grammar_applyP13llama_samplerP22llama_token_data_array, symObjAddr: 0x1A540, symBinAddr: 0xE3570, symSize: 0x20 }
  - { offset: 0x586382, size: 0x8, addend: 0x0, symName: __ZL27llama_sampler_grammar_resetP13llama_sampler, symObjAddr: 0x1A560, symBinAddr: 0xE3590, symSize: 0x390 }
  - { offset: 0x586FFF, size: 0x8, addend: 0x0, symName: __ZL28llama_sampler_penalties_namePK13llama_sampler, symObjAddr: 0x1AA00, symBinAddr: 0xE3A20, symSize: 0x10 }
  - { offset: 0x5870C9, size: 0x8, addend: 0x0, symName: __ZL27llama_sampler_grammar_clonePK13llama_sampler, symObjAddr: 0x1A8F0, symBinAddr: 0xE3920, symSize: 0xB0 }
  - { offset: 0x5872C3, size: 0x8, addend: 0x0, symName: __ZL26llama_sampler_grammar_freeP13llama_sampler, symObjAddr: 0x1A9A0, symBinAddr: 0xE39D0, symSize: 0x50 }
  - { offset: 0x587573, size: 0x8, addend: 0x0, symName: __ZL28llama_sampler_penalties_namePK13llama_sampler, symObjAddr: 0x1AA00, symBinAddr: 0xE3A20, symSize: 0x10 }
  - { offset: 0x587633, size: 0x8, addend: 0x0, symName: __ZL30llama_sampler_penalties_acceptP13llama_sampleri, symObjAddr: 0x1AA10, symBinAddr: 0xE3A30, symSize: 0x1B0 }
  - { offset: 0x587878, size: 0x8, addend: 0x0, symName: __ZNSt3__112__hash_tableINS_17__hash_value_typeIiiEENS_22__unordered_map_hasherIiS2_NS_4hashIiEENS_8equal_toIiEELb1EEENS_21__unordered_map_equalIiS2_S7_S5_Lb1EEENS_9allocatorIS2_EEE25__emplace_unique_key_argsIiJRKNS_21piecewise_construct_tENS_5tupleIJRKiEEENSI_IJEEEEEENS_4pairINS_15__hash_iteratorIPNS_11__hash_nodeIS2_PvEEEEbEERKT_DpOT0_, symObjAddr: 0x1B0D0, symBinAddr: 0xE40F0, symSize: 0x4A0 }
  - { offset: 0x587FF3, size: 0x8, addend: 0x0, symName: __ZNSt3__112__hash_tableINS_17__hash_value_typeIiiEENS_22__unordered_map_hasherIiS2_NS_4hashIiEENS_8equal_toIiEELb1EEENS_21__unordered_map_equalIiS2_S7_S5_Lb1EEENS_9allocatorIS2_EEE14__erase_uniqueIiEEmRKT_, symObjAddr: 0x1B780, symBinAddr: 0xE4590, symSize: 0x1D0 }
  - { offset: 0x58840B, size: 0x8, addend: 0x0, symName: __ZL29llama_sampler_penalties_applyP13llama_samplerP22llama_token_data_array, symObjAddr: 0x1ABC0, symBinAddr: 0xE3BE0, symSize: 0x270 }
  - { offset: 0x588624, size: 0x8, addend: 0x0, symName: __ZL29llama_sampler_penalties_resetP13llama_sampler, symObjAddr: 0x1AE30, symBinAddr: 0xE3E50, symSize: 0xF0 }
  - { offset: 0x58894C, size: 0x8, addend: 0x0, symName: __ZL29llama_sampler_penalties_clonePK13llama_sampler, symObjAddr: 0x1AF20, symBinAddr: 0xE3F40, symSize: 0x140 }
  - { offset: 0x5894F1, size: 0x8, addend: 0x0, symName: __ZL28llama_sampler_penalties_freeP13llama_sampler, symObjAddr: 0x1B060, symBinAddr: 0xE4080, symSize: 0x70 }
  - { offset: 0x58A16F, size: 0x8, addend: 0x0, symName: __ZNSt3__112__hash_tableINS_17__hash_value_typeIiiEENS_22__unordered_map_hasherIiS2_NS_4hashIiEENS_8equal_toIiEELb1EEENS_21__unordered_map_equalIiS2_S7_S5_Lb1EEENS_9allocatorIS2_EEE6removeENS_21__hash_const_iteratorIPNS_11__hash_nodeIS2_PvEEEE, symObjAddr: 0x1B950, symBinAddr: 0xE4760, symSize: 0x1F0 }
  - { offset: 0x58A604, size: 0x8, addend: 0x0, symName: __ZL30llama_sampler_top_n_sigma_namePK13llama_sampler, symObjAddr: 0x1BC90, symBinAddr: 0xE4950, symSize: 0x10 }
  - { offset: 0x58A62C, size: 0x8, addend: 0x0, symName: __ZL31llama_sampler_top_n_sigma_applyP13llama_samplerP22llama_token_data_array, symObjAddr: 0x1BCA0, symBinAddr: 0xE4960, symSize: 0x650 }
  - { offset: 0x58A89E, size: 0x8, addend: 0x0, symName: __ZL31llama_sampler_top_n_sigma_clonePK13llama_sampler, symObjAddr: 0x1C2F0, symBinAddr: 0xE4FB0, symSize: 0x50 }
  - { offset: 0x58A925, size: 0x8, addend: 0x0, symName: __ZL30llama_sampler_top_n_sigma_freeP13llama_sampler, symObjAddr: 0x1C340, symBinAddr: 0xE5000, symSize: 0x20 }
  - { offset: 0x58AA03, size: 0x8, addend: 0x0, symName: __ZNSt3__112__hash_tableINS_17__hash_value_typeIiNS_6vectorIiNS_9allocatorIiEEEEEENS_22__unordered_map_hasherIiS6_NS_4hashIiEENS_8equal_toIiEELb1EEENS_21__unordered_map_equalIiS6_SB_S9_Lb1EEENS3_IS6_EEE11__do_rehashILb0EEEvm, symObjAddr: 0x1C8F0, symBinAddr: 0xE55B0, symSize: 0x250 }
  - { offset: 0x58AF4F, size: 0x8, addend: 0x0, symName: __ZL22llama_sampler_dry_namePK13llama_sampler, symObjAddr: 0x1CB40, symBinAddr: 0xE5800, symSize: 0x10 }
  - { offset: 0x58AF77, size: 0x8, addend: 0x0, symName: __ZL24llama_sampler_dry_acceptP13llama_sampleri, symObjAddr: 0x1CB50, symBinAddr: 0xE5810, symSize: 0x100 }
  - { offset: 0x58B048, size: 0x8, addend: 0x0, symName: __ZL23llama_sampler_dry_applyP13llama_samplerP22llama_token_data_array, symObjAddr: 0x1CC50, symBinAddr: 0xE5910, symSize: 0xEE0 }
  - { offset: 0x58C098, size: 0x8, addend: 0x0, symName: __ZNSt3__16vectorIiNS_9allocatorIiEEE6assignEmRKi, symObjAddr: 0x1DDA0, symBinAddr: 0xE6A60, symSize: 0x310 }
  - { offset: 0x58C65E, size: 0x8, addend: 0x0, symName: __ZL23llama_sampler_dry_resetP13llama_sampler, symObjAddr: 0x1DB30, symBinAddr: 0xE67F0, symSize: 0x100 }
  - { offset: 0x58CA2D, size: 0x8, addend: 0x0, symName: __ZL23llama_sampler_dry_clonePK13llama_sampler, symObjAddr: 0x1DC30, symBinAddr: 0xE68F0, symSize: 0x140 }
  - { offset: 0x58CD90, size: 0x8, addend: 0x0, symName: __ZNSt3__112__hash_tableINS_17__hash_value_typeIiNS_6vectorIiNS_9allocatorIiEEEEEENS_22__unordered_map_hasherIiS6_NS_4hashIiEENS_8equal_toIiEELb1EEENS_21__unordered_map_equalIiS6_SB_S9_Lb1EEENS3_IS6_EEE14__assign_multiINS_21__hash_const_iteratorIPNS_11__hash_nodeIS6_PvEEEEEEvT_SO_, symObjAddr: 0x1E0B0, symBinAddr: 0xE6D70, symSize: 0x1E0 }
  - { offset: 0x58D468, size: 0x8, addend: 0x0, symName: __ZNSt3__112__hash_tableINS_17__hash_value_typeIiiEENS_22__unordered_map_hasherIiS2_NS_4hashIiEENS_8equal_toIiEELb1EEENS_21__unordered_map_equalIiS2_S7_S5_Lb1EEENS_9allocatorIS2_EEE14__assign_multiINS_21__hash_const_iteratorIPNS_11__hash_nodeIS2_PvEEEEEEvT_SL_, symObjAddr: 0x1E3E0, symBinAddr: 0xE70A0, symSize: 0x1B0 }
  - { offset: 0x58DBE2, size: 0x8, addend: 0x0, symName: __ZL22llama_sampler_dry_freeP13llama_sampler, symObjAddr: 0x1DD70, symBinAddr: 0xE6A30, symSize: 0x30 }
  - { offset: 0x58DC40, size: 0x8, addend: 0x0, symName: __ZN17llama_sampler_dryD2Ev, symObjAddr: 0x1ED20, symBinAddr: 0xE79E0, symSize: 0xD0 }
  - { offset: 0x58E829, size: 0x8, addend: 0x0, symName: __ZNSt3__112__hash_tableINS_17__hash_value_typeIiNS_6vectorIiNS_9allocatorIiEEEEEENS_22__unordered_map_hasherIiS6_NS_4hashIiEENS_8equal_toIiEELb1EEENS_21__unordered_map_equalIiS6_SB_S9_Lb1EEENS3_IS6_EEE16__construct_nodeIJRKNS_4pairIKiS5_EEEEENS_10unique_ptrINS_11__hash_nodeIS6_PvEENS_22__hash_node_destructorINS3_ISQ_EEEEEEDpOT_, symObjAddr: 0x1E2E0, symBinAddr: 0xE6FA0, symSize: 0x100 }
  - { offset: 0x58EEFE, size: 0x8, addend: 0x0, symName: __ZNSt3__112__hash_tableINS_17__hash_value_typeIiNS_6vectorIiNS_9allocatorIiEEEEEENS_22__unordered_map_hasherIiS6_NS_4hashIiEENS_8equal_toIiEELb1EEENS_21__unordered_map_equalIiS6_SB_S9_Lb1EEENS3_IS6_EEE17__deallocate_nodeEPNS_16__hash_node_baseIPNS_11__hash_nodeIS6_PvEEEE, symObjAddr: 0x1E290, symBinAddr: 0xE6F50, symSize: 0x50 }
  - { offset: 0x58F1B8, size: 0x8, addend: 0x0, symName: __ZNSt3__112__hash_tableINS_17__hash_value_typeIiNS_6vectorIiNS_9allocatorIiEEEEEENS_22__unordered_map_hasherIiS6_NS_4hashIiEENS_8equal_toIiEELb1EEENS_21__unordered_map_equalIiS6_SB_S9_Lb1EEENS3_IS6_EEE14__assign_multiINS_21__hash_const_iteratorIPNS_11__hash_nodeIS6_PvEEEEEEvT_SO_.cold.1, symObjAddr: 0x1FE40, symBinAddr: 0x2247B0, symSize: 0x30 }
  - { offset: 0x58F786, size: 0x8, addend: 0x0, symName: __ZNSt3__112__hash_tableINS_17__hash_value_typeIiiEENS_22__unordered_map_hasherIiS2_NS_4hashIiEENS_8equal_toIiEELb1EEENS_21__unordered_map_equalIiS2_S7_S5_Lb1EEENS_9allocatorIS2_EEE19__node_insert_multiEPNS_11__hash_nodeIS2_PvEE, symObjAddr: 0x1E590, symBinAddr: 0xE7250, symSize: 0x190 }
  - { offset: 0x58F9E1, size: 0x8, addend: 0x0, symName: __ZNSt3__112__hash_tableINS_17__hash_value_typeIiiEENS_22__unordered_map_hasherIiS2_NS_4hashIiEENS_8equal_toIiEELb1EEENS_21__unordered_map_equalIiS2_S7_S5_Lb1EEENS_9allocatorIS2_EEE27__node_insert_multi_prepareEmRS2_, symObjAddr: 0x1E720, symBinAddr: 0xE73E0, symSize: 0x3B0 }
  - { offset: 0x58FD51, size: 0x8, addend: 0x0, symName: __ZNSt3__112__hash_tableINS_17__hash_value_typeIiiEENS_22__unordered_map_hasherIiS2_NS_4hashIiEENS_8equal_toIiEELb1EEENS_21__unordered_map_equalIiS2_S7_S5_Lb1EEENS_9allocatorIS2_EEE11__do_rehashILb0EEEvm, symObjAddr: 0x1EAD0, symBinAddr: 0xE7790, symSize: 0x250 }
  - { offset: 0x59021F, size: 0x8, addend: 0x0, symName: __ZL29llama_sampler_logit_bias_namePK13llama_sampler, symObjAddr: 0x1EDF0, symBinAddr: 0xE7AB0, symSize: 0x10 }
  - { offset: 0x590606, size: 0x8, addend: 0x0, symName: __ZL30llama_sampler_logit_bias_applyP13llama_samplerP22llama_token_data_array, symObjAddr: 0x1EE00, symBinAddr: 0xE7AC0, symSize: 0x2E0 }
  - { offset: 0x590D5E, size: 0x8, addend: 0x0, symName: __ZL30llama_sampler_logit_bias_clonePK13llama_sampler, symObjAddr: 0x1F0E0, symBinAddr: 0xE7DA0, symSize: 0x20 }
  - { offset: 0x590E40, size: 0x8, addend: 0x0, symName: __ZL29llama_sampler_logit_bias_freeP13llama_sampler, symObjAddr: 0x1F100, symBinAddr: 0xE7DC0, symSize: 0x50 }
  - { offset: 0x5910FB, size: 0x8, addend: 0x0, symName: __ZL25llama_sampler_infill_namePK13llama_sampler, symObjAddr: 0x1F160, symBinAddr: 0xE7E20, symSize: 0x10 }
  - { offset: 0x591239, size: 0x8, addend: 0x0, symName: __ZL26llama_sampler_infill_applyP13llama_samplerP22llama_token_data_array, symObjAddr: 0x1F170, symBinAddr: 0xE7E30, symSize: 0xC50 }
  - { offset: 0x591B34, size: 0x8, addend: 0x0, symName: __ZL26llama_sampler_infill_clonePK13llama_sampler, symObjAddr: 0x1FDC0, symBinAddr: 0xE8A80, symSize: 0x20 }
  - { offset: 0x591BC3, size: 0x8, addend: 0x0, symName: __ZL25llama_sampler_infill_freeP13llama_sampler, symObjAddr: 0x1FDE0, symBinAddr: 0xE8AA0, symSize: 0x50 }
  - { offset: 0x5B7B2E, size: 0x8, addend: 0x0, symName: '__ZNSt3__111__introsortINS_17_ClassicAlgPolicyERZN11llama_vocab4impl4loadER18llama_model_loaderRK6LLM_KVE3$_0PiLb0EEEvT1_SC_T0_NS_15iterator_traitsISC_E15difference_typeEb', symObjAddr: 0x13F50, symBinAddr: 0xFBFE0, symSize: 0x1080 }
  - { offset: 0x5B9679, size: 0x8, addend: 0x0, symName: '__ZNSt3__127__insertion_sort_incompleteB8ne180100INS_17_ClassicAlgPolicyERZN11llama_vocab4impl4loadER18llama_model_loaderRK6LLM_KVE3$_0PiEEbT1_SC_T0_', symObjAddr: 0x15360, symBinAddr: 0xFD3F0, symSize: 0x2B0 }
  - { offset: 0x5BD4E7, size: 0x8, addend: 0x0, symName: __ZNSt3__110__pop_heapB8ne180100INS_17_ClassicAlgPolicyEN14llm_bigram_spm10comparatorENS_11__wrap_iterIPS2_EEEEvT1_S7_RT0_NS_15iterator_traitsIS7_E15difference_typeE, symObjAddr: 0x108B0, symBinAddr: 0xF8F90, symSize: 0x1F0 }
  - { offset: 0x5BDB0D, size: 0x8, addend: 0x0, symName: __ZNSt3__110__pop_heapB8ne180100INS_17_ClassicAlgPolicyEN14llm_bigram_bpe10comparatorENS_11__wrap_iterIPS2_EEEEvT1_S7_RT0_NS_15iterator_traitsIS7_E15difference_typeE, symObjAddr: 0x114F0, symBinAddr: 0xF9BC0, symSize: 0x2A0 }
  - { offset: 0x5BE511, size: 0x8, addend: 0x0, symName: __ZNSt3__1plB8ne180100IcNS_11char_traitsIcEENS_9allocatorIcEEEENS_12basic_stringIT_T0_T1_EERKS9_PKS6_, symObjAddr: 0xED90, symBinAddr: 0xF7690, symSize: 0x110 }
  - { offset: 0x5BFB36, size: 0x8, addend: 0x0, symName: __ZNSt3__1plB8ne180100IcNS_11char_traitsIcEENS_9allocatorIcEEEENS_12basic_stringIT_T0_T1_EERKS9_SB_, symObjAddr: 0x10F70, symBinAddr: 0xF9640, symSize: 0x130 }
  - { offset: 0x5C020A, size: 0x8, addend: 0x0, symName: __ZNSt3__19__sift_upB8ne180100INS_17_ClassicAlgPolicyERN14llm_bigram_bpe10comparatorENS_11__wrap_iterIPS2_EEEEvT1_S8_OT0_NS_15iterator_traitsIS8_E15difference_typeE, symObjAddr: 0x11350, symBinAddr: 0xF9A20, symSize: 0x1A0 }
  - { offset: 0x5C10FA, size: 0x8, addend: 0x0, symName: __ZNSt3__1eqB8ne180100INS_12basic_stringIcNS_11char_traitsIcEENS_9allocatorIcEEEES6_S6_S6_EEbRKNS_4pairIT_T0_EERKNS7_IT1_T2_EE, symObjAddr: 0x13220, symBinAddr: 0xFB300, symSize: 0x120 }
  - { offset: 0x5C1E48, size: 0x8, addend: 0x0, symName: '__ZNSt3__17__sort3B8ne180100INS_17_ClassicAlgPolicyERZN11llama_vocab4impl4loadER18llama_model_loaderRK6LLM_KVE3$_0PiEEjT1_SC_SC_T0_', symObjAddr: 0x151B0, symBinAddr: 0xFD240, symSize: 0x1B0 }
  - { offset: 0x5C25C5, size: 0x8, addend: 0x0, symName: '__ZNSt3__17__sort4B8ne180100INS_17_ClassicAlgPolicyERZN11llama_vocab4impl4loadER18llama_model_loaderRK6LLM_KVE3$_0PiEEvT1_SC_SC_SC_T0_', symObjAddr: 0x15610, symBinAddr: 0xFD6A0, symSize: 0x170 }
  - { offset: 0x5C2A92, size: 0x8, addend: 0x0, symName: '__ZNSt3__124__sort5_maybe_branchlessB8ne180100INS_17_ClassicAlgPolicyERZN11llama_vocab4impl4loadER18llama_model_loaderRK6LLM_KVE3$_0PiLi0EEEvT1_SC_SC_SC_SC_T0_', symObjAddr: 0x14FD0, symBinAddr: 0xFD060, symSize: 0x1E0 }
  - { offset: 0x5C6857, size: 0x8, addend: 0x0, symName: __ZNK11llama_vocab4impl14token_to_pieceEiPciib, symObjAddr: 0xBC10, symBinAddr: 0xF4510, symSize: 0x410 }
  - { offset: 0x5C71FB, size: 0x8, addend: 0x0, symName: __ZNK11llama_vocab13byte_to_tokenEh, symObjAddr: 0x5400, symBinAddr: 0xEDE50, symSize: 0x2B0 }
  - { offset: 0x5CADA5, size: 0x8, addend: 0x0, symName: __ZN11llama_vocab4impl4loadER18llama_model_loaderRK6LLM_KV, symObjAddr: 0x0, symBinAddr: 0xE8B00, symSize: 0x51E0 }
  - { offset: 0x5D7E48, size: 0x8, addend: 0x0, symName: __ZNSt3__16vectorIN11llama_vocab10token_dataENS_9allocatorIS2_EEE8__appendEm, symObjAddr: 0x12610, symBinAddr: 0xFAB90, symSize: 0x1C0 }
  - { offset: 0x5D86A7, size: 0x8, addend: 0x0, symName: __ZNSt3__16vectorIcNS_9allocatorIcEEE18__assign_with_sizeB8ne180100IPKcS6_EEvT_T0_l, symObjAddr: 0x13550, symBinAddr: 0xFB630, symSize: 0x130 }
  - { offset: 0x5D90F5, size: 0x8, addend: 0x0, symName: __ZNSt3__112__hash_tableINS_17__hash_value_typeINS_12basic_stringIcNS_11char_traitsIcEENS_9allocatorIcEEEEiEENS_22__unordered_map_hasherIS7_S8_NS_4hashIS7_EENS_8equal_toIS7_EELb1EEENS_21__unordered_map_equalIS7_S8_SD_SB_Lb1EEENS5_IS8_EEE25__emplace_unique_key_argsIS7_JRKNS_21piecewise_construct_tENS_5tupleIJRKS7_EEENSN_IJEEEEEENS_4pairINS_15__hash_iteratorIPNS_11__hash_nodeIS8_PvEEEEbEERKT_DpOT0_, symObjAddr: 0x13690, symBinAddr: 0xFB760, symSize: 0x630 }
  - { offset: 0x5D9B17, size: 0x8, addend: 0x0, symName: __ZN11llama_vocab4impl14init_tokenizerE16llama_vocab_type, symObjAddr: 0x5290, symBinAddr: 0xEDCE0, symSize: 0x170 }
  - { offset: 0x5D9D3D, size: 0x8, addend: 0x0, symName: __ZNK11llama_vocab4impl8tokenizeERKNSt3__112basic_stringIcNS1_11char_traitsIcEENS1_9allocatorIcEEEEbb, symObjAddr: 0x56C0, symBinAddr: 0xEE100, symSize: 0x2080 }
  - { offset: 0x5E163B, size: 0x8, addend: 0x0, symName: __ZNKSt3__112__hash_tableINS_17__hash_value_typeINS_12basic_stringIcNS_11char_traitsIcEENS_9allocatorIcEEEEiEENS_22__unordered_map_hasherIS7_S8_NS_4hashIS7_EENS_8equal_toIS7_EELb1EEENS_21__unordered_map_equalIS7_S8_SD_SB_Lb1EEENS5_IS8_EEE4findIS7_EENS_21__hash_const_iteratorIPNS_11__hash_nodeIS8_PvEEEERKT_, symObjAddr: 0x15790, symBinAddr: 0xFD820, symSize: 0x2D0 }
  - { offset: 0x5E193B, size: 0x8, addend: 0x0, symName: __ZNSt3__112__hash_tableINS_17__hash_value_typeINS_12basic_stringIcNS_11char_traitsIcEENS_9allocatorIcEEEEiEENS_22__unordered_map_hasherIS7_S8_NS_4hashIS7_EENS_8equal_toIS7_EELb1EEENS_21__unordered_map_equalIS7_S8_SD_SB_Lb1EEENS5_IS8_EEE4findIS7_EENS_15__hash_iteratorIPNS_11__hash_nodeIS8_PvEEEERKT_, symObjAddr: 0x17760, symBinAddr: 0xFF7F0, symSize: 0x2D0 }
  - { offset: 0x5E1E9A, size: 0x8, addend: 0x0, symName: __ZNSt3__112__hash_tableINS_17__hash_value_typeINS_4pairINS_12basic_stringIcNS_11char_traitsIcEENS_9allocatorIcEEEES8_EEiEENS_22__unordered_map_hasherIS9_SA_N11llama_vocab4impl9pair_hashENS_8equal_toIS9_EELb1EEENS_21__unordered_map_equalIS9_SA_SG_SE_Lb1EEENS6_ISA_EEE25__emplace_unique_key_argsIS9_JS9_RiEEENS2_INS_15__hash_iteratorIPNS_11__hash_nodeISA_PvEEEEbEERKT_DpOT0_, symObjAddr: 0x127E0, symBinAddr: 0xFAD60, symSize: 0x550 }
  - { offset: 0x5E28E2, size: 0x8, addend: 0x0, symName: __ZNSt3__16vectorI10llm_symbolNS_9allocatorIS1_EEE18__assign_with_sizeB8ne180100IPS1_S6_EEvT_T0_l, symObjAddr: 0x117A0, symBinAddr: 0xF9E60, symSize: 0x160 }
  - { offset: 0x5E2905, size: 0x8, addend: 0x0, symName: __ZNSt3__16__treeINS_12__value_typeINS_12basic_stringIcNS_11char_traitsIcEENS_9allocatorIcEEEENS_4pairIiiEEEENS_19__map_value_compareIS7_SA_NS_4lessIS7_EELb1EEENS5_ISA_EEE7destroyEPNS_11__tree_nodeISA_PvEE, symObjAddr: 0x10BD0, symBinAddr: 0xF92A0, symSize: 0x50 }
  - { offset: 0x5E2910, size: 0x8, addend: 0x0, symName: __ZNKSt3__16vectorIN11llama_vocab10token_dataENS_9allocatorIS2_EEE20__throw_out_of_rangeB8ne180100Ev, symObjAddr: 0x15780, symBinAddr: 0xFD810, symSize: 0x10 }
  - { offset: 0x5E293A, size: 0x8, addend: 0x0, symName: __ZNKSt3__112__hash_tableINS_17__hash_value_typeINS_12basic_stringIcNS_11char_traitsIcEENS_9allocatorIcEEEEiEENS_22__unordered_map_hasherIS7_S8_NS_4hashIS7_EENS_8equal_toIS7_EELb1EEENS_21__unordered_map_equalIS7_S8_SD_SB_Lb1EEENS5_IS8_EEE4findIS7_EENS_21__hash_const_iteratorIPNS_11__hash_nodeIS8_PvEEEERKT_, symObjAddr: 0x15790, symBinAddr: 0xFD820, symSize: 0x2D0 }
  - { offset: 0x5E2D72, size: 0x8, addend: 0x0, symName: __ZN17llm_tokenizer_bpeC2ERK11llama_vocab, symObjAddr: 0x15A80, symBinAddr: 0xFDB10, symSize: 0xF50 }
  - { offset: 0x5E9957, size: 0x8, addend: 0x0, symName: __ZN17llm_tokenizer_ugmC2ERK11llama_vocabRKNSt3__16vectorIcNS3_9allocatorIcEEEE, symObjAddr: 0x16E00, symBinAddr: 0xFEE90, symSize: 0x2E0 }
  - { offset: 0x5EA4E5, size: 0x8, addend: 0x0, symName: __ZN18llm_tokenizer_rwkvC2ERK11llama_vocab, symObjAddr: 0x17390, symBinAddr: 0xFF420, symSize: 0x150 }
  - { offset: 0x5EBF15, size: 0x8, addend: 0x0, symName: __ZNK11llama_vocab4impl22tokenizer_st_partitionERNSt3__112forward_listI23fragment_buffer_variantNS1_9allocatorIS3_EEEEb, symObjAddr: 0x7E80, symBinAddr: 0xF0780, symSize: 0x760 }
  - { offset: 0x5ED9AB, size: 0x8, addend: 0x0, symName: __ZNK25llm_tokenizer_bpe_session10append_bosERNSt3__16vectorIiNS0_9allocatorIiEEEE, symObjAddr: 0x8AF0, symBinAddr: 0xF13F0, symSize: 0x210 }
  - { offset: 0x5EDF3A, size: 0x8, addend: 0x0, symName: __ZN25llm_tokenizer_bpe_session6appendEiRNSt3__16vectorIiNS0_9allocatorIiEEEE, symObjAddr: 0xA140, symBinAddr: 0xF2A40, symSize: 0x1B0 }
  - { offset: 0x5EE488, size: 0x8, addend: 0x0, symName: __ZN25llm_tokenizer_bpe_session8tokenizeERKNSt3__112basic_stringIcNS0_11char_traitsIcEENS0_9allocatorIcEEEERNS0_6vectorIiNS4_IiEEEE, symObjAddr: 0x8D00, symBinAddr: 0xF1600, symSize: 0x1440 }
  - { offset: 0x5F3372, size: 0x8, addend: 0x0, symName: __ZN26llm_tokenizer_rwkv_session8tokenizeERKNSt3__112basic_stringIcNS0_11char_traitsIcEENS0_9allocatorIcEEEERNS0_6vectorIiNS4_IiEEEE, symObjAddr: 0xB690, symBinAddr: 0xF3F90, symSize: 0x520 }
  - { offset: 0x5F41D1, size: 0x8, addend: 0x0, symName: __ZNK25llm_tokenizer_bpe_session10append_eosERNSt3__16vectorIiNS0_9allocatorIiEEEE, symObjAddr: 0xA2F0, symBinAddr: 0xF2BF0, symSize: 0x210 }
  - { offset: 0x5F4760, size: 0x8, addend: 0x0, symName: __ZN25llm_tokenizer_wpm_session8tokenizeERKNSt3__112basic_stringIcNS0_11char_traitsIcEENS0_9allocatorIcEEEERNS0_6vectorIiNS4_IiEEEE, symObjAddr: 0xA5A0, symBinAddr: 0xF2EA0, symSize: 0x950 }
  - { offset: 0x5F6622, size: 0x8, addend: 0x0, symName: __ZN25llm_tokenizer_spm_session8tokenizeERKNSt3__112basic_stringIcNS0_11char_traitsIcEENS0_9allocatorIcEEEERNS0_6vectorIiNS4_IiEEEE, symObjAddr: 0x8680, symBinAddr: 0xF0F80, symSize: 0x420 }
  - { offset: 0x5F6F32, size: 0x8, addend: 0x0, symName: __ZNSt3__16__treeINS_12__value_typeINS_12basic_stringIcNS_11char_traitsIcEENS_9allocatorIcEEEENS_4pairIiiEEEENS_19__map_value_compareIS7_SA_NS_4lessIS7_EELb1EEENS5_ISA_EEE7destroyEPNS_11__tree_nodeISA_PvEE, symObjAddr: 0x10BD0, symBinAddr: 0xF92A0, symSize: 0x50 }
  - { offset: 0x5F71FA, size: 0x8, addend: 0x0, symName: __ZN25llm_tokenizer_ugm_session8tokenizeERKNSt3__112basic_stringIcNS0_11char_traitsIcEENS0_9allocatorIcEEEERNS0_6vectorIiNS4_IiEEEE, symObjAddr: 0xAEF0, symBinAddr: 0xF37F0, symSize: 0x7A0 }
  - { offset: 0x5F8691, size: 0x8, addend: 0x0, symName: __ZN25llm_tokenizer_spm_sessionD1Ev, symObjAddr: 0x8AA0, symBinAddr: 0xF13A0, symSize: 0x50 }
  - { offset: 0x5F89F3, size: 0x8, addend: 0x0, symName: __ZN25llm_tokenizer_bpe_sessionD1Ev, symObjAddr: 0xA500, symBinAddr: 0xF2E00, symSize: 0xA0 }
  - { offset: 0x5F8F9F, size: 0x8, addend: 0x0, symName: __ZNSt3__112forward_listI23fragment_buffer_variantNS_9allocatorIS1_EEED1Ev, symObjAddr: 0xBBB0, symBinAddr: 0xF44B0, symSize: 0x60 }
  - { offset: 0x5F948B, size: 0x8, addend: 0x0, symName: __ZNSt3__16vectorINS_12basic_stringIcNS_11char_traitsIcEENS_9allocatorIcEEEENS4_IS6_EEE24__emplace_back_slow_pathIJEEEPS6_DpOT_, symObjAddr: 0x11D20, symBinAddr: 0xFA3D0, symSize: 0x180 }
  - { offset: 0x5F9496, size: 0x8, addend: 0x0, symName: __ZNSt3__16vectorINS_12basic_stringIcNS_11char_traitsIcEENS_9allocatorIcEEEENS4_IS6_EEEC1Em.cold.1, symObjAddr: 0x17BF0, symBinAddr: 0x2247E0, symSize: 0x50 }
  - { offset: 0x5F96C4, size: 0x8, addend: 0x0, symName: __ZNK11llama_vocab4impl24token_to_piece_for_cacheEib, symObjAddr: 0x7810, symBinAddr: 0xF0180, symSize: 0x120 }
  - { offset: 0x5F9AF0, size: 0x8, addend: 0x0, symName: __ZNK11llama_vocab4impl8get_typeEv, symObjAddr: 0x79A0, symBinAddr: 0xF02A0, symSize: 0x10 }
  - { offset: 0x5F9B10, size: 0x8, addend: 0x0, symName: __ZNK11llama_vocab4impl9type_nameEv, symObjAddr: 0x79B0, symBinAddr: 0xF02B0, symSize: 0xB0 }
  - { offset: 0x5FA80D, size: 0x8, addend: 0x0, symName: __ZNK11llama_vocab4impl9is_normalEi, symObjAddr: 0x7A60, symBinAddr: 0xF0360, symSize: 0x50 }
  - { offset: 0x5FA874, size: 0x8, addend: 0x0, symName: __ZNK11llama_vocab4impl10is_unknownEi, symObjAddr: 0x7AB0, symBinAddr: 0xF03B0, symSize: 0x50 }
  - { offset: 0x5FA8DB, size: 0x8, addend: 0x0, symName: __ZNK11llama_vocab4impl10is_controlEi, symObjAddr: 0x7B00, symBinAddr: 0xF0400, symSize: 0x50 }
  - { offset: 0x5FA942, size: 0x8, addend: 0x0, symName: __ZNK11llama_vocab4impl7is_byteEi, symObjAddr: 0x7B50, symBinAddr: 0xF0450, symSize: 0x50 }
  - { offset: 0x5FA9A9, size: 0x8, addend: 0x0, symName: __ZNK11llama_vocab4impl15is_user_definedEi, symObjAddr: 0x7BA0, symBinAddr: 0xF04A0, symSize: 0x50 }
  - { offset: 0x5FAA10, size: 0x8, addend: 0x0, symName: __ZNK11llama_vocab4impl9is_unusedEi, symObjAddr: 0x7BF0, symBinAddr: 0xF04F0, symSize: 0x50 }
  - { offset: 0x5FAA77, size: 0x8, addend: 0x0, symName: __ZNK11llama_vocab4impl6is_eogEi, symObjAddr: 0x7C40, symBinAddr: 0xF0540, symSize: 0x40 }
  - { offset: 0x5FAB4E, size: 0x8, addend: 0x0, symName: __ZNK11llama_vocab4impl13token_to_byteEi, symObjAddr: 0x7C80, symBinAddr: 0xF0580, symSize: 0x1A0 }
  - { offset: 0x5FB095, size: 0x8, addend: 0x0, symName: __ZNK11llama_vocab4impl14token_get_attrEi, symObjAddr: 0x7E20, symBinAddr: 0xF0720, symSize: 0x60 }
  - { offset: 0x5FB773, size: 0x8, addend: 0x0, symName: __ZNK11llama_vocab14get_token_dataEi, symObjAddr: 0x85E0, symBinAddr: 0xF0EE0, symSize: 0x60 }
  - { offset: 0x5FB808, size: 0x8, addend: 0x0, symName: __ZNK11llama_vocab14token_to_pieceEiPciib, symObjAddr: 0x8640, symBinAddr: 0xF0F40, symSize: 0x10 }
  - { offset: 0x5FB813, size: 0x8, addend: 0x0, symName: __ZNK11llama_vocab14token_to_pieceEiPciib, symObjAddr: 0x8640, symBinAddr: 0xF0F40, symSize: 0x10 }
  - { offset: 0x5FB8B3, size: 0x8, addend: 0x0, symName: __ZNSt3__112basic_stringIcNS_11char_traitsIcEENS_9allocatorIcEEEpLB8ne180100ERKS5_, symObjAddr: 0x8650, symBinAddr: 0xF0F50, symSize: 0x30 }
  - { offset: 0x5FBDB9, size: 0x8, addend: 0x0, symName: __ZN25llm_tokenizer_spm_session14try_add_bigramEii, symObjAddr: 0xF980, symBinAddr: 0xF8280, symSize: 0x240 }
  - { offset: 0x5FC70C, size: 0x8, addend: 0x0, symName: __ZN25llm_tokenizer_spm_session9resegmentER10llm_symbolRNSt3__16vectorIiNS2_9allocatorIiEEEE, symObjAddr: 0xFBC0, symBinAddr: 0xF84C0, symSize: 0x670 }
  - { offset: 0x5FDDD7, size: 0x8, addend: 0x0, symName: __ZNKSt3__16vectorI10llm_symbolNS_9allocatorIS1_EEE20__throw_length_errorB8ne180100Ev, symObjAddr: 0x10230, symBinAddr: 0xF8B30, symSize: 0x10 }
  - { offset: 0x5FE657, size: 0x8, addend: 0x0, symName: __ZN25llm_tokenizer_bpe_session14add_new_bigramEii, symObjAddr: 0x10C20, symBinAddr: 0xF92F0, symSize: 0x350 }
  - { offset: 0x5FF9E7, size: 0x8, addend: 0x0, symName: __ZNSt3__16vectorI10llm_symbolNS_9allocatorIS1_EEE18__assign_with_sizeB8ne180100IPS1_S6_EEvT_T0_l, symObjAddr: 0x117A0, symBinAddr: 0xF9E60, symSize: 0x160 }
  - { offset: 0x6005F6, size: 0x8, addend: 0x0, symName: __ZN25llm_tokenizer_wpm_session10preprocessERKNSt3__112basic_stringIcNS0_11char_traitsIcEENS0_9allocatorIcEEEE, symObjAddr: 0x11900, symBinAddr: 0xF9FC0, symSize: 0x330 }
  - { offset: 0x601E11, size: 0x8, addend: 0x0, symName: __ZN25llm_tokenizer_ugm_session9normalizeERKNSt3__112basic_stringIcNS0_11char_traitsIcEENS0_9allocatorIcEEEEPS6_, symObjAddr: 0x11EA0, symBinAddr: 0xFA550, symSize: 0x330 }
  - { offset: 0x602621, size: 0x8, addend: 0x0, symName: __ZNKSt3__16vectorIN25llm_tokenizer_ugm_session17best_tokenizationENS_9allocatorIS2_EEE20__throw_length_errorB8ne180100Ev, symObjAddr: 0x124D0, symBinAddr: 0xFAB80, symSize: 0x10 }
  - { offset: 0x60286D, size: 0x8, addend: 0x0, symName: __ZL25llama_unescape_rwkv_tokenRKNSt3__112basic_stringIcNS_11char_traitsIcEENS_9allocatorIcEEEE, symObjAddr: 0xC390, symBinAddr: 0xF4C90, symSize: 0xFE0 }
  - { offset: 0x604823, size: 0x8, addend: 0x0, symName: __ZL17llama_decode_textRKNSt3__112basic_stringIcNS_11char_traitsIcEENS_9allocatorIcEEEE, symObjAddr: 0xC150, symBinAddr: 0xF4A50, symSize: 0x240 }
  - { offset: 0x60548E, size: 0x8, addend: 0x0, symName: '__ZZNK11llama_vocab4impl14token_to_pieceEiPciibENK3$_0clEPKcm', symObjAddr: 0xC020, symBinAddr: 0xF4920, symSize: 0x90 }
  - { offset: 0x6054EF, size: 0x8, addend: 0x0, symName: __ZL25llama_unescape_whitespaceRNSt3__112basic_stringIcNS_11char_traitsIcEENS_9allocatorIcEEEE, symObjAddr: 0xC0B0, symBinAddr: 0xF49B0, symSize: 0xA0 }
  - { offset: 0x605B9C, size: 0x8, addend: 0x0, symName: __ZNKSt3__16vectorINS_12basic_stringIcNS_11char_traitsIcEENS_9allocatorIcEEEENS4_IS6_EEE20__throw_out_of_rangeB8ne180100Ev, symObjAddr: 0x17540, symBinAddr: 0xFF5D0, symSize: 0x10 }
  - { offset: 0x605BC6, size: 0x8, addend: 0x0, symName: __ZN11llama_vocab4implD2Ev, symObjAddr: 0x17550, symBinAddr: 0xFF5E0, symSize: 0x210 }
  - { offset: 0x6062CF, size: 0x8, addend: 0x0, symName: __ZNK11llama_vocab4impl14token_to_pieceEi, symObjAddr: 0xD370, symBinAddr: 0xF5C70, symSize: 0x50 }
  - { offset: 0x60633D, size: 0x8, addend: 0x0, symName: __ZNK11llama_vocab4impl10detokenizeEPKiiPcibb, symObjAddr: 0xD3C0, symBinAddr: 0xF5CC0, symSize: 0x430 }
  - { offset: 0x60659E, size: 0x8, addend: 0x0, symName: __ZNK11llama_vocab4impl10print_infoEv, symObjAddr: 0xD7F0, symBinAddr: 0xF60F0, symSize: 0x7C0 }
  - { offset: 0x606690, size: 0x8, addend: 0x0, symName: __ZNK11llama_vocab4impl10print_infoEv, symObjAddr: 0xD7F0, symBinAddr: 0xF60F0, symSize: 0x7C0 }
  - { offset: 0x60865F, size: 0x8, addend: 0x0, symName: __ZNK11llama_vocab8n_tokensEv, symObjAddr: 0xDFB0, symBinAddr: 0xF68B0, symSize: 0x20 }
  - { offset: 0x608C15, size: 0x8, addend: 0x0, symName: __ZN11llama_vocabC2Ev, symObjAddr: 0xDFD0, symBinAddr: 0xF68D0, symSize: 0x110 }
  - { offset: 0x60919B, size: 0x8, addend: 0x0, symName: __ZN11llama_vocabC1Ev, symObjAddr: 0xE0E0, symBinAddr: 0xF69E0, symSize: 0x110 }
  - { offset: 0x6097CA, size: 0x8, addend: 0x0, symName: __ZN11llama_vocabD2Ev, symObjAddr: 0xE1F0, symBinAddr: 0xF6AF0, symSize: 0x40 }
  - { offset: 0x6098A6, size: 0x8, addend: 0x0, symName: __ZN11llama_vocab4implD2Ev, symObjAddr: 0x17550, symBinAddr: 0xFF5E0, symSize: 0x210 }
  - { offset: 0x60ADB3, size: 0x8, addend: 0x0, symName: __ZN11llama_vocabD1Ev, symObjAddr: 0xE230, symBinAddr: 0xF6B30, symSize: 0x40 }
  - { offset: 0x60AEBA, size: 0x8, addend: 0x0, symName: __ZN11llama_vocab4loadER18llama_model_loaderRK6LLM_KV, symObjAddr: 0xE270, symBinAddr: 0xF6B70, symSize: 0x10 }
  - { offset: 0x60AF3C, size: 0x8, addend: 0x0, symName: __ZNK11llama_vocab19get_tokenizer_modelEv, symObjAddr: 0xE280, symBinAddr: 0xF6B80, symSize: 0x40 }
  - { offset: 0x60AFFD, size: 0x8, addend: 0x0, symName: __ZNK11llama_vocab17get_tokenizer_preEv, symObjAddr: 0xE2C0, symBinAddr: 0xF6BC0, symSize: 0x40 }
  - { offset: 0x60B0BE, size: 0x8, addend: 0x0, symName: __ZNK11llama_vocab8get_typeEv, symObjAddr: 0xE300, symBinAddr: 0xF6C00, symSize: 0x10 }
  - { offset: 0x60B0FB, size: 0x8, addend: 0x0, symName: __ZNK11llama_vocab12get_pre_typeEv, symObjAddr: 0xE310, symBinAddr: 0xF6C10, symSize: 0x10 }
  - { offset: 0x60B138, size: 0x8, addend: 0x0, symName: __ZNK11llama_vocab13n_token_typesEv, symObjAddr: 0xE320, symBinAddr: 0xF6C20, symSize: 0x10 }
  - { offset: 0x60B17D, size: 0x8, addend: 0x0, symName: __ZNK11llama_vocab9type_nameEv, symObjAddr: 0xE330, symBinAddr: 0xF6C30, symSize: 0xB0 }
  - { offset: 0x60BEB6, size: 0x8, addend: 0x0, symName: __ZNK11llama_vocab9is_normalEi, symObjAddr: 0xE3E0, symBinAddr: 0xF6CE0, symSize: 0x50 }
  - { offset: 0x60BF75, size: 0x8, addend: 0x0, symName: __ZNK11llama_vocab10is_unknownEi, symObjAddr: 0xE430, symBinAddr: 0xF6D30, symSize: 0x50 }
  - { offset: 0x60C044, size: 0x8, addend: 0x0, symName: __ZNK11llama_vocab10is_controlEi, symObjAddr: 0xE480, symBinAddr: 0xF6D80, symSize: 0x50 }
  - { offset: 0x60C0DF, size: 0x8, addend: 0x0, symName: __ZNK11llama_vocab7is_byteEi, symObjAddr: 0xE4D0, symBinAddr: 0xF6DD0, symSize: 0x50 }
  - { offset: 0x60C18A, size: 0x8, addend: 0x0, symName: __ZNK11llama_vocab15is_user_definedEi, symObjAddr: 0xE520, symBinAddr: 0xF6E20, symSize: 0x50 }
  - { offset: 0x60C249, size: 0x8, addend: 0x0, symName: __ZNK11llama_vocab9is_unusedEi, symObjAddr: 0xE570, symBinAddr: 0xF6E70, symSize: 0x50 }
  - { offset: 0x60C318, size: 0x8, addend: 0x0, symName: __ZNK11llama_vocab6is_eogEi, symObjAddr: 0xE5C0, symBinAddr: 0xF6EC0, symSize: 0x40 }
  - { offset: 0x60C3CE, size: 0x8, addend: 0x0, symName: __ZNK11llama_vocab13token_to_byteEi, symObjAddr: 0xE600, symBinAddr: 0xF6F00, symSize: 0x10 }
  - { offset: 0x60C43A, size: 0x8, addend: 0x0, symName: __ZNK11llama_vocab13text_to_tokenERKNSt3__112basic_stringIcNS0_11char_traitsIcEENS0_9allocatorIcEEEE, symObjAddr: 0xE610, symBinAddr: 0xF6F10, symSize: 0x50 }
  - { offset: 0x60C513, size: 0x8, addend: 0x0, symName: __ZNK11llama_vocab14token_get_textEi, symObjAddr: 0xE660, symBinAddr: 0xF6F60, symSize: 0x70 }
  - { offset: 0x60C644, size: 0x8, addend: 0x0, symName: __ZNK11llama_vocab15token_get_scoreEi, symObjAddr: 0xE6D0, symBinAddr: 0xF6FD0, symSize: 0x70 }
  - { offset: 0x60C64F, size: 0x8, addend: 0x0, symName: __ZNK11llama_vocab15token_get_scoreEi, symObjAddr: 0xE6D0, symBinAddr: 0xF6FD0, symSize: 0x70 }
  - { offset: 0x60C6EF, size: 0x8, addend: 0x0, symName: __ZNK11llama_vocab14token_get_attrEi, symObjAddr: 0xE740, symBinAddr: 0xF7040, symSize: 0x70 }
  - { offset: 0x60C7A6, size: 0x8, addend: 0x0, symName: __ZNK11llama_vocab9token_bosEv, symObjAddr: 0xE7B0, symBinAddr: 0xF70B0, symSize: 0x10 }
  - { offset: 0x60C7E3, size: 0x8, addend: 0x0, symName: __ZNK11llama_vocab9token_eosEv, symObjAddr: 0xE7C0, symBinAddr: 0xF70C0, symSize: 0x10 }
  - { offset: 0x60C820, size: 0x8, addend: 0x0, symName: __ZNK11llama_vocab9token_eotEv, symObjAddr: 0xE7D0, symBinAddr: 0xF70D0, symSize: 0x10 }
  - { offset: 0x60C85D, size: 0x8, addend: 0x0, symName: __ZNK11llama_vocab9token_eomEv, symObjAddr: 0xE7E0, symBinAddr: 0xF70E0, symSize: 0x10 }
  - { offset: 0x60C8A2, size: 0x8, addend: 0x0, symName: __ZNK11llama_vocab9token_unkEv, symObjAddr: 0xE7F0, symBinAddr: 0xF70F0, symSize: 0x10 }
  - { offset: 0x60C8DF, size: 0x8, addend: 0x0, symName: __ZNK11llama_vocab9token_sepEv, symObjAddr: 0xE800, symBinAddr: 0xF7100, symSize: 0x10 }
  - { offset: 0x60C91C, size: 0x8, addend: 0x0, symName: __ZNK11llama_vocab8token_nlEv, symObjAddr: 0xE810, symBinAddr: 0xF7110, symSize: 0x10 }
  - { offset: 0x60C959, size: 0x8, addend: 0x0, symName: __ZNK11llama_vocab9token_padEv, symObjAddr: 0xE820, symBinAddr: 0xF7120, symSize: 0x10 }
  - { offset: 0x60C996, size: 0x8, addend: 0x0, symName: __ZNK11llama_vocab12token_prefixEv, symObjAddr: 0xE830, symBinAddr: 0xF7130, symSize: 0x10 }
  - { offset: 0x60C9DB, size: 0x8, addend: 0x0, symName: __ZNK11llama_vocab12token_middleEv, symObjAddr: 0xE840, symBinAddr: 0xF7140, symSize: 0x10 }
  - { offset: 0x60CA20, size: 0x8, addend: 0x0, symName: __ZNK11llama_vocab12token_suffixEv, symObjAddr: 0xE850, symBinAddr: 0xF7150, symSize: 0x10 }
  - { offset: 0x60CA65, size: 0x8, addend: 0x0, symName: __ZNK11llama_vocab13token_fim_preEv, symObjAddr: 0xE860, symBinAddr: 0xF7160, symSize: 0x10 }
  - { offset: 0x60CAA2, size: 0x8, addend: 0x0, symName: __ZNK11llama_vocab13token_fim_sufEv, symObjAddr: 0xE870, symBinAddr: 0xF7170, symSize: 0x10 }
  - { offset: 0x60CADF, size: 0x8, addend: 0x0, symName: __ZNK11llama_vocab13token_fim_midEv, symObjAddr: 0xE880, symBinAddr: 0xF7180, symSize: 0x10 }
  - { offset: 0x60CB1C, size: 0x8, addend: 0x0, symName: __ZNK11llama_vocab13token_fim_padEv, symObjAddr: 0xE890, symBinAddr: 0xF7190, symSize: 0x10 }
  - { offset: 0x60CB59, size: 0x8, addend: 0x0, symName: __ZNK11llama_vocab13token_fim_repEv, symObjAddr: 0xE8A0, symBinAddr: 0xF71A0, symSize: 0x10 }
  - { offset: 0x60CB96, size: 0x8, addend: 0x0, symName: __ZNK11llama_vocab13token_fim_sepEv, symObjAddr: 0xE8B0, symBinAddr: 0xF71B0, symSize: 0x10 }
  - { offset: 0x60CBD3, size: 0x8, addend: 0x0, symName: __ZNK11llama_vocab20get_add_space_prefixEv, symObjAddr: 0xE8C0, symBinAddr: 0xF71C0, symSize: 0x10 }
  - { offset: 0x60CC10, size: 0x8, addend: 0x0, symName: __ZNK11llama_vocab11get_add_bosEv, symObjAddr: 0xE8D0, symBinAddr: 0xF71D0, symSize: 0x10 }
  - { offset: 0x60CC4D, size: 0x8, addend: 0x0, symName: __ZNK11llama_vocab11get_add_eosEv, symObjAddr: 0xE8E0, symBinAddr: 0xF71E0, symSize: 0x10 }
  - { offset: 0x60CC8A, size: 0x8, addend: 0x0, symName: __ZNK11llama_vocab11get_add_sepEv, symObjAddr: 0xE8F0, symBinAddr: 0xF71F0, symSize: 0x10 }
  - { offset: 0x60CCC7, size: 0x8, addend: 0x0, symName: __ZNK11llama_vocab17get_ignore_mergesEv, symObjAddr: 0xE900, symBinAddr: 0xF7200, symSize: 0x10 }
  - { offset: 0x60CD04, size: 0x8, addend: 0x0, symName: __ZNK11llama_vocab16get_clean_spacesEv, symObjAddr: 0xE910, symBinAddr: 0xF7210, symSize: 0x10 }
  - { offset: 0x60CD49, size: 0x8, addend: 0x0, symName: __ZNK11llama_vocab28get_remove_extra_whitespacesEv, symObjAddr: 0xE920, symBinAddr: 0xF7220, symSize: 0x10 }
  - { offset: 0x60CD86, size: 0x8, addend: 0x0, symName: __ZNK11llama_vocab22get_escape_whitespacesEv, symObjAddr: 0xE930, symBinAddr: 0xF7230, symSize: 0x10 }
  - { offset: 0x60CDC3, size: 0x8, addend: 0x0, symName: __ZNK11llama_vocab30get_treat_whitespace_as_suffixEv, symObjAddr: 0xE940, symBinAddr: 0xF7240, symSize: 0x10 }
  - { offset: 0x60CE00, size: 0x8, addend: 0x0, symName: __ZNK11llama_vocab13max_token_lenEv, symObjAddr: 0xE950, symBinAddr: 0xF7250, symSize: 0x10 }
  - { offset: 0x60CEE9, size: 0x8, addend: 0x0, symName: __ZNK11llama_vocab13find_bpe_rankERKNSt3__112basic_stringIcNS0_11char_traitsIcEENS0_9allocatorIcEEEES8_, symObjAddr: 0xE960, symBinAddr: 0xF7260, symSize: 0x1F0 }
  - { offset: 0x60D4DB, size: 0x8, addend: 0x0, symName: __ZNSt3__112__hash_tableINS_17__hash_value_typeINS_4pairINS_12basic_stringIcNS_11char_traitsIcEENS_9allocatorIcEEEES8_EEiEENS_22__unordered_map_hasherIS9_SA_N11llama_vocab4impl9pair_hashENS_8equal_toIS9_EELb1EEENS_21__unordered_map_equalIS9_SA_SG_SE_Lb1EEENS6_ISA_EEE4findIS9_EENS_15__hash_iteratorIPNS_11__hash_nodeISA_PvEEEERKT_, symObjAddr: 0x17A30, symBinAddr: 0xFFAC0, symSize: 0x1C0 }
  - { offset: 0x60D855, size: 0x8, addend: 0x0, symName: __ZNK11llama_vocab14get_bpe_mergesEv, symObjAddr: 0xEB50, symBinAddr: 0xF7450, symSize: 0x240 }
  - { offset: 0x60E5CB, size: 0x8, addend: 0x0, symName: __ZNK11llama_vocab24get_precompiled_charsmapEv, symObjAddr: 0xEEA0, symBinAddr: 0xF77A0, symSize: 0x90 }
  - { offset: 0x60EA5F, size: 0x8, addend: 0x0, symName: __ZNSt3__112__hash_tableINS_17__hash_value_typeINS_12basic_stringIcNS_11char_traitsIcEENS_9allocatorIcEEEEiEENS_22__unordered_map_hasherIS7_S8_NS_4hashIS7_EENS_8equal_toIS7_EELb1EEENS_21__unordered_map_equalIS7_S8_SD_SB_Lb1EEENS5_IS8_EEE25__emplace_unique_key_argsIS7_JRKNS_21piecewise_construct_tENS_5tupleIJRKS7_EEENSN_IJEEEEEENS_4pairINS_15__hash_iteratorIPNS_11__hash_nodeIS8_PvEEEEbEERKT_DpOT0_, symObjAddr: 0x13690, symBinAddr: 0xFB760, symSize: 0x630 }
  - { offset: 0x60EAA7, size: 0x8, addend: 0x0, symName: __ZNK11llama_vocab8tokenizeEPKciPiibb, symObjAddr: 0xEF30, symBinAddr: 0xF7830, symSize: 0x250 }
  - { offset: 0x60F372, size: 0x8, addend: 0x0, symName: __ZNK11llama_vocab8tokenizeERKNSt3__112basic_stringIcNS0_11char_traitsIcEENS0_9allocatorIcEEEEbb, symObjAddr: 0xF180, symBinAddr: 0xF7A80, symSize: 0x20 }
  - { offset: 0x60F41A, size: 0x8, addend: 0x0, symName: __ZNK11llama_vocab14token_to_pieceEi, symObjAddr: 0xF1A0, symBinAddr: 0xF7AA0, symSize: 0x50 }
  - { offset: 0x60F4D5, size: 0x8, addend: 0x0, symName: __ZNK11llama_vocab10detokenizeEPKiiPcibb, symObjAddr: 0xF1F0, symBinAddr: 0xF7AF0, symSize: 0x10 }
  - { offset: 0x60F5F2, size: 0x8, addend: 0x0, symName: __ZNK11llama_vocab10detokenizeERKNSt3__16vectorIiNS0_9allocatorIiEEEEb, symObjAddr: 0xF200, symBinAddr: 0xF7B00, symSize: 0x140 }
  - { offset: 0x60FAEB, size: 0x8, addend: 0x0, symName: __ZNK11llama_vocab10print_infoEv, symObjAddr: 0xF340, symBinAddr: 0xF7C40, symSize: 0x10 }
  - { offset: 0x60FB3F, size: 0x8, addend: 0x0, symName: _llama_vocab_n_tokens, symObjAddr: 0xF350, symBinAddr: 0xF7C50, symSize: 0x20 }
  - { offset: 0x60FBD0, size: 0x8, addend: 0x0, symName: _llama_n_vocab, symObjAddr: 0xF370, symBinAddr: 0xF7C70, symSize: 0x20 }
  - { offset: 0x60FC72, size: 0x8, addend: 0x0, symName: _llama_vocab_type, symObjAddr: 0xF390, symBinAddr: 0xF7C90, symSize: 0x10 }
  - { offset: 0x60FCFB, size: 0x8, addend: 0x0, symName: _llama_vocab_get_text, symObjAddr: 0xF3A0, symBinAddr: 0xF7CA0, symSize: 0x70 }
  - { offset: 0x60FE48, size: 0x8, addend: 0x0, symName: _llama_vocab_get_score, symObjAddr: 0xF410, symBinAddr: 0xF7D10, symSize: 0x70 }
  - { offset: 0x60FE77, size: 0x8, addend: 0x0, symName: _llama_vocab_get_score, symObjAddr: 0xF410, symBinAddr: 0xF7D10, symSize: 0x70 }
  - { offset: 0x60FF57, size: 0x8, addend: 0x0, symName: _llama_vocab_get_attr, symObjAddr: 0xF480, symBinAddr: 0xF7D80, symSize: 0x70 }
  - { offset: 0x61004E, size: 0x8, addend: 0x0, symName: _llama_vocab_is_eog, symObjAddr: 0xF4F0, symBinAddr: 0xF7DF0, symSize: 0x40 }
  - { offset: 0x610073, size: 0x8, addend: 0x0, symName: _llama_vocab_is_eog, symObjAddr: 0xF4F0, symBinAddr: 0xF7DF0, symSize: 0x40 }
  - { offset: 0x610148, size: 0x8, addend: 0x0, symName: _llama_vocab_is_control, symObjAddr: 0xF530, symBinAddr: 0xF7E30, symSize: 0x50 }
  - { offset: 0x6101FE, size: 0x8, addend: 0x0, symName: _llama_vocab_bos, symObjAddr: 0xF580, symBinAddr: 0xF7E80, symSize: 0x10 }
  - { offset: 0x610253, size: 0x8, addend: 0x0, symName: _llama_vocab_eos, symObjAddr: 0xF590, symBinAddr: 0xF7E90, symSize: 0x10 }
  - { offset: 0x6102C1, size: 0x8, addend: 0x0, symName: _llama_vocab_eot, symObjAddr: 0xF5A0, symBinAddr: 0xF7EA0, symSize: 0x10 }
  - { offset: 0x610317, size: 0x8, addend: 0x0, symName: _llama_vocab_cls, symObjAddr: 0xF5B0, symBinAddr: 0xF7EB0, symSize: 0x10 }
  - { offset: 0x610394, size: 0x8, addend: 0x0, symName: _llama_vocab_sep, symObjAddr: 0xF5C0, symBinAddr: 0xF7EC0, symSize: 0x10 }
  - { offset: 0x610402, size: 0x8, addend: 0x0, symName: _llama_vocab_nl, symObjAddr: 0xF5D0, symBinAddr: 0xF7ED0, symSize: 0x10 }
  - { offset: 0x610470, size: 0x8, addend: 0x0, symName: _llama_vocab_pad, symObjAddr: 0xF5E0, symBinAddr: 0xF7EE0, symSize: 0x10 }
  - { offset: 0x6104C5, size: 0x8, addend: 0x0, symName: _llama_vocab_get_add_bos, symObjAddr: 0xF5F0, symBinAddr: 0xF7EF0, symSize: 0x10 }
  - { offset: 0x61051A, size: 0x8, addend: 0x0, symName: _llama_vocab_get_add_eos, symObjAddr: 0xF600, symBinAddr: 0xF7F00, symSize: 0x10 }
  - { offset: 0x610589, size: 0x8, addend: 0x0, symName: _llama_vocab_get_add_sep, symObjAddr: 0xF610, symBinAddr: 0xF7F10, symSize: 0x10 }
  - { offset: 0x610606, size: 0x8, addend: 0x0, symName: _llama_vocab_fim_pre, symObjAddr: 0xF620, symBinAddr: 0xF7F20, symSize: 0x10 }
  - { offset: 0x610674, size: 0x8, addend: 0x0, symName: _llama_vocab_fim_suf, symObjAddr: 0xF630, symBinAddr: 0xF7F30, symSize: 0x10 }
  - { offset: 0x6106E2, size: 0x8, addend: 0x0, symName: _llama_vocab_fim_mid, symObjAddr: 0xF640, symBinAddr: 0xF7F40, symSize: 0x10 }
  - { offset: 0x610750, size: 0x8, addend: 0x0, symName: _llama_vocab_fim_pad, symObjAddr: 0xF650, symBinAddr: 0xF7F50, symSize: 0x10 }
  - { offset: 0x6107BE, size: 0x8, addend: 0x0, symName: _llama_vocab_fim_rep, symObjAddr: 0xF660, symBinAddr: 0xF7F60, symSize: 0x10 }
  - { offset: 0x61082C, size: 0x8, addend: 0x0, symName: _llama_vocab_fim_sep, symObjAddr: 0xF670, symBinAddr: 0xF7F70, symSize: 0x10 }
  - { offset: 0x6108A9, size: 0x8, addend: 0x0, symName: _llama_token_get_text, symObjAddr: 0xF680, symBinAddr: 0xF7F80, symSize: 0x70 }
  - { offset: 0x610A2D, size: 0x8, addend: 0x0, symName: _llama_token_get_score, symObjAddr: 0xF6F0, symBinAddr: 0xF7FF0, symSize: 0x70 }
  - { offset: 0x610A5F, size: 0x8, addend: 0x0, symName: _llama_token_get_score, symObjAddr: 0xF6F0, symBinAddr: 0xF7FF0, symSize: 0x70 }
  - { offset: 0x610B79, size: 0x8, addend: 0x0, symName: _llama_token_get_attr, symObjAddr: 0xF760, symBinAddr: 0xF8060, symSize: 0x70 }
  - { offset: 0x610CAA, size: 0x8, addend: 0x0, symName: _llama_token_is_eog, symObjAddr: 0xF7D0, symBinAddr: 0xF80D0, symSize: 0x40 }
  - { offset: 0x610CE6, size: 0x8, addend: 0x0, symName: _llama_token_is_eog, symObjAddr: 0xF7D0, symBinAddr: 0xF80D0, symSize: 0x40 }
  - { offset: 0x610D09, size: 0x8, addend: 0x0, symName: _llama_token_is_eog, symObjAddr: 0xF7D0, symBinAddr: 0xF80D0, symSize: 0x40 }
  - { offset: 0x610DE2, size: 0x8, addend: 0x0, symName: _llama_token_is_control, symObjAddr: 0xF810, symBinAddr: 0xF8110, symSize: 0x50 }
  - { offset: 0x610EEB, size: 0x8, addend: 0x0, symName: _llama_token_bos, symObjAddr: 0xF860, symBinAddr: 0xF8160, symSize: 0x10 }
  - { offset: 0x610F88, size: 0x8, addend: 0x0, symName: _llama_token_eos, symObjAddr: 0xF870, symBinAddr: 0xF8170, symSize: 0x10 }
  - { offset: 0x611025, size: 0x8, addend: 0x0, symName: _llama_token_eot, symObjAddr: 0xF880, symBinAddr: 0xF8180, symSize: 0x10 }
  - { offset: 0x6110A7, size: 0x8, addend: 0x0, symName: _llama_token_cls, symObjAddr: 0xF890, symBinAddr: 0xF8190, symSize: 0x10 }
  - { offset: 0x611144, size: 0x8, addend: 0x0, symName: _llama_token_sep, symObjAddr: 0xF8A0, symBinAddr: 0xF81A0, symSize: 0x10 }
  - { offset: 0x6111E1, size: 0x8, addend: 0x0, symName: _llama_token_nl, symObjAddr: 0xF8B0, symBinAddr: 0xF81B0, symSize: 0x10 }
  - { offset: 0x61127E, size: 0x8, addend: 0x0, symName: _llama_token_pad, symObjAddr: 0xF8C0, symBinAddr: 0xF81C0, symSize: 0x10 }
  - { offset: 0x61131B, size: 0x8, addend: 0x0, symName: _llama_add_bos_token, symObjAddr: 0xF8D0, symBinAddr: 0xF81D0, symSize: 0x10 }
  - { offset: 0x6113B8, size: 0x8, addend: 0x0, symName: _llama_add_eos_token, symObjAddr: 0xF8E0, symBinAddr: 0xF81E0, symSize: 0x10 }
  - { offset: 0x611455, size: 0x8, addend: 0x0, symName: _llama_token_fim_pre, symObjAddr: 0xF8F0, symBinAddr: 0xF81F0, symSize: 0x10 }
  - { offset: 0x6114F2, size: 0x8, addend: 0x0, symName: _llama_token_fim_suf, symObjAddr: 0xF900, symBinAddr: 0xF8200, symSize: 0x10 }
  - { offset: 0x61158F, size: 0x8, addend: 0x0, symName: _llama_token_fim_mid, symObjAddr: 0xF910, symBinAddr: 0xF8210, symSize: 0x10 }
  - { offset: 0x61162C, size: 0x8, addend: 0x0, symName: _llama_token_fim_pad, symObjAddr: 0xF920, symBinAddr: 0xF8220, symSize: 0x10 }
  - { offset: 0x6116C9, size: 0x8, addend: 0x0, symName: _llama_token_fim_rep, symObjAddr: 0xF930, symBinAddr: 0xF8230, symSize: 0x10 }
  - { offset: 0x611766, size: 0x8, addend: 0x0, symName: _llama_token_fim_sep, symObjAddr: 0xF940, symBinAddr: 0xF8240, symSize: 0x10 }
  - { offset: 0x6117E8, size: 0x8, addend: 0x0, symName: _llama_tokenize, symObjAddr: 0xF950, symBinAddr: 0xF8250, symSize: 0x10 }
  - { offset: 0x6118AF, size: 0x8, addend: 0x0, symName: _llama_token_to_piece, symObjAddr: 0xF960, symBinAddr: 0xF8260, symSize: 0x10 }
  - { offset: 0x6119D0, size: 0x8, addend: 0x0, symName: _llama_detokenize, symObjAddr: 0xF970, symBinAddr: 0xF8270, symSize: 0x10 }
  - { offset: 0x611B48, size: 0x8, addend: 0x0, symName: __ZNSt3__114priority_queueI14llm_bigram_spmNS_6vectorIS1_NS_9allocatorIS1_EEEENS1_10comparatorEE4pushERKS1_, symObjAddr: 0x10300, symBinAddr: 0xF8B40, symSize: 0x290 }
  - { offset: 0x61226A, size: 0x8, addend: 0x0, symName: __ZNSt3__16__treeINS_12__value_typeINS_12basic_stringIcNS_11char_traitsIcEENS_9allocatorIcEEEENS_4pairIiiEEEENS_19__map_value_compareIS7_SA_NS_4lessIS7_EELb1EEENS5_ISA_EEE25__emplace_unique_key_argsIS7_JRKNS_21piecewise_construct_tENS_5tupleIJRKS7_EEENSL_IJEEEEEENS8_INS_15__tree_iteratorISA_PNS_11__tree_nodeISA_PvEElEEbEERKT_DpOT0_, symObjAddr: 0x105A0, symBinAddr: 0xF8DE0, symSize: 0x1B0 }
  - { offset: 0x612A46, size: 0x8, addend: 0x0, symName: __ZNSt3__16__treeINS_12__value_typeINS_12basic_stringIcNS_11char_traitsIcEENS_9allocatorIcEEEENS_4pairIiiEEEENS_19__map_value_compareIS7_SA_NS_4lessIS7_EELb1EEENS5_ISA_EEE4findIS7_EENS_15__tree_iteratorISA_PNS_11__tree_nodeISA_PvEElEERKT_, symObjAddr: 0x10AA0, symBinAddr: 0xF9180, symSize: 0x120 }
  - { offset: 0x613242, size: 0x8, addend: 0x0, symName: __ZNKSt3__16vectorI14llm_bigram_spmNS_9allocatorIS1_EEE20__throw_length_errorB8ne180100Ev, symObjAddr: 0x10590, symBinAddr: 0xF8DD0, symSize: 0x10 }
  - { offset: 0x61326C, size: 0x8, addend: 0x0, symName: __ZNSt3__16__treeINS_12__value_typeINS_12basic_stringIcNS_11char_traitsIcEENS_9allocatorIcEEEENS_4pairIiiEEEENS_19__map_value_compareIS7_SA_NS_4lessIS7_EELb1EEENS5_ISA_EEE25__emplace_unique_key_argsIS7_JRKNS_21piecewise_construct_tENS_5tupleIJRKS7_EEENSL_IJEEEEEENS8_INS_15__tree_iteratorISA_PNS_11__tree_nodeISA_PvEElEEbEERKT_DpOT0_, symObjAddr: 0x105A0, symBinAddr: 0xF8DE0, symSize: 0x1B0 }
  - { offset: 0x613A92, size: 0x8, addend: 0x0, symName: __ZNSt3__16vectorI14llm_bigram_bpeNS_9allocatorIS1_EEE21__push_back_slow_pathIRKS1_EEPS1_OT_, symObjAddr: 0x110A0, symBinAddr: 0xF9770, symSize: 0x240 }
  - { offset: 0x6145D7, size: 0x8, addend: 0x0, symName: __ZNKSt3__16vectorI14llm_bigram_bpeNS_9allocatorIS1_EEE20__throw_length_errorB8ne180100Ev, symObjAddr: 0x11340, symBinAddr: 0xF9A10, symSize: 0x10 }
  - { offset: 0x614601, size: 0x8, addend: 0x0, symName: __ZNSt3__19__sift_upB8ne180100INS_17_ClassicAlgPolicyERN14llm_bigram_bpe10comparatorENS_11__wrap_iterIPS2_EEEEvT1_S8_OT0_NS_15iterator_traitsIS8_E15difference_typeE, symObjAddr: 0x11350, symBinAddr: 0xF9A20, symSize: 0x1A0 }
  - { offset: 0x61460C, size: 0x8, addend: 0x0, symName: __ZNSt3__114__split_bufferI14llm_bigram_bpeRNS_9allocatorIS1_EEED1Ev, symObjAddr: 0x112E0, symBinAddr: 0xF99B0, symSize: 0x60 }
  - { offset: 0x614B68, size: 0x8, addend: 0x0, symName: __ZNSt3__16vectorINS_12basic_stringIcNS_11char_traitsIcEENS_9allocatorIcEEEENS4_IS6_EEEC1EmRKS6_, symObjAddr: 0x11C30, symBinAddr: 0xFA2F0, symSize: 0xE0 }
  - { offset: 0x614FD5, size: 0x8, addend: 0x0, symName: __ZNSt3__16vectorINS_12basic_stringIcNS_11char_traitsIcEENS_9allocatorIcEEEENS4_IS6_EEE24__emplace_back_slow_pathIJEEEPS6_DpOT_, symObjAddr: 0x11D20, symBinAddr: 0xFA3D0, symSize: 0x180 }
  - { offset: 0x61571C, size: 0x8, addend: 0x0, symName: __ZNSt3__16vectorINS_12basic_stringIcNS_11char_traitsIcEENS_9allocatorIcEEEENS4_IS6_EEEC1EmRKS6_.cold.1, symObjAddr: 0x17C40, symBinAddr: 0x224830, symSize: 0x50 }
  - { offset: 0x615C5E, size: 0x8, addend: 0x0, symName: __ZN25llm_tokenizer_ugm_session16normalize_prefixERKNSt3__112basic_stringIcNS0_11char_traitsIcEENS0_9allocatorIcEEEEm, symObjAddr: 0x121D0, symBinAddr: 0xFA880, symSize: 0x300 }
  - { offset: 0x6167FA, size: 0x8, addend: 0x0, symName: __ZNKSt3__16vectorIN11llama_vocab10token_dataENS_9allocatorIS2_EEE20__throw_length_errorB8ne180100Ev, symObjAddr: 0x127D0, symBinAddr: 0xFAD50, symSize: 0x10 }
  - { offset: 0x616824, size: 0x8, addend: 0x0, symName: __ZNSt3__112__hash_tableINS_17__hash_value_typeINS_4pairINS_12basic_stringIcNS_11char_traitsIcEENS_9allocatorIcEEEES8_EEiEENS_22__unordered_map_hasherIS9_SA_N11llama_vocab4impl9pair_hashENS_8equal_toIS9_EELb1EEENS_21__unordered_map_equalIS9_SA_SG_SE_Lb1EEENS6_ISA_EEE25__emplace_unique_key_argsIS9_JS9_RiEEENS2_INS_15__hash_iteratorIPNS_11__hash_nodeISA_PvEEEEbEERKT_DpOT0_, symObjAddr: 0x127E0, symBinAddr: 0xFAD60, symSize: 0x550 }
  - { offset: 0x617468, size: 0x8, addend: 0x0, symName: __ZNSt3__112__hash_tableINS_17__hash_value_typeINS_4pairINS_12basic_stringIcNS_11char_traitsIcEENS_9allocatorIcEEEES8_EEiEENS_22__unordered_map_hasherIS9_SA_N11llama_vocab4impl9pair_hashENS_8equal_toIS9_EELb1EEENS_21__unordered_map_equalIS9_SA_SG_SE_Lb1EEENS6_ISA_EEE11__do_rehashILb1EEEvm, symObjAddr: 0x13340, symBinAddr: 0xFB420, symSize: 0x210 }
  - { offset: 0x6178E4, size: 0x8, addend: 0x0, symName: __ZNSt3__110unique_ptrINS_11__hash_nodeINS_17__hash_value_typeINS_4pairINS_12basic_stringIcNS_11char_traitsIcEENS_9allocatorIcEEEES9_EEiEEPvEENS_22__hash_node_destructorINS7_ISD_EEEEED1B8ne180100Ev, symObjAddr: 0x12D30, symBinAddr: 0xFB2B0, symSize: 0x50 }
  - { offset: 0x618924, size: 0x8, addend: 0x0, symName: __ZNSt3__112__hash_tableINS_17__hash_value_typeINS_12basic_stringIcNS_11char_traitsIcEENS_9allocatorIcEEEEiEENS_22__unordered_map_hasherIS7_S8_NS_4hashIS7_EENS_8equal_toIS7_EELb1EEENS_21__unordered_map_equalIS7_S8_SD_SB_Lb1EEENS5_IS8_EEE11__do_rehashILb1EEEvm, symObjAddr: 0x13D00, symBinAddr: 0xFBDD0, symSize: 0x210 }
  - { offset: 0x618DA0, size: 0x8, addend: 0x0, symName: __ZNSt3__110unique_ptrINS_11__hash_nodeINS_17__hash_value_typeINS_12basic_stringIcNS_11char_traitsIcEENS_9allocatorIcEEEEiEEPvEENS_22__hash_node_destructorINS6_ISB_EEEEED1B8ne180100Ev, symObjAddr: 0x13CC0, symBinAddr: 0xFBD90, symSize: 0x40 }
  - { offset: 0x6193D6, size: 0x8, addend: 0x0, symName: __ZN17llm_tokenizer_spmD1Ev, symObjAddr: 0x15A60, symBinAddr: 0xFDAF0, symSize: 0x10 }
  - { offset: 0x619401, size: 0x8, addend: 0x0, symName: __ZN17llm_tokenizer_spmD0Ev, symObjAddr: 0x15A70, symBinAddr: 0xFDB00, symSize: 0x10 }
  - { offset: 0x6194F5, size: 0x8, addend: 0x0, symName: __ZNSt3__16vectorINS_12basic_stringIcNS_11char_traitsIcEENS_9allocatorIcEEEENS4_IS6_EEE18__assign_with_sizeB8ne180100IPKS6_SB_EEvT_T0_l, symObjAddr: 0x16AD0, symBinAddr: 0xFEB60, symSize: 0x310 }
  - { offset: 0x61A2C1, size: 0x8, addend: 0x0, symName: __ZN17llm_tokenizer_bpeC2ERK11llama_vocab.cold.4, symObjAddr: 0x17D20, symBinAddr: 0x224910, symSize: 0x20 }
  - { offset: 0x61A3B2, size: 0x8, addend: 0x0, symName: __ZN17llm_tokenizer_bpeC2ERK11llama_vocab.cold.2, symObjAddr: 0x17CC0, symBinAddr: 0x2248B0, symSize: 0x30 }
  - { offset: 0x61A4A3, size: 0x8, addend: 0x0, symName: __ZN17llm_tokenizer_bpeC2ERK11llama_vocab.cold.3, symObjAddr: 0x17CF0, symBinAddr: 0x2248E0, symSize: 0x30 }
  - { offset: 0x61A594, size: 0x8, addend: 0x0, symName: __ZN17llm_tokenizer_bpeC2ERK11llama_vocab.cold.1, symObjAddr: 0x17C90, symBinAddr: 0x224880, symSize: 0x30 }
  - { offset: 0x61A6A2, size: 0x8, addend: 0x0, symName: __ZN17llm_tokenizer_bpeD1Ev, symObjAddr: 0x169D0, symBinAddr: 0xFEA60, symSize: 0x80 }
  - { offset: 0x61A955, size: 0x8, addend: 0x0, symName: __ZN17llm_tokenizer_bpeD0Ev, symObjAddr: 0x16A50, symBinAddr: 0xFEAE0, symSize: 0x80 }
  - { offset: 0x61ADD0, size: 0x8, addend: 0x0, symName: __ZNSt3__16vectorINS_12basic_stringIcNS_11char_traitsIcEENS_9allocatorIcEEEENS4_IS6_EEE18__assign_with_sizeB8ne180100IPKS6_SB_EEvT_T0_l.cold.2, symObjAddr: 0x17D70, symBinAddr: 0x224960, symSize: 0x2B }
  - { offset: 0x61AFA2, size: 0x8, addend: 0x0, symName: __ZNSt3__16vectorINS_12basic_stringIcNS_11char_traitsIcEENS_9allocatorIcEEEENS4_IS6_EEE18__assign_with_sizeB8ne180100IPKS6_SB_EEvT_T0_l.cold.1, symObjAddr: 0x17D40, symBinAddr: 0x224930, symSize: 0x30 }
  - { offset: 0x61B174, size: 0x8, addend: 0x0, symName: __ZN17llm_tokenizer_wpmD1Ev, symObjAddr: 0x16DE0, symBinAddr: 0xFEE70, symSize: 0x10 }
  - { offset: 0x61B1A0, size: 0x8, addend: 0x0, symName: __ZN17llm_tokenizer_wpmD0Ev, symObjAddr: 0x16DF0, symBinAddr: 0xFEE80, symSize: 0x10 }
  - { offset: 0x61B442, size: 0x8, addend: 0x0, symName: __ZN10naive_trie6insertEPKcmi, symObjAddr: 0x170E0, symBinAddr: 0xFF170, symSize: 0x1D0 }
  - { offset: 0x61C08E, size: 0x8, addend: 0x0, symName: __ZNSt3__16__treeINS_12__value_typeIc10naive_trieEENS_19__map_value_compareIcS3_NS_4lessIcEELb1EEENS_9allocatorIS3_EEE7destroyEPNS_11__tree_nodeIS3_PvEE, symObjAddr: 0x17350, symBinAddr: 0xFF3E0, symSize: 0x40 }
  - { offset: 0x61C90E, size: 0x8, addend: 0x0, symName: __ZN17llm_tokenizer_ugmD1Ev, symObjAddr: 0x172B0, symBinAddr: 0xFF340, symSize: 0x50 }
  - { offset: 0x61CC12, size: 0x8, addend: 0x0, symName: __ZN17llm_tokenizer_ugmD0Ev, symObjAddr: 0x17300, symBinAddr: 0xFF390, symSize: 0x50 }
  - { offset: 0x61D02E, size: 0x8, addend: 0x0, symName: __ZN18llm_tokenizer_rwkvD1Ev, symObjAddr: 0x174E0, symBinAddr: 0xFF570, symSize: 0x20 }
  - { offset: 0x61D139, size: 0x8, addend: 0x0, symName: __ZN18llm_tokenizer_rwkvD0Ev, symObjAddr: 0x17500, symBinAddr: 0xFF590, symSize: 0x40 }
  - { offset: 0x61F538, size: 0x8, addend: 0x0, symName: _llama_split_path, symObjAddr: 0x18B0, symBinAddr: 0x101420, symSize: 0x40 }
  - { offset: 0x61F5FE, size: 0x8, addend: 0x0, symName: _llama_print_system_info, symObjAddr: 0x1C90, symBinAddr: 0x101800, symSize: 0x1B0 }
  - { offset: 0x61F626, size: 0x8, addend: 0x0, symName: __ZZ23llama_print_system_infoE1s, symObjAddr: 0xCFE28, symBinAddr: 0x2F3D90, symSize: 0x0 }
  - { offset: 0x634721, size: 0x8, addend: 0x0, symName: _llama_sampler_chain_default_params, symObjAddr: 0x0, symBinAddr: 0xFFC80, symSize: 0x10 }
  - { offset: 0x634749, size: 0x8, addend: 0x0, symName: _llama_max_devices, symObjAddr: 0x10, symBinAddr: 0xFFC90, symSize: 0x10 }
  - { offset: 0x634763, size: 0x8, addend: 0x0, symName: _llama_supports_mmap, symObjAddr: 0x20, symBinAddr: 0xFFCA0, symSize: 0x10 }
  - { offset: 0x63477D, size: 0x8, addend: 0x0, symName: _llama_supports_mlock, symObjAddr: 0x30, symBinAddr: 0xFFCB0, symSize: 0x10 }
  - { offset: 0x6347A4, size: 0x8, addend: 0x0, symName: _llama_supports_gpu_offload, symObjAddr: 0x40, symBinAddr: 0xFFCC0, symSize: 0x30 }
  - { offset: 0x634823, size: 0x8, addend: 0x0, symName: _llama_supports_rpc, symObjAddr: 0x70, symBinAddr: 0xFFCF0, symSize: 0x20 }
  - { offset: 0x634846, size: 0x8, addend: 0x0, symName: _llama_backend_init, symObjAddr: 0x90, symBinAddr: 0xFFD10, symSize: 0x40 }
  - { offset: 0x6348DB, size: 0x8, addend: 0x0, symName: _llama_numa_init, symObjAddr: 0xD0, symBinAddr: 0xFFD50, symSize: 0x70 }
  - { offset: 0x6349CA, size: 0x8, addend: 0x0, symName: _llama_backend_free, symObjAddr: 0x140, symBinAddr: 0xFFDC0, symSize: 0x10 }
  - { offset: 0x6349F8, size: 0x8, addend: 0x0, symName: _llama_time_us, symObjAddr: 0x150, symBinAddr: 0xFFDD0, symSize: 0x10 }
  - { offset: 0x634A2E, size: 0x8, addend: 0x0, symName: _llama_load_model_from_file, symObjAddr: 0x160, symBinAddr: 0xFFDE0, symSize: 0x10 }
  - { offset: 0x634A7C, size: 0x8, addend: 0x0, symName: _llama_model_load_from_file, symObjAddr: 0x170, symBinAddr: 0xFFDF0, symSize: 0x180 }
  - { offset: 0x63590B, size: 0x8, addend: 0x0, symName: __ZL31llama_model_load_from_file_implRKNSt3__112basic_stringIcNS_11char_traitsIcEENS_9allocatorIcEEEERNS_6vectorIS5_NS3_IS5_EEEE18llama_model_params, symObjAddr: 0x2F0, symBinAddr: 0xFFF70, symSize: 0xE70 }
  - { offset: 0x63AB80, size: 0x8, addend: 0x0, symName: __ZNSt3__16vectorIP19ggml_backend_deviceNS_9allocatorIS2_EEE18__insert_with_sizeB8ne180100INS_11__wrap_iterIPS2_EES9_EES9_NS7_IPKS2_EET_T0_l, symObjAddr: 0x1FC0, symBinAddr: 0x101A60, symSize: 0x3F0 }
  - { offset: 0x63C180, size: 0x8, addend: 0x0, symName: __ZNKSt3__16vectorIP19ggml_backend_deviceNS_9allocatorIS2_EEE20__throw_length_errorB8ne180100Ev, symObjAddr: 0x1EE0, symBinAddr: 0x101A50, symSize: 0x10 }
  - { offset: 0x63C583, size: 0x8, addend: 0x0, symName: _llama_model_load_from_splits, symObjAddr: 0x1270, symBinAddr: 0x100DE0, symSize: 0x250 }
  - { offset: 0x63D43D, size: 0x8, addend: 0x0, symName: _llama_model_save_to_file, symObjAddr: 0x14C0, symBinAddr: 0x101030, symSize: 0x140 }
  - { offset: 0x63DDBA, size: 0x8, addend: 0x0, symName: _llama_chat_apply_template, symObjAddr: 0x1600, symBinAddr: 0x101170, symSize: 0x2B0 }
  - { offset: 0x63EBEC, size: 0x8, addend: 0x0, symName: __ZNSt3__16vectorIPK18llama_chat_messageNS_9allocatorIS3_EEE8__appendEm, symObjAddr: 0x27A0, symBinAddr: 0x101E50, symSize: 0x200 }
  - { offset: 0x63F265, size: 0x8, addend: 0x0, symName: _llama_split_prefix, symObjAddr: 0x18F0, symBinAddr: 0x101460, symSize: 0x3A0 }
  - { offset: 0x640277, size: 0x8, addend: 0x0, symName: '__ZZL31llama_model_load_from_file_implRKNSt3__112basic_stringIcNS_11char_traitsIcEENS_9allocatorIcEEEERNS_6vectorIS5_NS3_IS5_EEEE18llama_model_paramsEN3$_08__invokeEfPv', symObjAddr: 0x1E40, symBinAddr: 0x1019B0, symSize: 0xA0 }
  - { offset: 0x641634, size: 0x8, addend: 0x0, symName: __ZNSt3__16vectorIPK18llama_chat_messageNS_9allocatorIS3_EEE8__appendEm, symObjAddr: 0x27A0, symBinAddr: 0x101E50, symSize: 0x200 }
  - { offset: 0x6419A9, size: 0x8, addend: 0x0, symName: __ZNKSt3__16vectorIPK18llama_chat_messageNS_9allocatorIS3_EEE20__throw_length_errorB8ne180100Ev, symObjAddr: 0x29A0, symBinAddr: 0x102050, symSize: 0x10 }
  - { offset: 0x6439D4, size: 0x8, addend: 0x0, symName: _unicode_ranges_flags, symObjAddr: 0x10138, symBinAddr: 0x27E4D8, symSize: 0x0 }
  - { offset: 0x64730B, size: 0x8, addend: 0x0, symName: _unicode_set_whitespace, symObjAddr: 0x2ACA0, symBinAddr: 0x2F43D0, symSize: 0x0 }
  - { offset: 0x6477A7, size: 0x8, addend: 0x0, symName: _unicode_map_lowercase, symObjAddr: 0x10148, symBinAddr: 0x27E4E8, symSize: 0x0 }
  - { offset: 0x6477D7, size: 0x8, addend: 0x0, symName: _unicode_map_uppercase, symObjAddr: 0x10158, symBinAddr: 0x27E4F8, symSize: 0x0 }
  - { offset: 0x6477EE, size: 0x8, addend: 0x0, symName: _unicode_ranges_nfd, symObjAddr: 0x10168, symBinAddr: 0x27E508, symSize: 0x0 }
  - { offset: 0x647A2E, size: 0x8, addend: 0x0, symName: __ZNSt3__113unordered_setIjNS_4hashIjEENS_8equal_toIjEENS_9allocatorIjEEED1B8ne180100Ev, symObjAddr: 0x0, symBinAddr: 0x102060, symSize: 0x50 }
  - { offset: 0x648034, size: 0x8, addend: 0x0, symName: __ZNSt3__112__hash_tableIjNS_4hashIjEENS_8equal_toIjEENS_9allocatorIjEEE25__emplace_unique_key_argsIjJRKjEEENS_4pairINS_15__hash_iteratorIPNS_11__hash_nodeIjPvEEEEbEERKT_DpOT0_, symObjAddr: 0x50, symBinAddr: 0x1020B0, symSize: 0x430 }
  - { offset: 0x6486F4, size: 0x8, addend: 0x0, symName: __ZNSt3__112__hash_tableIjNS_4hashIjEENS_8equal_toIjEENS_9allocatorIjEEE11__do_rehashILb1EEEvm, symObjAddr: 0x4C0, symBinAddr: 0x1024E0, symSize: 0x20B }
  - { offset: 0x64AB15, size: 0x8, addend: 0x0, symName: __Z26unicode_cpt_flags_from_cptj, symObjAddr: 0xAD0, symBinAddr: 0x103480, symSize: 0xD0 }
  - { offset: 0x64AB36, size: 0x8, addend: 0x0, symName: __ZZ26unicode_cpt_flags_from_cptjE5undef, symObjAddr: 0x3294A8, symBinAddr: 0x2F3DB0, symSize: 0x0 }
  - { offset: 0x64AB4D, size: 0x8, addend: 0x0, symName: __ZZ26unicode_cpt_flags_from_cptjE9cpt_flags, symObjAddr: 0x3294B8, symBinAddr: 0x2F3DC0, symSize: 0x0 }
  - { offset: 0x682186, size: 0x8, addend: 0x0, symName: __ZNSt3__119__throw_range_errorB8ne180100EPKc, symObjAddr: 0x17DD0, symBinAddr: 0x10DA00, symSize: 0x50 }
  - { offset: 0x68897D, size: 0x8, addend: 0x0, symName: __Z27unicode_cpt_flags_from_utf8RKNSt3__112basic_stringIcNS_11char_traitsIcEENS_9allocatorIcEEEE, symObjAddr: 0xDF0, symBinAddr: 0x1037A0, symSize: 0x90 }
  - { offset: 0x6889A9, size: 0x8, addend: 0x0, symName: __ZZ27unicode_cpt_flags_from_utf8RKNSt3__112basic_stringIcNS_11char_traitsIcEENS_9allocatorIcEEEEE5undef, symObjAddr: 0x3294D8, symBinAddr: 0x2F3DE0, symSize: 0x0 }
  - { offset: 0x688A88, size: 0x8, addend: 0x0, symName: __Z20unicode_byte_to_utf8h, symObjAddr: 0xE80, symBinAddr: 0x103830, symSize: 0x1F0 }
  - { offset: 0x688AB4, size: 0x8, addend: 0x0, symName: __ZZ20unicode_byte_to_utf8hE3map, symObjAddr: 0x3294E8, symBinAddr: 0x2F3DF0, symSize: 0x0 }
  - { offset: 0x6892B1, size: 0x8, addend: 0x0, symName: __Z20unicode_utf8_to_byteRKNSt3__112basic_stringIcNS_11char_traitsIcEENS_9allocatorIcEEEE, symObjAddr: 0x18D0, symBinAddr: 0x104280, symSize: 0xA0 }
  - { offset: 0x6892DD, size: 0x8, addend: 0x0, symName: __ZZ20unicode_utf8_to_byteRKNSt3__112basic_stringIcNS_11char_traitsIcEENS_9allocatorIcEEEEE3map, symObjAddr: 0x329518, symBinAddr: 0x2F3E20, symSize: 0x0 }
  - { offset: 0x689873, size: 0x8, addend: 0x0, symName: __Z19unicode_regex_splitRKNSt3__112basic_stringIcNS_11char_traitsIcEENS_9allocatorIcEEEERKNS_6vectorIS5_NS3_IS5_EEEE, symObjAddr: 0x1F70, symBinAddr: 0x104920, symSize: 0x70F0 }
  - { offset: 0x68989F, size: 0x8, addend: 0x0, symName: __ZZ19unicode_regex_splitRKNSt3__112basic_stringIcNS_11char_traitsIcEENS_9allocatorIcEEEERKNS_6vectorIS5_NS3_IS5_EEEEE11k_ucat_enum, symObjAddr: 0x329548, symBinAddr: 0x2F3E50, symSize: 0x0 }
  - { offset: 0x6898B6, size: 0x8, addend: 0x0, symName: __ZZ19unicode_regex_splitRKNSt3__112basic_stringIcNS_11char_traitsIcEENS_9allocatorIcEEEERKNS_6vectorIS5_NS3_IS5_EEEEE10k_ucat_cpt, symObjAddr: 0x329568, symBinAddr: 0x2F3E70, symSize: 0x0 }
  - { offset: 0x6898CD, size: 0x8, addend: 0x0, symName: __ZZ19unicode_regex_splitRKNSt3__112basic_stringIcNS_11char_traitsIcEENS_9allocatorIcEEEERKNS_6vectorIS5_NS3_IS5_EEEEE10k_ucat_map, symObjAddr: 0x329588, symBinAddr: 0x2F3E90, symSize: 0x0 }
  - { offset: 0x69C787, size: 0x8, addend: 0x0, symName: __Z16unicode_len_utf8c, symObjAddr: 0x0, symBinAddr: 0x1029C0, symSize: 0x20 }
  - { offset: 0x69C848, size: 0x8, addend: 0x0, symName: __Z21unicode_cpt_from_utf8RKNSt3__112basic_stringIcNS_11char_traitsIcEENS_9allocatorIcEEEERm, symObjAddr: 0x20, symBinAddr: 0x1029E0, symSize: 0x250 }
  - { offset: 0x69C9E0, size: 0x8, addend: 0x0, symName: __ZNSt16invalid_argumentC1B8ne180100EPKc, symObjAddr: 0x270, symBinAddr: 0x102C30, symSize: 0x30 }
  - { offset: 0x69CC0F, size: 0x8, addend: 0x0, symName: __Z19unicode_cpt_to_utf8j, symObjAddr: 0x2A0, symBinAddr: 0x102C60, symSize: 0x150 }
  - { offset: 0x69D002, size: 0x8, addend: 0x0, symName: __Z26unicode_cpts_normalize_nfdRKNSt3__16vectorIjNS_9allocatorIjEEEE, symObjAddr: 0x3F0, symBinAddr: 0x102DB0, symSize: 0x1E0 }
  - { offset: 0x69D656, size: 0x8, addend: 0x0, symName: __ZNSt3__16__treeINS_12__value_typeINS_12basic_stringIcNS_11char_traitsIcEENS_9allocatorIcEEEEiEENS_19__map_value_compareIS7_S8_NS_4lessIS7_EELb1EEENS5_IS8_EEE30__emplace_hint_unique_key_argsIS7_JRKNS_4pairIKS7_iEEEEENSG_INS_15__tree_iteratorIS8_PNS_11__tree_nodeIS8_PvEElEEbEENS_21__tree_const_iteratorIS8_SP_lEERKT_DpOT0_, symObjAddr: 0x248C0, symBinAddr: 0x11A450, symSize: 0xE0 }
  - { offset: 0x69DA2E, size: 0x8, addend: 0x0, symName: __Z22unicode_cpts_from_utf8RKNSt3__112basic_stringIcNS_11char_traitsIcEENS_9allocatorIcEEEE, symObjAddr: 0x5D0, symBinAddr: 0x102F90, symSize: 0x320 }
  - { offset: 0x69E300, size: 0x8, addend: 0x0, symName: __ZNSt3__16vectorIjNS_9allocatorIjEEE12emplace_backIJiEEERjDpOT_, symObjAddr: 0x8F0, symBinAddr: 0x1032B0, symSize: 0x1D0 }
  - { offset: 0x69E9E3, size: 0x8, addend: 0x0, symName: __ZL23unicode_cpt_flags_arrayv, symObjAddr: 0xBA0, symBinAddr: 0x103550, symSize: 0x230 }
  - { offset: 0x69F262, size: 0x8, addend: 0x0, symName: __ZNSt3__16vectorI17unicode_cpt_flagsNS_9allocatorIS1_EEED1B8ne180100Ev, symObjAddr: 0xDD0, symBinAddr: 0x103780, symSize: 0x20 }
  - { offset: 0x69F81E, size: 0x8, addend: 0x0, symName: __ZL24unicode_byte_to_utf8_mapv, symObjAddr: 0x1070, symBinAddr: 0x103A20, symSize: 0x7F0 }
  - { offset: 0x6A06B5, size: 0x8, addend: 0x0, symName: __ZNSt3__112__hash_tableINS_17__hash_value_typeIhNS_12basic_stringIcNS_11char_traitsIcEENS_9allocatorIcEEEEEENS_22__unordered_map_hasherIhS8_NS_4hashIhEENS_8equal_toIhEELb1EEENS_21__unordered_map_equalIhS8_SD_SB_Lb1EEENS5_IS8_EEE25__emplace_unique_key_argsIhJRKNS_21piecewise_construct_tENS_5tupleIJOhEEENSN_IJEEEEEENS_4pairINS_15__hash_iteratorIPNS_11__hash_nodeIS8_PvEEEEbEERKT_DpOT0_, symObjAddr: 0x98E0, symBinAddr: 0x10C160, symSize: 0x460 }
  - { offset: 0x6A0EB5, size: 0x8, addend: 0x0, symName: __ZNSt3__113unordered_mapIhNS_12basic_stringIcNS_11char_traitsIcEENS_9allocatorIcEEEENS_4hashIhEENS_8equal_toIhEENS4_INS_4pairIKhS6_EEEEED1B8ne180100Ev, symObjAddr: 0x1860, symBinAddr: 0x104210, symSize: 0x70 }
  - { offset: 0x6A1584, size: 0x8, addend: 0x0, symName: __ZNSt3__112__hash_tableINS_17__hash_value_typeINS_12basic_stringIcNS_11char_traitsIcEENS_9allocatorIcEEEEhEENS_22__unordered_map_hasherIS7_S8_NS_4hashIS7_EENS_8equal_toIS7_EELb1EEENS_21__unordered_map_equalIS7_S8_SD_SB_Lb1EEENS5_IS8_EEE4findIS7_EENS_15__hash_iteratorIPNS_11__hash_nodeIS8_PvEEEERKT_, symObjAddr: 0xAC80, symBinAddr: 0x10D060, symSize: 0x2D0 }
  - { offset: 0x6A1884, size: 0x8, addend: 0x0, symName: __ZL24unicode_utf8_to_byte_mapv, symObjAddr: 0x1970, symBinAddr: 0x104320, symSize: 0x520 }
  - { offset: 0x6A272A, size: 0x8, addend: 0x0, symName: __ZNSt3__112__hash_tableINS_17__hash_value_typeINS_12basic_stringIcNS_11char_traitsIcEENS_9allocatorIcEEEEhEENS_22__unordered_map_hasherIS7_S8_NS_4hashIS7_EENS_8equal_toIS7_EELb1EEENS_21__unordered_map_equalIS7_S8_SD_SB_Lb1EEENS5_IS8_EEE25__emplace_unique_key_argsIS7_JRKNS_21piecewise_construct_tENS_5tupleIJOS7_EEENSN_IJEEEEEENS_4pairINS_15__hash_iteratorIPNS_11__hash_nodeIS8_PvEEEEbEERKT_DpOT0_, symObjAddr: 0x9F90, symBinAddr: 0x10C810, symSize: 0x600 }
  - { offset: 0x6A3051, size: 0x8, addend: 0x0, symName: __ZNSt3__113unordered_mapINS_12basic_stringIcNS_11char_traitsIcEENS_9allocatorIcEEEEhNS_4hashIS6_EENS_8equal_toIS6_EENS4_INS_4pairIKS6_hEEEEED1B8ne180100Ev, symObjAddr: 0x1E90, symBinAddr: 0x104840, symSize: 0x70 }
  - { offset: 0x6A36BE, size: 0x8, addend: 0x0, symName: __Z15unicode_tolowerj, symObjAddr: 0x1F00, symBinAddr: 0x1048B0, symSize: 0x70 }
  - { offset: 0x6A717F, size: 0x8, addend: 0x0, symName: __ZNKSt3__16__treeINS_12__value_typeINS_12basic_stringIcNS_11char_traitsIcEENS_9allocatorIcEEEEiEENS_19__map_value_compareIS7_S8_NS_4lessIS7_EELb1EEENS5_IS8_EEE4findIS7_EENS_21__tree_const_iteratorIS8_PNS_11__tree_nodeIS8_PvEElEERKT_, symObjAddr: 0x253C0, symBinAddr: 0x11AD60, symSize: 0x120 }
  - { offset: 0x6A74E0, size: 0x8, addend: 0x0, symName: __ZNKSt3__13mapINS_12basic_stringIcNS_11char_traitsIcEENS_9allocatorIcEEEEiNS_4lessIS6_EENS4_INS_4pairIKS6_iEEEEE2atERSA_, symObjAddr: 0x9550, symBinAddr: 0x10BF00, symSize: 0x110 }
  - { offset: 0x6A7D6C, size: 0x8, addend: 0x0, symName: __ZNSt3__115wstring_convertINS_12codecvt_utf8IwLm1114111ELNS_12codecvt_modeE0EEEwNS_9allocatorIwEENS4_IcEEE10from_bytesEPKcS9_, symObjAddr: 0x17780, symBinAddr: 0x10D3B0, symSize: 0x3B0 }
  - { offset: 0x6A8743, size: 0x8, addend: 0x0, symName: __ZNSt3__111basic_regexIwNS_12regex_traitsIwEEEC2B8ne180100INS_11char_traitsIwEENS_9allocatorIwEEEERKNS_12basic_stringIwT_T0_EENS_15regex_constants18syntax_option_typeE, symObjAddr: 0x17F60, symBinAddr: 0x10DB90, symSize: 0xD0 }
  - { offset: 0x6A893E, size: 0x8, addend: 0x0, symName: __ZNKSt3__111basic_regexIwNS_12regex_traitsIwEEE8__searchINS_9allocatorINS_9sub_matchIPKwEEEEEEbS8_S8_RNS_13match_resultsIS8_T_EENS_15regex_constants15match_flag_typeE, symObjAddr: 0x21B80, symBinAddr: 0x1177B0, symSize: 0x330 }
  - { offset: 0x6A8EC9, size: 0x8, addend: 0x0, symName: __ZNSt3__16vectorINS_12basic_stringIcNS_11char_traitsIcEENS_9allocatorIcEEEENS4_IS6_EEE7reserveEm, symObjAddr: 0x9660, symBinAddr: 0x10C010, symSize: 0x150 }
  - { offset: 0x6A97AB, size: 0x8, addend: 0x0, symName: __ZNSt3__16vectorINS_12basic_stringIcNS_11char_traitsIcEENS_9allocatorIcEEEENS4_IS6_EEE24__emplace_back_slow_pathIJRS6_EEEPS6_DpOT_, symObjAddr: 0x24630, symBinAddr: 0x11A260, symSize: 0x1F0 }
  - { offset: 0x6A9ECF, size: 0x8, addend: 0x0, symName: __ZNKSt3__16vectorINS_9sub_matchIPKwEENS_9allocatorIS4_EEE20__throw_length_errorB8ne180100Ev, symObjAddr: 0x1A550, symBinAddr: 0x110180, symSize: 0x10 }
  - { offset: 0x6A9EF9, size: 0x8, addend: 0x0, symName: __ZNSt3__17__stateIwED1Ev, symObjAddr: 0x1A560, symBinAddr: 0x110190, symSize: 0x40 }
  - { offset: 0x6A9F4A, size: 0x8, addend: 0x0, symName: __ZNKSt3__112basic_stringIwNS_11char_traitsIwEENS_9allocatorIwEEE20__throw_length_errorB8ne180100Ev, symObjAddr: 0x17E20, symBinAddr: 0x10DA50, symSize: 0x10 }
  - { offset: 0x6A9F74, size: 0x8, addend: 0x0, symName: __ZNSt11range_errorC1B8ne180100EPKc, symObjAddr: 0x17E30, symBinAddr: 0x10DA60, symSize: 0x30 }
  - { offset: 0x6A9FBD, size: 0x8, addend: 0x0, symName: __ZNSt3__14pairIKNS_12basic_stringIcNS_11char_traitsIcEENS_9allocatorIcEEEEiEC1B8ne180100IRA6_KcN17unicode_cpt_flagsUt_ELi0EEEOT_OT0_, symObjAddr: 0x9060, symBinAddr: 0x10BA10, symSize: 0xC0 }
  - { offset: 0x6AA46C, size: 0x8, addend: 0x0, symName: __ZNSt3__13mapINS_12basic_stringIcNS_11char_traitsIcEENS_9allocatorIcEEEEiNS_4lessIS6_EENS4_INS_4pairIKS6_iEEEEEC1B8ne180100ESt16initializer_listISB_ERKS8_, symObjAddr: 0x9120, symBinAddr: 0x10BAD0, symSize: 0x70 }
  - { offset: 0x6AA69D, size: 0x8, addend: 0x0, symName: __ZNSt3__13mapIiiNS_4lessIiEENS_9allocatorINS_4pairIKiiEEEEEC2B8ne180100ESt16initializer_listIS6_ERKS2_, symObjAddr: 0x24F80, symBinAddr: 0x11A9B0, symSize: 0x170 }
  - { offset: 0x6AAC04, size: 0x8, addend: 0x0, symName: __ZNSt3__14pairIKiNS_12basic_stringIcNS_11char_traitsIcEENS_9allocatorIcEEEEEC1B8ne180100IN17unicode_cpt_flagsUt_ERA4_KcLi0EEEOT_OT0_, symObjAddr: 0x91B0, symBinAddr: 0x10BB60, symSize: 0xA0 }
  - { offset: 0x6AB0B3, size: 0x8, addend: 0x0, symName: __ZNSt3__14pairIKiNS_12basic_stringIcNS_11char_traitsIcEENS_9allocatorIcEEEEEC1B8ne180100IN17unicode_cpt_flagsUt_ERA7_KcLi0EEEOT_OT0_, symObjAddr: 0x9250, symBinAddr: 0x10BC00, symSize: 0xA0 }
  - { offset: 0x6AB562, size: 0x8, addend: 0x0, symName: __ZNSt3__14pairIKiNS_12basic_stringIcNS_11char_traitsIcEENS_9allocatorIcEEEEEC1B8ne180100IN17unicode_cpt_flagsUt_ERA26_KcLi0EEEOT_OT0_, symObjAddr: 0x92F0, symBinAddr: 0x10BCA0, symSize: 0xA0 }
  - { offset: 0x6ABA11, size: 0x8, addend: 0x0, symName: __ZNSt3__14pairIKiNS_12basic_stringIcNS_11char_traitsIcEENS_9allocatorIcEEEEEC1B8ne180100IN17unicode_cpt_flagsUt_ERA1_KcLi0EEEOT_OT0_, symObjAddr: 0x9390, symBinAddr: 0x10BD40, symSize: 0xA0 }
  - { offset: 0x6ABEC0, size: 0x8, addend: 0x0, symName: __ZNSt3__14pairIKiNS_12basic_stringIcNS_11char_traitsIcEENS_9allocatorIcEEEEEC1B8ne180100IN17unicode_cpt_flagsUt_ERA12_KcLi0EEEOT_OT0_, symObjAddr: 0x9430, symBinAddr: 0x10BDE0, symSize: 0xA0 }
  - { offset: 0x6AC359, size: 0x8, addend: 0x0, symName: __ZNSt3__13mapIiNS_12basic_stringIcNS_11char_traitsIcEENS_9allocatorIcEEEENS_4lessIiEENS4_INS_4pairIKiS6_EEEEEC1B8ne180100ESt16initializer_listISB_ERKS8_, symObjAddr: 0x94D0, symBinAddr: 0x10BE80, symSize: 0x70 }
  - { offset: 0x6AC58A, size: 0x8, addend: 0x0, symName: __ZNSt3__115wstring_convertINS_12codecvt_utf8IwLm1114111ELNS_12codecvt_modeE0EEEwNS_9allocatorIwEENS4_IcEEED1Ev, symObjAddr: 0x17700, symBinAddr: 0x10D330, symSize: 0x50 }
  - { offset: 0x6AC9FB, size: 0x8, addend: 0x0, symName: __ZNSt3__111basic_regexIwNS_12regex_traitsIwEEED1Ev, symObjAddr: 0x17F10, symBinAddr: 0x10DB40, symSize: 0x50 }
  - { offset: 0x6AD0D6, size: 0x8, addend: 0x0, symName: __ZNSt3__16__treeINS_12__value_typeINS_12basic_stringIcNS_11char_traitsIcEENS_9allocatorIcEEEEiEENS_19__map_value_compareIS7_S8_NS_4lessIS7_EELb1EEENS5_IS8_EEE30__emplace_hint_unique_key_argsIS7_JRKNS_4pairIKS7_iEEEEENSG_INS_15__tree_iteratorIS8_PNS_11__tree_nodeIS8_PvEElEEbEENS_21__tree_const_iteratorIS8_SP_lEERKT_DpOT0_, symObjAddr: 0x248C0, symBinAddr: 0x11A450, symSize: 0xE0 }
  - { offset: 0x6AD533, size: 0x8, addend: 0x0, symName: __ZNSt3__16__treeINS_12__value_typeINS_12basic_stringIcNS_11char_traitsIcEENS_9allocatorIcEEEEiEENS_19__map_value_compareIS7_S8_NS_4lessIS7_EELb1EEENS5_IS8_EEE7destroyEPNS_11__tree_nodeIS8_PvEE, symObjAddr: 0x24F30, symBinAddr: 0x11A960, symSize: 0x50 }
  - { offset: 0x6AD815, size: 0x8, addend: 0x0, symName: __ZNSt3__13mapINS_12basic_stringIcNS_11char_traitsIcEENS_9allocatorIcEEEEiNS_4lessIS6_EENS4_INS_4pairIKS6_iEEEEED1B8ne180100Ev, symObjAddr: 0x9190, symBinAddr: 0x10BB40, symSize: 0x10 }
  - { offset: 0x6AD91A, size: 0x8, addend: 0x0, symName: __ZNSt3__13mapIiiNS_4lessIiEENS_9allocatorINS_4pairIKiiEEEEED1B8ne180100Ev, symObjAddr: 0x91A0, symBinAddr: 0x10BB50, symSize: 0x10 }
  - { offset: 0x6ADDE0, size: 0x8, addend: 0x0, symName: __ZNSt3__16__treeINS_12__value_typeIiNS_12basic_stringIcNS_11char_traitsIcEENS_9allocatorIcEEEEEENS_19__map_value_compareIiS8_NS_4lessIiEELb1EEENS5_IS8_EEE30__emplace_hint_unique_key_argsIiJRKNS_4pairIKiS7_EEEEENSG_INS_15__tree_iteratorIS8_PNS_11__tree_nodeIS8_PvEElEEbEENS_21__tree_const_iteratorIS8_SP_lEERKT_DpOT0_, symObjAddr: 0x25130, symBinAddr: 0x11AB20, symSize: 0xE0 }
  - { offset: 0x6AE3F0, size: 0x8, addend: 0x0, symName: __ZNSt3__13mapIiNS_12basic_stringIcNS_11char_traitsIcEENS_9allocatorIcEEEENS_4lessIiEENS4_INS_4pairIKiS6_EEEEED1B8ne180100Ev, symObjAddr: 0x9540, symBinAddr: 0x10BEF0, symSize: 0x10 }
  - { offset: 0x6AEECD, size: 0x8, addend: 0x0, symName: __ZNSt3__112__hash_tableINS_17__hash_value_typeIhNS_12basic_stringIcNS_11char_traitsIcEENS_9allocatorIcEEEEEENS_22__unordered_map_hasherIhS8_NS_4hashIhEENS_8equal_toIhEELb1EEENS_21__unordered_map_equalIhS8_SD_SB_Lb1EEENS5_IS8_EEE11__do_rehashILb1EEEvm, symObjAddr: 0x9D80, symBinAddr: 0x10C600, symSize: 0x210 }
  - { offset: 0x6AF349, size: 0x8, addend: 0x0, symName: __ZNSt3__110unique_ptrINS_11__hash_nodeINS_17__hash_value_typeIhNS_12basic_stringIcNS_11char_traitsIcEENS_9allocatorIcEEEEEEPvEENS_22__hash_node_destructorINS6_ISB_EEEEED1B8ne180100Ev, symObjAddr: 0x9D40, symBinAddr: 0x10C5C0, symSize: 0x40 }
  - { offset: 0x6B03AC, size: 0x8, addend: 0x0, symName: __ZNSt3__112__hash_tableINS_17__hash_value_typeINS_12basic_stringIcNS_11char_traitsIcEENS_9allocatorIcEEEEhEENS_22__unordered_map_hasherIS7_S8_NS_4hashIS7_EENS_8equal_toIS7_EELb1EEENS_21__unordered_map_equalIS7_S8_SD_SB_Lb1EEENS5_IS8_EEE11__do_rehashILb1EEEvm, symObjAddr: 0xAA70, symBinAddr: 0x10CE50, symSize: 0x210 }
  - { offset: 0x6B0828, size: 0x8, addend: 0x0, symName: __ZNSt3__110unique_ptrINS_11__hash_nodeINS_17__hash_value_typeINS_12basic_stringIcNS_11char_traitsIcEENS_9allocatorIcEEEEhEEPvEENS_22__hash_node_destructorINS6_ISB_EEEEED1B8ne180100Ev, symObjAddr: 0xA590, symBinAddr: 0x10CE10, symSize: 0x40 }
  - { offset: 0x6C8263, size: 0x8, addend: 0x0, symName: __ZNSt3__112codecvt_utf8IwLm1114111ELNS_12codecvt_modeE0EED1B8ne180100Ev, symObjAddr: 0x17750, symBinAddr: 0x10D380, symSize: 0x10 }
  - { offset: 0x6C82D5, size: 0x8, addend: 0x0, symName: __ZNSt3__112codecvt_utf8IwLm1114111ELNS_12codecvt_modeE0EED0B8ne180100Ev, symObjAddr: 0x17760, symBinAddr: 0x10D390, symSize: 0x20 }
  - { offset: 0x6C8579, size: 0x8, addend: 0x0, symName: __ZNSt3__112basic_stringIwNS_11char_traitsIwEENS_9allocatorIwEEE6appendB8ne180100IPKwLi0EEERS5_T_SA_, symObjAddr: 0x17B30, symBinAddr: 0x10D760, symSize: 0x2A0 }
  - { offset: 0x6C8ED8, size: 0x8, addend: 0x0, symName: __ZNSt3__112basic_stringIwNS_11char_traitsIwEENS_9allocatorIwEEE25__init_copy_ctor_externalEPKwm, symObjAddr: 0x17E60, symBinAddr: 0x10DA90, symSize: 0xB0 }
  - { offset: 0x6C9547, size: 0x8, addend: 0x0, symName: __ZNSt11range_errorC1B8ne180100EPKc, symObjAddr: 0x17E30, symBinAddr: 0x10DA60, symSize: 0x30 }
  - { offset: 0x6C9734, size: 0x8, addend: 0x0, symName: __ZNSt3__111basic_regexIwNS_12regex_traitsIwEEE7__parseINS_11__wrap_iterIPKwEEEET_S9_S9_, symObjAddr: 0x18070, symBinAddr: 0x10DCA0, symSize: 0x1D0 }
  - { offset: 0x6C9CB1, size: 0x8, addend: 0x0, symName: __ZNSt3__110shared_ptrINS_13__empty_stateIwEEED1B8ne180100Ev, symObjAddr: 0x18030, symBinAddr: 0x10DC60, symSize: 0x40 }
  - { offset: 0x6CA3C7, size: 0x8, addend: 0x0, symName: __ZNSt3__111basic_regexIwNS_12regex_traitsIwEEE13__parse_egrepINS_11__wrap_iterIPKwEEEET_S9_S9_, symObjAddr: 0x18980, symBinAddr: 0x10E5B0, symSize: 0x1F0 }
  - { offset: 0x6CAA28, size: 0x8, addend: 0x0, symName: __ZNSt3__111basic_regexIwNS_12regex_traitsIwEEE24__parse_extended_reg_expINS_11__wrap_iterIPKwEEEET_S9_S9_, symObjAddr: 0x18600, symBinAddr: 0x10E230, symSize: 0x190 }
  - { offset: 0x6CAE87, size: 0x8, addend: 0x0, symName: __ZNSt3__111basic_regexIwNS_12regex_traitsIwEEE16__parse_ecma_expINS_11__wrap_iterIPKwEEEET_S9_S9_, symObjAddr: 0x18240, symBinAddr: 0x10DE70, symSize: 0x270 }
  - { offset: 0x6CB55E, size: 0x8, addend: 0x0, symName: __ZNSt3__111basic_regexIwNS_12regex_traitsIwEEE21__parse_basic_reg_expINS_11__wrap_iterIPKwEEEET_S9_S9_, symObjAddr: 0x184B0, symBinAddr: 0x10E0E0, symSize: 0x150 }
  - { offset: 0x6CB98C, size: 0x8, addend: 0x0, symName: __ZNSt3__111basic_regexIwNS_12regex_traitsIwEEE12__parse_grepINS_11__wrap_iterIPKwEEEET_S9_S9_, symObjAddr: 0x18790, symBinAddr: 0x10E3C0, symSize: 0x1F0 }
  - { offset: 0x6CC228, size: 0x8, addend: 0x0, symName: __ZNSt3__111basic_regexIwNS_12regex_traitsIwEEE17__parse_assertionINS_11__wrap_iterIPKwEEEET_S9_S9_, symObjAddr: 0x18D40, symBinAddr: 0x10E970, symSize: 0x290 }
  - { offset: 0x6CC984, size: 0x8, addend: 0x0, symName: __ZNSt3__111basic_regexIwNS_12regex_traitsIwEEE12__parse_atomINS_11__wrap_iterIPKwEEEET_S9_S9_, symObjAddr: 0x18FD0, symBinAddr: 0x10EC00, symSize: 0x2E0 }
  - { offset: 0x6CCE16, size: 0x8, addend: 0x0, symName: __ZNSt3__111basic_regexIwNS_12regex_traitsIwEEE23__parse_ERE_dupl_symbolINS_11__wrap_iterIPKwEEEET_S9_S9_PNS_16__owns_one_stateIwEEjj, symObjAddr: 0x192B0, symBinAddr: 0x10EEE0, symSize: 0x450 }
  - { offset: 0x6CD69A, size: 0x8, addend: 0x0, symName: __ZNSt3__111basic_regexIwNS_12regex_traitsIwEEEC1B8ne180100Ev, symObjAddr: 0x19700, symBinAddr: 0x10F330, symSize: 0x60 }
  - { offset: 0x6CD8BA, size: 0x8, addend: 0x0, symName: __ZNSt3__111basic_regexIwNS_12regex_traitsIwEEE18__parse_nondupl_REINS_11__wrap_iterIPKwEEEET_S9_S9_, symObjAddr: 0x20F20, symBinAddr: 0x116B50, symSize: 0x1D0 }
  - { offset: 0x6CDF77, size: 0x8, addend: 0x0, symName: __ZNSt3__111basic_regexIwNS_12regex_traitsIwEEE22__parse_RE_dupl_symbolINS_11__wrap_iterIPKwEEEET_S9_S9_PNS_16__owns_one_stateIwEEjj, symObjAddr: 0x210F0, symBinAddr: 0x116D20, symSize: 0x2B0 }
  - { offset: 0x6CE8A3, size: 0x8, addend: 0x0, symName: __ZNSt3__111basic_regexIwNS_12regex_traitsIwEEE22__parse_ERE_expressionINS_11__wrap_iterIPKwEEEET_S9_S9_, symObjAddr: 0x21590, symBinAddr: 0x1171C0, symSize: 0x260 }
  - { offset: 0x6CEE22, size: 0x8, addend: 0x0, symName: __ZNSt3__111__end_stateIwED1Ev, symObjAddr: 0x18B70, symBinAddr: 0x10E7A0, symSize: 0x10 }
  - { offset: 0x6CEE4E, size: 0x8, addend: 0x0, symName: __ZNSt3__111__end_stateIwED0Ev, symObjAddr: 0x18B80, symBinAddr: 0x10E7B0, symSize: 0x10 }
  - { offset: 0x6CEE6E, size: 0x8, addend: 0x0, symName: __ZNKSt3__111__end_stateIwE6__execERNS_7__stateIwEE, symObjAddr: 0x18B90, symBinAddr: 0x10E7C0, symSize: 0x10 }
  - { offset: 0x6CEEA4, size: 0x8, addend: 0x0, symName: __ZNKSt3__16__nodeIwE12__exec_splitEbRNS_7__stateIwEE, symObjAddr: 0x18BA0, symBinAddr: 0x10E7D0, symSize: 0x10 }
  - { offset: 0x6CEEEB, size: 0x8, addend: 0x0, symName: __ZNKSt3__16__nodeIwE6__execERNS_7__stateIwEE, symObjAddr: 0x18BB0, symBinAddr: 0x10E7E0, symSize: 0x10 }
  - { offset: 0x6CEF37, size: 0x8, addend: 0x0, symName: __ZNSt3__120__shared_ptr_pointerIPNS_13__empty_stateIwEENS_10shared_ptrIS2_E27__shared_ptr_default_deleteIS2_S2_EENS_9allocatorIS2_EEED1Ev, symObjAddr: 0x18BC0, symBinAddr: 0x10E7F0, symSize: 0x10 }
  - { offset: 0x6CEF8F, size: 0x8, addend: 0x0, symName: __ZNSt3__120__shared_ptr_pointerIPNS_13__empty_stateIwEENS_10shared_ptrIS2_E27__shared_ptr_default_deleteIS2_S2_EENS_9allocatorIS2_EEED0Ev, symObjAddr: 0x18BD0, symBinAddr: 0x10E800, symSize: 0x20 }
  - { offset: 0x6CEFF4, size: 0x8, addend: 0x0, symName: __ZNSt3__120__shared_ptr_pointerIPNS_13__empty_stateIwEENS_10shared_ptrIS2_E27__shared_ptr_default_deleteIS2_S2_EENS_9allocatorIS2_EEE16__on_zero_sharedEv, symObjAddr: 0x18BF0, symBinAddr: 0x10E820, symSize: 0x20 }
  - { offset: 0x6CF044, size: 0x8, addend: 0x0, symName: __ZNKSt3__120__shared_ptr_pointerIPNS_13__empty_stateIwEENS_10shared_ptrIS2_E27__shared_ptr_default_deleteIS2_S2_EENS_9allocatorIS2_EEE13__get_deleterERKSt9type_info, symObjAddr: 0x18C10, symBinAddr: 0x10E840, symSize: 0x20 }
  - { offset: 0x6CF105, size: 0x8, addend: 0x0, symName: __ZNSt3__120__shared_ptr_pointerIPNS_13__empty_stateIwEENS_10shared_ptrIS2_E27__shared_ptr_default_deleteIS2_S2_EENS_9allocatorIS2_EEE21__on_zero_shared_weakEv, symObjAddr: 0x18C30, symBinAddr: 0x10E860, symSize: 0x10 }
  - { offset: 0x6CF1D5, size: 0x8, addend: 0x0, symName: __ZNSt3__113__empty_stateIwED1Ev, symObjAddr: 0x18C40, symBinAddr: 0x10E870, symSize: 0x30 }
  - { offset: 0x6CF241, size: 0x8, addend: 0x0, symName: __ZNSt3__113__empty_stateIwED0Ev, symObjAddr: 0x18C70, symBinAddr: 0x10E8A0, symSize: 0x40 }
  - { offset: 0x6CF2E1, size: 0x8, addend: 0x0, symName: __ZNKSt3__113__empty_stateIwE6__execERNS_7__stateIwEE, symObjAddr: 0x18CB0, symBinAddr: 0x10E8E0, symSize: 0x20 }
  - { offset: 0x6CF334, size: 0x8, addend: 0x0, symName: __ZNSt3__116__owns_one_stateIwED1Ev, symObjAddr: 0x18CD0, symBinAddr: 0x10E900, symSize: 0x30 }
  - { offset: 0x6CF39D, size: 0x8, addend: 0x0, symName: __ZNSt3__116__owns_one_stateIwED0Ev, symObjAddr: 0x18D00, symBinAddr: 0x10E930, symSize: 0x40 }
  - { offset: 0x6CF50D, size: 0x8, addend: 0x0, symName: __ZNSt3__111basic_regexIwNS_12regex_traitsIwEEEC1B8ne180100Ev, symObjAddr: 0x19700, symBinAddr: 0x10F330, symSize: 0x60 }
  - { offset: 0x6CF5D4, size: 0x8, addend: 0x0, symName: __ZNSt3__111basic_regexIwNS_12regex_traitsIwEEE16__push_lookaheadERKS3_bj, symObjAddr: 0x19760, symBinAddr: 0x10F390, symSize: 0xC0 }
  - { offset: 0x6CF9BF, size: 0x8, addend: 0x0, symName: __ZNSt3__111basic_regexIwNS_12regex_traitsIwEEE26__parse_bracket_expressionINS_11__wrap_iterIPKwEEEET_S9_S9_, symObjAddr: 0x1AE60, symBinAddr: 0x110A90, symSize: 0x150 }
  - { offset: 0x6CFCCE, size: 0x8, addend: 0x0, symName: __ZNSt3__111basic_regexIwNS_12regex_traitsIwEEE19__parse_atom_escapeINS_11__wrap_iterIPKwEEEET_S9_S9_, symObjAddr: 0x1AD50, symBinAddr: 0x110980, symSize: 0x110 }
  - { offset: 0x6CFF8F, size: 0x8, addend: 0x0, symName: __ZNSt3__111basic_regexIwNS_12regex_traitsIwEEE25__parse_pattern_characterINS_11__wrap_iterIPKwEEEET_S9_S9_, symObjAddr: 0x1AFB0, symBinAddr: 0x110BE0, symSize: 0x1B0 }
  - { offset: 0x6D01C3, size: 0x8, addend: 0x0, symName: __ZNSt3__111basic_regexIwNS_12regex_traitsIwEEE11__push_loopEmmPNS_16__owns_one_stateIwEEmmb, symObjAddr: 0x20890, symBinAddr: 0x1164C0, symSize: 0x140 }
  - { offset: 0x6D079A, size: 0x8, addend: 0x0, symName: __ZNSt3__120__l_anchor_multilineIwED1Ev, symObjAddr: 0x19820, symBinAddr: 0x10F450, symSize: 0x30 }
  - { offset: 0x6D0823, size: 0x8, addend: 0x0, symName: __ZNSt3__120__l_anchor_multilineIwED0Ev, symObjAddr: 0x19850, symBinAddr: 0x10F480, symSize: 0x40 }
  - { offset: 0x6D08B4, size: 0x8, addend: 0x0, symName: __ZNKSt3__120__l_anchor_multilineIwE6__execERNS_7__stateIwEE, symObjAddr: 0x19890, symBinAddr: 0x10F4C0, symSize: 0x60 }
  - { offset: 0x6D091B, size: 0x8, addend: 0x0, symName: __ZNSt3__120__r_anchor_multilineIwED1Ev, symObjAddr: 0x198F0, symBinAddr: 0x10F520, symSize: 0x30 }
  - { offset: 0x6D09A4, size: 0x8, addend: 0x0, symName: __ZNSt3__120__r_anchor_multilineIwED0Ev, symObjAddr: 0x19920, symBinAddr: 0x10F550, symSize: 0x40 }
  - { offset: 0x6D0A35, size: 0x8, addend: 0x0, symName: __ZNKSt3__120__r_anchor_multilineIwE6__execERNS_7__stateIwEE, symObjAddr: 0x19960, symBinAddr: 0x10F590, symSize: 0x50 }
  - { offset: 0x6D0A9C, size: 0x8, addend: 0x0, symName: __ZNSt3__115__word_boundaryIwNS_12regex_traitsIwEEED1Ev, symObjAddr: 0x199B0, symBinAddr: 0x10F5E0, symSize: 0x50 }
  - { offset: 0x6D0B5F, size: 0x8, addend: 0x0, symName: __ZNSt3__115__word_boundaryIwNS_12regex_traitsIwEEED0Ev, symObjAddr: 0x19A00, symBinAddr: 0x10F630, symSize: 0x50 }
  - { offset: 0x6D0C88, size: 0x8, addend: 0x0, symName: __ZNKSt3__115__word_boundaryIwNS_12regex_traitsIwEEE6__execERNS_7__stateIwEE, symObjAddr: 0x19A50, symBinAddr: 0x10F680, symSize: 0x120 }
  - { offset: 0x6D0EC0, size: 0x8, addend: 0x0, symName: __ZNSt3__111__lookaheadIwNS_12regex_traitsIwEEED1Ev, symObjAddr: 0x19B70, symBinAddr: 0x10F7A0, symSize: 0x90 }
  - { offset: 0x6D1065, size: 0x8, addend: 0x0, symName: __ZNSt3__111__lookaheadIwNS_12regex_traitsIwEEED0Ev, symObjAddr: 0x19C00, symBinAddr: 0x10F830, symSize: 0x90 }
  - { offset: 0x6D12D4, size: 0x8, addend: 0x0, symName: __ZNKSt3__111__lookaheadIwNS_12regex_traitsIwEEE6__execERNS_7__stateIwEE, symObjAddr: 0x19C90, symBinAddr: 0x10F8C0, symSize: 0x1A0 }
  - { offset: 0x6D1863, size: 0x8, addend: 0x0, symName: __ZNSt3__16vectorINS_9sub_matchIPKwEENS_9allocatorIS4_EEE6assignEmRKS4_, symObjAddr: 0x1A320, symBinAddr: 0x10FF50, symSize: 0x230 }
  - { offset: 0x6D1E83, size: 0x8, addend: 0x0, symName: __ZNKSt3__111basic_regexIwNS_12regex_traitsIwEEE21__match_at_start_ecmaINS_9allocatorINS_9sub_matchIPKwEEEEEEbS8_S8_RNS_13match_resultsIS8_T_EENS_15regex_constants15match_flag_typeEb, symObjAddr: 0x19E30, symBinAddr: 0x10FA60, symSize: 0x4F0 }
  - { offset: 0x6D36CE, size: 0x8, addend: 0x0, symName: __ZNSt3__16vectorINS_7__stateIwEENS_9allocatorIS2_EEE21__push_back_slow_pathIS2_EEPS2_OT_, symObjAddr: 0x1A620, symBinAddr: 0x110250, symSize: 0x240 }
  - { offset: 0x6D3FEC, size: 0x8, addend: 0x0, symName: __ZNSt3__16vectorINS_9sub_matchIPKwEENS_9allocatorIS4_EEE8__appendEmRKS4_, symObjAddr: 0x1A870, symBinAddr: 0x1104A0, symSize: 0x1C0 }
  - { offset: 0x6D457D, size: 0x8, addend: 0x0, symName: __ZNSt3__16vectorINS_4pairImPKwEENS_9allocatorIS4_EEE8__appendEm, symObjAddr: 0x1AA30, symBinAddr: 0x110660, symSize: 0x150 }
  - { offset: 0x6D4AE6, size: 0x8, addend: 0x0, symName: __ZNSt3__17__stateIwEC2ERKS1_, symObjAddr: 0x1AB90, symBinAddr: 0x1107C0, symSize: 0x1C0 }
  - { offset: 0x6D511E, size: 0x8, addend: 0x0, symName: __ZNSt3__17__stateIwED1Ev, symObjAddr: 0x1A560, symBinAddr: 0x110190, symSize: 0x40 }
  - { offset: 0x6D53A7, size: 0x8, addend: 0x0, symName: __ZNSt3__16vectorINS_7__stateIwEENS_9allocatorIS2_EEED1B8ne180100Ev, symObjAddr: 0x1A5A0, symBinAddr: 0x1101D0, symSize: 0x80 }
  - { offset: 0x6D5B83, size: 0x8, addend: 0x0, symName: __ZNKSt3__16vectorINS_7__stateIwEENS_9allocatorIS2_EEE20__throw_length_errorB8ne180100Ev, symObjAddr: 0x1A860, symBinAddr: 0x110490, symSize: 0x10 }
  - { offset: 0x6D5BAD, size: 0x8, addend: 0x0, symName: __ZNSt3__16vectorINS_9sub_matchIPKwEENS_9allocatorIS4_EEE8__appendEmRKS4_, symObjAddr: 0x1A870, symBinAddr: 0x1104A0, symSize: 0x1C0 }
  - { offset: 0x6D61DA, size: 0x8, addend: 0x0, symName: __ZNKSt3__16vectorINS_4pairImPKwEENS_9allocatorIS4_EEE20__throw_length_errorB8ne180100Ev, symObjAddr: 0x1AB80, symBinAddr: 0x1107B0, symSize: 0x10 }
  - { offset: 0x6D6204, size: 0x8, addend: 0x0, symName: __ZNSt3__17__stateIwEC2ERKS1_, symObjAddr: 0x1AB90, symBinAddr: 0x1107C0, symSize: 0x1C0 }
  - { offset: 0x6D6477, size: 0x8, addend: 0x0, symName: __ZNSt3__111basic_regexIwNS_12regex_traitsIwEEE11__push_charEw, symObjAddr: 0x1B910, symBinAddr: 0x111540, symSize: 0x140 }
  - { offset: 0x6D681E, size: 0x8, addend: 0x0, symName: __ZNSt3__111basic_regexIwNS_12regex_traitsIwEEE15__push_back_refEi, symObjAddr: 0x1BA50, symBinAddr: 0x111680, symSize: 0xD0 }
  - { offset: 0x6D6A73, size: 0x8, addend: 0x0, symName: __ZNSt3__111basic_regexIwNS_12regex_traitsIwEEE30__parse_character_class_escapeINS_11__wrap_iterIPKwEEEET_S9_S9_, symObjAddr: 0x1B1D0, symBinAddr: 0x110E00, symSize: 0x2E0 }
  - { offset: 0x6D6FCF, size: 0x8, addend: 0x0, symName: __ZNSt3__111basic_regexIwNS_12regex_traitsIwEEE24__parse_character_escapeINS_11__wrap_iterIPKwEEEET_S9_S9_PNS_12basic_stringIwNS_11char_traitsIwEENS_9allocatorIwEEEE, symObjAddr: 0x1B4B0, symBinAddr: 0x1110E0, symSize: 0x460 }
  - { offset: 0x6D7754, size: 0x8, addend: 0x0, symName: __ZNSt3__120__bracket_expressionIwNS_12regex_traitsIwEEEC2B8ne180100ERKS2_PNS_6__nodeIwEEbbb, symObjAddr: 0x1C670, symBinAddr: 0x1122A0, symSize: 0x1A0 }
  - { offset: 0x6D7E7E, size: 0x8, addend: 0x0, symName: __ZNSt3__120__bracket_expressionIwNS_12regex_traitsIwEEE10__add_charB8ne180100Ew, symObjAddr: 0x1C190, symBinAddr: 0x111DC0, symSize: 0x4E0 }
  - { offset: 0x6D8A23, size: 0x8, addend: 0x0, symName: __ZNSt3__111basic_regexIwNS_12regex_traitsIwEEE23__parse_expression_termINS_11__wrap_iterIPKwEEEET_S9_S9_PNS_20__bracket_expressionIwS2_EE, symObjAddr: 0x1DD30, symBinAddr: 0x113960, symSize: 0x440 }
  - { offset: 0x6D9ABB, size: 0x8, addend: 0x0, symName: __ZNSt3__123__match_any_but_newlineIwED1Ev, symObjAddr: 0x1B160, symBinAddr: 0x110D90, symSize: 0x30 }
  - { offset: 0x6D9B44, size: 0x8, addend: 0x0, symName: __ZNSt3__123__match_any_but_newlineIwED0Ev, symObjAddr: 0x1B190, symBinAddr: 0x110DC0, symSize: 0x40 }
  - { offset: 0x6D9FDC, size: 0x8, addend: 0x0, symName: __ZNSt3__118__match_char_icaseIwNS_12regex_traitsIwEEED1Ev, symObjAddr: 0x1BB20, symBinAddr: 0x111750, symSize: 0x50 }
  - { offset: 0x6DA09F, size: 0x8, addend: 0x0, symName: __ZNSt3__118__match_char_icaseIwNS_12regex_traitsIwEEED0Ev, symObjAddr: 0x1BB70, symBinAddr: 0x1117A0, symSize: 0x50 }
  - { offset: 0x6DA16A, size: 0x8, addend: 0x0, symName: __ZNKSt3__118__match_char_icaseIwNS_12regex_traitsIwEEE6__execERNS_7__stateIwEE, symObjAddr: 0x1BBC0, symBinAddr: 0x1117F0, symSize: 0x50 }
  - { offset: 0x6DA234, size: 0x8, addend: 0x0, symName: __ZNSt3__120__match_char_collateIwNS_12regex_traitsIwEEED1Ev, symObjAddr: 0x1BC10, symBinAddr: 0x111840, symSize: 0x50 }
  - { offset: 0x6DA2F7, size: 0x8, addend: 0x0, symName: __ZNSt3__120__match_char_collateIwNS_12regex_traitsIwEEED0Ev, symObjAddr: 0x1BC60, symBinAddr: 0x111890, symSize: 0x50 }
  - { offset: 0x6DA3C2, size: 0x8, addend: 0x0, symName: __ZNKSt3__120__match_char_collateIwNS_12regex_traitsIwEEE6__execERNS_7__stateIwEE, symObjAddr: 0x1BCB0, symBinAddr: 0x1118E0, symSize: 0x40 }
  - { offset: 0x6DA432, size: 0x8, addend: 0x0, symName: __ZNSt3__112__match_charIwED1Ev, symObjAddr: 0x1BCF0, symBinAddr: 0x111920, symSize: 0x30 }
  - { offset: 0x6DA4BB, size: 0x8, addend: 0x0, symName: __ZNSt3__112__match_charIwED0Ev, symObjAddr: 0x1BD20, symBinAddr: 0x111950, symSize: 0x40 }
  - { offset: 0x6DA54C, size: 0x8, addend: 0x0, symName: __ZNKSt3__112__match_charIwE6__execERNS_7__stateIwEE, symObjAddr: 0x1BD60, symBinAddr: 0x111990, symSize: 0x40 }
  - { offset: 0x6DA5BC, size: 0x8, addend: 0x0, symName: __ZNSt3__116__back_ref_icaseIwNS_12regex_traitsIwEEED1Ev, symObjAddr: 0x1BDA0, symBinAddr: 0x1119D0, symSize: 0x50 }
  - { offset: 0x6DA67F, size: 0x8, addend: 0x0, symName: __ZNSt3__116__back_ref_icaseIwNS_12regex_traitsIwEEED0Ev, symObjAddr: 0x1BDF0, symBinAddr: 0x111A20, symSize: 0x50 }
  - { offset: 0x6DA74A, size: 0x8, addend: 0x0, symName: __ZNKSt3__116__back_ref_icaseIwNS_12regex_traitsIwEEE6__execERNS_7__stateIwEE, symObjAddr: 0x1BE40, symBinAddr: 0x111A70, symSize: 0xF0 }
  - { offset: 0x6DA8DE, size: 0x8, addend: 0x0, symName: __ZNSt3__118__back_ref_collateIwNS_12regex_traitsIwEEED1Ev, symObjAddr: 0x1BF30, symBinAddr: 0x111B60, symSize: 0x50 }
  - { offset: 0x6DA9A1, size: 0x8, addend: 0x0, symName: __ZNSt3__118__back_ref_collateIwNS_12regex_traitsIwEEED0Ev, symObjAddr: 0x1BF80, symBinAddr: 0x111BB0, symSize: 0x50 }
  - { offset: 0x6DAA6C, size: 0x8, addend: 0x0, symName: __ZNKSt3__118__back_ref_collateIwNS_12regex_traitsIwEEE6__execERNS_7__stateIwEE, symObjAddr: 0x1BFD0, symBinAddr: 0x111C00, symSize: 0xA0 }
  - { offset: 0x6DAB4A, size: 0x8, addend: 0x0, symName: __ZNSt3__110__back_refIwED1Ev, symObjAddr: 0x1C070, symBinAddr: 0x111CA0, symSize: 0x30 }
  - { offset: 0x6DABD3, size: 0x8, addend: 0x0, symName: __ZNSt3__110__back_refIwED0Ev, symObjAddr: 0x1C0A0, symBinAddr: 0x111CD0, symSize: 0x40 }
  - { offset: 0x6DAC64, size: 0x8, addend: 0x0, symName: __ZNKSt3__110__back_refIwE6__execERNS_7__stateIwEE, symObjAddr: 0x1C0E0, symBinAddr: 0x111D10, symSize: 0xB0 }
  - { offset: 0x6DB22B, size: 0x8, addend: 0x0, symName: __ZNKSt3__16vectorIwNS_9allocatorIwEEE20__throw_length_errorB8ne180100Ev, symObjAddr: 0x1DD20, symBinAddr: 0x113950, symSize: 0x10 }
  - { offset: 0x6DB255, size: 0x8, addend: 0x0, symName: __ZNSt3__111basic_regexIwNS_12regex_traitsIwEEE23__parse_expression_termINS_11__wrap_iterIPKwEEEET_S9_S9_PNS_20__bracket_expressionIwS2_EE, symObjAddr: 0x1DD30, symBinAddr: 0x113960, symSize: 0x440 }
  - { offset: 0x6DB432, size: 0x8, addend: 0x0, symName: __ZNSt3__16vectorINS_12basic_stringIwNS_11char_traitsIwEENS_9allocatorIwEEEENS4_IS6_EEED1B8ne180100Ev, symObjAddr: 0x1C810, symBinAddr: 0x112440, symSize: 0x70 }
  - { offset: 0x6DB69A, size: 0x8, addend: 0x0, symName: __ZNSt3__16vectorINS_4pairINS_12basic_stringIwNS_11char_traitsIwEENS_9allocatorIwEEEES7_EENS5_IS8_EEED1B8ne180100Ev, symObjAddr: 0x1C880, symBinAddr: 0x1124B0, symSize: 0x90 }
  - { offset: 0x6DBCAF, size: 0x8, addend: 0x0, symName: __ZNSt3__120__bracket_expressionIwNS_12regex_traitsIwEEED1Ev, symObjAddr: 0x1C910, symBinAddr: 0x112540, symSize: 0x10 }
  - { offset: 0x6DBCE5, size: 0x8, addend: 0x0, symName: __ZNSt3__120__bracket_expressionIwNS_12regex_traitsIwEEED2Ev, symObjAddr: 0x1D3E0, symBinAddr: 0x113010, symSize: 0x150 }
  - { offset: 0x6DC72E, size: 0x8, addend: 0x0, symName: __ZNSt3__120__bracket_expressionIwNS_12regex_traitsIwEEED0Ev, symObjAddr: 0x1C920, symBinAddr: 0x112550, symSize: 0x20 }
  - { offset: 0x6DCB98, size: 0x8, addend: 0x0, symName: __ZNKSt3__120__bracket_expressionIwNS_12regex_traitsIwEEE6__execERNS_7__stateIwEE, symObjAddr: 0x1C940, symBinAddr: 0x112570, symSize: 0xA60 }
  - { offset: 0x6DE97B, size: 0x8, addend: 0x0, symName: __ZNKSt3__112regex_traitsIwE20__lookup_collatenameIPwEENS_12basic_stringIwNS_11char_traitsIwEENS_9allocatorIwEEEET_SA_w, symObjAddr: 0x1D660, symBinAddr: 0x113290, symSize: 0x520 }
  - { offset: 0x6DFEE5, size: 0x8, addend: 0x0, symName: __ZNKSt3__112regex_traitsIwE9transformIPwEENS_12basic_stringIwNS_11char_traitsIwEENS_9allocatorIwEEEET_SA_, symObjAddr: 0x1D530, symBinAddr: 0x113160, symSize: 0x130 }
  - { offset: 0x6E051F, size: 0x8, addend: 0x0, symName: __ZNKSt3__112regex_traitsIwE19__transform_primaryIPwEENS_12basic_stringIwNS_11char_traitsIwEENS_9allocatorIwEEEET_SA_w, symObjAddr: 0x1DB80, symBinAddr: 0x1137B0, symSize: 0x1A0 }
  - { offset: 0x6E0CAE, size: 0x8, addend: 0x0, symName: __ZNSt3__14pairINS_12basic_stringIwNS_11char_traitsIwEENS_9allocatorIwEEEES6_ED1Ev, symObjAddr: 0x1D3A0, symBinAddr: 0x112FD0, symSize: 0x40 }
  - { offset: 0x6E1118, size: 0x8, addend: 0x0, symName: __ZNSt3__111basic_regexIwNS_12regex_traitsIwEEE25__parse_equivalence_classINS_11__wrap_iterIPKwEEEET_S9_S9_PNS_20__bracket_expressionIwS2_EE, symObjAddr: 0x1E170, symBinAddr: 0x113DA0, symSize: 0x260 }
  - { offset: 0x6E1CC9, size: 0x8, addend: 0x0, symName: __ZNSt3__111basic_regexIwNS_12regex_traitsIwEEE18__parse_awk_escapeINS_11__wrap_iterIPKwEEEET_S9_S9_PNS_12basic_stringIwNS_11char_traitsIwEENS_9allocatorIwEEEE, symObjAddr: 0x1E6E0, symBinAddr: 0x114310, symSize: 0x310 }
  - { offset: 0x6E1ECF, size: 0x8, addend: 0x0, symName: __ZNSt3__111basic_regexIwNS_12regex_traitsIwEEE24__parse_collating_symbolINS_11__wrap_iterIPKwEEEET_S9_S9_RNS_12basic_stringIwNS_11char_traitsIwEENS_9allocatorIwEEEE, symObjAddr: 0x1E470, symBinAddr: 0x1140A0, symSize: 0xE0 }
  - { offset: 0x6E22ED, size: 0x8, addend: 0x0, symName: __ZNSt3__111basic_regexIwNS_12regex_traitsIwEEE23__parse_character_classINS_11__wrap_iterIPKwEEEET_S9_S9_PNS_20__bracket_expressionIwS2_EE, symObjAddr: 0x1E3D0, symBinAddr: 0x114000, symSize: 0xA0 }
  - { offset: 0x6E2605, size: 0x8, addend: 0x0, symName: __ZNSt3__111basic_regexIwNS_12regex_traitsIwEEE20__parse_class_escapeINS_11__wrap_iterIPKwEEEET_S9_S9_RNS_12basic_stringIwNS_11char_traitsIwEENS_9allocatorIwEEEEPNS_20__bracket_expressionIwS2_EE, symObjAddr: 0x1E550, symBinAddr: 0x114180, symSize: 0x190 }
  - { offset: 0x6E27C8, size: 0x8, addend: 0x0, symName: __ZNSt3__120__bracket_expressionIwNS_12regex_traitsIwEEE13__add_digraphB8ne180100Eww, symObjAddr: 0x1EEE0, symBinAddr: 0x114B10, symSize: 0x530 }
  - { offset: 0x6E3590, size: 0x8, addend: 0x0, symName: __ZNSt3__120__bracket_expressionIwNS_12regex_traitsIwEEE11__add_rangeB8ne180100ENS_12basic_stringIwNS_11char_traitsIwEENS_9allocatorIwEEEES9_, symObjAddr: 0x1E9F0, symBinAddr: 0x114620, symSize: 0x4F0 }
  - { offset: 0x6E4FE9, size: 0x8, addend: 0x0, symName: __ZNKSt3__112regex_traitsIwE20__lookup_collatenameINS_11__wrap_iterIPKwEEEENS_12basic_stringIwNS_11char_traitsIwEENS_9allocatorIwEEEET_SD_w, symObjAddr: 0x1F410, symBinAddr: 0x115040, symSize: 0x520 }
  - { offset: 0x6E6583, size: 0x8, addend: 0x0, symName: __ZNKSt3__112regex_traitsIwE19__transform_primaryINS_11__wrap_iterIPwEEEENS_12basic_stringIwNS_11char_traitsIwEENS_9allocatorIwEEEET_SC_w, symObjAddr: 0x1F930, symBinAddr: 0x115560, symSize: 0x1A0 }
  - { offset: 0x6E6D42, size: 0x8, addend: 0x0, symName: __ZNSt3__16vectorINS_12basic_stringIwNS_11char_traitsIwEENS_9allocatorIwEEEENS4_IS6_EEE21__push_back_slow_pathIRKS6_EEPS6_OT_, symObjAddr: 0x1FAD0, symBinAddr: 0x115700, symSize: 0x1F0 }
  - { offset: 0x6E74A7, size: 0x8, addend: 0x0, symName: __ZNKSt3__112regex_traitsIwE18__lookup_classnameINS_11__wrap_iterIPKwEEEEjT_S7_bw, symObjAddr: 0x1FD30, symBinAddr: 0x115960, symSize: 0x200 }
  - { offset: 0x6E7FB6, size: 0x8, addend: 0x0, symName: __ZNSt3__120__bracket_expressionIwNS_12regex_traitsIwEEE14__add_neg_charB8ne180100Ew, symObjAddr: 0x1FF30, symBinAddr: 0x115B60, symSize: 0x4E0 }
  - { offset: 0x6E8D60, size: 0x8, addend: 0x0, symName: __ZNKSt3__112regex_traitsIwE9transformINS_11__wrap_iterIPwEEEENS_12basic_stringIwNS_11char_traitsIwEENS_9allocatorIwEEEET_SC_, symObjAddr: 0x20410, symBinAddr: 0x116040, symSize: 0x130 }
  - { offset: 0x6E93D5, size: 0x8, addend: 0x0, symName: __ZNSt3__16vectorINS_4pairINS_12basic_stringIwNS_11char_traitsIwEENS_9allocatorIwEEEES7_EENS5_IS8_EEE21__push_back_slow_pathIS8_EEPS8_OT_, symObjAddr: 0x20540, symBinAddr: 0x116170, symSize: 0x1F0 }
  - { offset: 0x6E9F1F, size: 0x8, addend: 0x0, symName: __ZNKSt3__16vectorINS_4pairIwwEENS_9allocatorIS2_EEE20__throw_length_errorB8ne180100Ev, symObjAddr: 0x20740, symBinAddr: 0x116370, symSize: 0x10 }
  - { offset: 0x6E9F49, size: 0x8, addend: 0x0, symName: __ZNSt3__128__begin_marked_subexpressionIwED1Ev, symObjAddr: 0x20750, symBinAddr: 0x116380, symSize: 0x30 }
  - { offset: 0x6EA50E, size: 0x8, addend: 0x0, symName: __ZNKSt3__16vectorINS_12basic_stringIwNS_11char_traitsIwEENS_9allocatorIwEEEENS4_IS6_EEE20__throw_length_errorB8ne180100Ev, symObjAddr: 0x1FD20, symBinAddr: 0x115950, symSize: 0x10 }
  - { offset: 0x6EA538, size: 0x8, addend: 0x0, symName: __ZNKSt3__112regex_traitsIwE18__lookup_classnameINS_11__wrap_iterIPKwEEEEjT_S7_bw, symObjAddr: 0x1FD30, symBinAddr: 0x115960, symSize: 0x200 }
  - { offset: 0x6EA543, size: 0x8, addend: 0x0, symName: __ZNSt3__114__split_bufferINS_12basic_stringIwNS_11char_traitsIwEENS_9allocatorIwEEEERNS4_IS6_EEED1Ev, symObjAddr: 0x1FCC0, symBinAddr: 0x1158F0, symSize: 0x60 }
  - { offset: 0x6EA9F3, size: 0x8, addend: 0x0, symName: __ZNKSt3__16vectorINS_4pairINS_12basic_stringIwNS_11char_traitsIwEENS_9allocatorIwEEEES7_EENS5_IS8_EEE20__throw_length_errorB8ne180100Ev, symObjAddr: 0x20730, symBinAddr: 0x116360, symSize: 0x10 }
  - { offset: 0x6EAA1D, size: 0x8, addend: 0x0, symName: __ZNKSt3__16vectorINS_4pairIwwEENS_9allocatorIS2_EEE20__throw_length_errorB8ne180100Ev, symObjAddr: 0x20740, symBinAddr: 0x116370, symSize: 0x10 }
  - { offset: 0x6EAA45, size: 0x8, addend: 0x0, symName: __ZNSt3__128__begin_marked_subexpressionIwED1Ev, symObjAddr: 0x20750, symBinAddr: 0x116380, symSize: 0x30 }
  - { offset: 0x6EAACE, size: 0x8, addend: 0x0, symName: __ZNSt3__128__begin_marked_subexpressionIwED0Ev, symObjAddr: 0x20780, symBinAddr: 0x1163B0, symSize: 0x40 }
  - { offset: 0x6EAB5F, size: 0x8, addend: 0x0, symName: __ZNKSt3__128__begin_marked_subexpressionIwE6__execERNS_7__stateIwEE, symObjAddr: 0x207C0, symBinAddr: 0x1163F0, symSize: 0x30 }
  - { offset: 0x6EABF5, size: 0x8, addend: 0x0, symName: __ZNSt3__126__end_marked_subexpressionIwED1Ev, symObjAddr: 0x207F0, symBinAddr: 0x116420, symSize: 0x30 }
  - { offset: 0x6EAC7E, size: 0x8, addend: 0x0, symName: __ZNSt3__126__end_marked_subexpressionIwED0Ev, symObjAddr: 0x20820, symBinAddr: 0x116450, symSize: 0x40 }
  - { offset: 0x6EAD0F, size: 0x8, addend: 0x0, symName: __ZNKSt3__126__end_marked_subexpressionIwE6__execERNS_7__stateIwEE, symObjAddr: 0x20860, symBinAddr: 0x116490, symSize: 0x30 }
  - { offset: 0x6EB01D, size: 0x8, addend: 0x0, symName: __ZNSt3__16__loopIwED0Ev, symObjAddr: 0x20A20, symBinAddr: 0x116650, symSize: 0x60 }
  - { offset: 0x6EB110, size: 0x8, addend: 0x0, symName: __ZNSt3__16__loopIwED1Ev, symObjAddr: 0x209D0, symBinAddr: 0x116600, symSize: 0x50 }
  - { offset: 0x6EB238, size: 0x8, addend: 0x0, symName: __ZNKSt3__16__loopIwE6__execERNS_7__stateIwEE, symObjAddr: 0x20A80, symBinAddr: 0x1166B0, symSize: 0x1D0 }
  - { offset: 0x6EB3D8, size: 0x8, addend: 0x0, symName: __ZNKSt3__16__loopIwE12__exec_splitEbRNS_7__stateIwEE, symObjAddr: 0x20C50, symBinAddr: 0x116880, symSize: 0xC0 }
  - { offset: 0x6EB4E0, size: 0x8, addend: 0x0, symName: __ZNSt3__117__owns_two_statesIwED1Ev, symObjAddr: 0x20D10, symBinAddr: 0x116940, symSize: 0x50 }
  - { offset: 0x6EB574, size: 0x8, addend: 0x0, symName: __ZNSt3__117__owns_two_statesIwED0Ev, symObjAddr: 0x20D60, symBinAddr: 0x116990, symSize: 0x60 }
  - { offset: 0x6EB610, size: 0x8, addend: 0x0, symName: __ZNSt3__117__repeat_one_loopIwED1Ev, symObjAddr: 0x20DC0, symBinAddr: 0x1169F0, symSize: 0x10 }
  - { offset: 0x6EB63C, size: 0x8, addend: 0x0, symName: __ZNSt3__117__repeat_one_loopIwED0Ev, symObjAddr: 0x20DD0, symBinAddr: 0x116A00, symSize: 0x10 }
  - { offset: 0x6EB668, size: 0x8, addend: 0x0, symName: __ZNKSt3__117__repeat_one_loopIwE6__execERNS_7__stateIwEE, symObjAddr: 0x20DE0, symBinAddr: 0x116A10, symSize: 0x20 }
  - { offset: 0x6EB6D8, size: 0x8, addend: 0x0, symName: __ZNSt3__111__alternateIwED1Ev, symObjAddr: 0x20E00, symBinAddr: 0x116A30, symSize: 0x50 }
  - { offset: 0x6EB78C, size: 0x8, addend: 0x0, symName: __ZNSt3__111__alternateIwED0Ev, symObjAddr: 0x20E50, symBinAddr: 0x116A80, symSize: 0x60 }
  - { offset: 0x6EB846, size: 0x8, addend: 0x0, symName: __ZNKSt3__111__alternateIwE6__execERNS_7__stateIwEE, symObjAddr: 0x20EB0, symBinAddr: 0x116AE0, symSize: 0x10 }
  - { offset: 0x6EB87C, size: 0x8, addend: 0x0, symName: __ZNKSt3__111__alternateIwE12__exec_splitEbRNS_7__stateIwEE, symObjAddr: 0x20EC0, symBinAddr: 0x116AF0, symSize: 0x20 }
  - { offset: 0x6EB8CD, size: 0x8, addend: 0x0, symName: __ZNSt3__121__empty_non_own_stateIwED1Ev, symObjAddr: 0x20EE0, symBinAddr: 0x116B10, symSize: 0x10 }
  - { offset: 0x6EB8F9, size: 0x8, addend: 0x0, symName: __ZNSt3__121__empty_non_own_stateIwED0Ev, symObjAddr: 0x20EF0, symBinAddr: 0x116B20, symSize: 0x10 }
  - { offset: 0x6EB925, size: 0x8, addend: 0x0, symName: __ZNKSt3__121__empty_non_own_stateIwE6__execERNS_7__stateIwEE, symObjAddr: 0x20F00, symBinAddr: 0x116B30, symSize: 0x20 }
  - { offset: 0x6EBA7D, size: 0x8, addend: 0x0, symName: __ZNSt3__111basic_regexIwNS_12regex_traitsIwEEE32__parse_one_char_or_coll_elem_REINS_11__wrap_iterIPKwEEEET_S9_S9_, symObjAddr: 0x213A0, symBinAddr: 0x116FD0, symSize: 0xE0 }
  - { offset: 0x6EBEBD, size: 0x8, addend: 0x0, symName: __ZNSt3__111__match_anyIwED1Ev, symObjAddr: 0x21480, symBinAddr: 0x1170B0, symSize: 0x30 }
  - { offset: 0x6EBF46, size: 0x8, addend: 0x0, symName: __ZNSt3__111__match_anyIwED0Ev, symObjAddr: 0x214B0, symBinAddr: 0x1170E0, symSize: 0x40 }
  - { offset: 0x6EBFD7, size: 0x8, addend: 0x0, symName: __ZNKSt3__111__match_anyIwE6__execERNS_7__stateIwEE, symObjAddr: 0x214F0, symBinAddr: 0x117120, symSize: 0x40 }
  - { offset: 0x6EC02A, size: 0x8, addend: 0x0, symName: __ZNSt3__111basic_regexIwNS_12regex_traitsIwEEE15__test_back_refEw, symObjAddr: 0x21530, symBinAddr: 0x117160, symSize: 0x60 }
  - { offset: 0x6EC1A4, size: 0x8, addend: 0x0, symName: __ZNSt3__111basic_regexIwNS_12regex_traitsIwEEE20__parse_ORD_CHAR_EREINS_11__wrap_iterIPKwEEEET_S9_S9_, symObjAddr: 0x217F0, symBinAddr: 0x117420, symSize: 0x1B0 }
  - { offset: 0x6EC245, size: 0x8, addend: 0x0, symName: __ZNSt3__111basic_regexIwNS_12regex_traitsIwEEE23__parse_QUOTED_CHAR_EREINS_11__wrap_iterIPKwEEEET_S9_S9_, symObjAddr: 0x219A0, symBinAddr: 0x1175D0, symSize: 0x1E0 }
  - { offset: 0x6EC43E, size: 0x8, addend: 0x0, symName: __ZNKSt3__111basic_regexIwNS_12regex_traitsIwEEE27__match_at_start_posix_subsINS_9allocatorINS_9sub_matchIPKwEEEEEEbS8_S8_RNS_13match_resultsIS8_T_EENS_15regex_constants15match_flag_typeEb, symObjAddr: 0x22900, symBinAddr: 0x118530, symSize: 0x700 }
  - { offset: 0x6EE439, size: 0x8, addend: 0x0, symName: __ZNKSt3__111basic_regexIwNS_12regex_traitsIwEEE29__match_at_start_posix_nosubsINS_9allocatorINS_9sub_matchIPKwEEEEEEbS8_S8_RNS_13match_resultsIS8_T_EENS_15regex_constants15match_flag_typeEb, symObjAddr: 0x21EB0, symBinAddr: 0x117AE0, symSize: 0xA50 }
  - { offset: 0x6F077B, size: 0x8, addend: 0x0, symName: __ZNSt3__15dequeINS_7__stateIwEENS_9allocatorIS2_EEE19__add_back_capacityEv, symObjAddr: 0x231D0, symBinAddr: 0x118E00, symSize: 0x720 }
  - { offset: 0x6F1AA1, size: 0x8, addend: 0x0, symName: __ZNSt3__15dequeINS_7__stateIwEENS_9allocatorIS2_EEE20__add_front_capacityEv, symObjAddr: 0x23CA0, symBinAddr: 0x1198D0, symSize: 0x410 }
  - { offset: 0x6F28EE, size: 0x8, addend: 0x0, symName: __ZNSt3__15dequeINS_7__stateIwEENS_9allocatorIS2_EEED1B8ne180100Ev, symObjAddr: 0x23160, symBinAddr: 0x118D90, symSize: 0x70 }
  - { offset: 0x6F2C8B, size: 0x8, addend: 0x0, symName: __ZNSt3__16vectorINS_9sub_matchIPKwEENS_9allocatorIS4_EEE18__assign_with_sizeB8ne180100IPS4_S9_EEvT_T0_l, symObjAddr: 0x24280, symBinAddr: 0x119EB0, symSize: 0x1F0 }
  - { offset: 0x6F3558, size: 0x8, addend: 0x0, symName: __ZNSt3__16vectorINS_4pairImPKwEENS_9allocatorIS4_EEE18__assign_with_sizeB8ne180100IPS4_S9_EEvT_T0_l, symObjAddr: 0x24470, symBinAddr: 0x11A0A0, symSize: 0x1C0 }
  - { offset: 0x6F3DAA, size: 0x8, addend: 0x0, symName: __ZNSt3__15dequeINS_7__stateIwEENS_9allocatorIS2_EEE5clearEv, symObjAddr: 0x23000, symBinAddr: 0x118C30, symSize: 0x160 }
  - { offset: 0x6F485A, size: 0x8, addend: 0x0, symName: __ZNSt3__114__split_bufferIPNS_7__stateIwEENS_9allocatorIS3_EEE9push_backEOS3_, symObjAddr: 0x238F0, symBinAddr: 0x119520, symSize: 0x1E0 }
  - { offset: 0x6F4D01, size: 0x8, addend: 0x0, symName: __ZNSt3__114__split_bufferIPNS_7__stateIwEENS_9allocatorIS3_EEE10push_frontEOS3_, symObjAddr: 0x23AD0, symBinAddr: 0x119700, symSize: 0x1D0 }
  - { offset: 0x6F5209, size: 0x8, addend: 0x0, symName: __ZNSt3__114__split_bufferIPNS_7__stateIwEENS_9allocatorIS3_EEE10push_frontERKS3_, symObjAddr: 0x240B0, symBinAddr: 0x119CE0, symSize: 0x1D0 }
  - { offset: 0x6F5A24, size: 0x8, addend: 0x0, symName: __ZNSt3__16__treeINS_12__value_typeINS_12basic_stringIcNS_11char_traitsIcEENS_9allocatorIcEEEEiEENS_19__map_value_compareIS7_S8_NS_4lessIS7_EELb1EEENS5_IS8_EEE12__find_equalIS7_EERPNS_16__tree_node_baseIPvEENS_21__tree_const_iteratorIS8_PNS_11__tree_nodeIS8_SH_EElEERPNS_15__tree_end_nodeISJ_EESK_RKT_, symObjAddr: 0x249A0, symBinAddr: 0x11A530, symSize: 0x430 }
  - { offset: 0x6F6DA4, size: 0x8, addend: 0x0, symName: __ZNSt3__16__treeINS_12__value_typeIiNS_12basic_stringIcNS_11char_traitsIcEENS_9allocatorIcEEEEEENS_19__map_value_compareIiS8_NS_4lessIiEELb1EEENS5_IS8_EEE12__find_equalIiEERPNS_16__tree_node_baseIPvEENS_21__tree_const_iteratorIS8_PNS_11__tree_nodeIS8_SH_EElEERPNS_15__tree_end_nodeISJ_EESK_RKT_, symObjAddr: 0x25210, symBinAddr: 0x11AC00, symSize: 0x160 }
  - { offset: 0x6FDA42, size: 0x8, addend: 0x0, symName: __ZNSt3__14__fs10filesystemdvB8ne180100ERKNS1_4pathES4_, symObjAddr: 0x32E0, symBinAddr: 0x11DEB0, symSize: 0xB0 }
  - { offset: 0x70CA1B, size: 0x8, addend: 0x0, symName: _ggml_backend_register, symObjAddr: 0x0, symBinAddr: 0x11AE80, symSize: 0xD0 }
  - { offset: 0x70CBDD, size: 0x8, addend: 0x0, symName: __ZN21ggml_backend_registry16register_backendEP16ggml_backend_regNSt3__110unique_ptrIv17dl_handle_deleterEE, symObjAddr: 0xD0, symBinAddr: 0x11AF50, symSize: 0xD0 }
  - { offset: 0x70CFA2, size: 0x8, addend: 0x0, symName: __ZN21ggml_backend_registryC2Ev, symObjAddr: 0x2BE0, symBinAddr: 0x11DA60, symSize: 0x120 }
  - { offset: 0x70D576, size: 0x8, addend: 0x0, symName: __ZNSt3__110unique_ptrIv17dl_handle_deleterED1B8ne180100Ev, symObjAddr: 0x1A0, symBinAddr: 0x11B020, symSize: 0x30 }
  - { offset: 0x70D8BD, size: 0x8, addend: 0x0, symName: __ZNSt3__16vectorI22ggml_backend_reg_entryNS_9allocatorIS1_EEE21__push_back_slow_pathIS1_EEPS1_OT_, symObjAddr: 0x2E80, symBinAddr: 0x11DCF0, symSize: 0x170 }
  - { offset: 0x70DFB0, size: 0x8, addend: 0x0, symName: __ZN21ggml_backend_registry15register_deviceEP19ggml_backend_device, symObjAddr: 0x260, symBinAddr: 0x11B0E0, symSize: 0x1B0 }
  - { offset: 0x70E4E8, size: 0x8, addend: 0x0, symName: __ZN22ggml_backend_reg_entryD1Ev, symObjAddr: 0x2D90, symBinAddr: 0x11DC00, symSize: 0x30 }
  - { offset: 0x70E5A3, size: 0x8, addend: 0x0, symName: _ggml_backend_device_register, symObjAddr: 0x1D0, symBinAddr: 0x11B050, symSize: 0x90 }
  - { offset: 0x70EA44, size: 0x8, addend: 0x0, symName: _ggml_backend_reg_count, symObjAddr: 0x410, symBinAddr: 0x11B290, symSize: 0x90 }
  - { offset: 0x70EADB, size: 0x8, addend: 0x0, symName: _ggml_backend_reg_get, symObjAddr: 0x4A0, symBinAddr: 0x11B320, symSize: 0x120 }
  - { offset: 0x70EC37, size: 0x8, addend: 0x0, symName: _ggml_backend_reg_by_name, symObjAddr: 0x5C0, symBinAddr: 0x11B440, symSize: 0x130 }
